Archive member included because of file (symbol)

/home/afrendy/projconto/atinom_lipi/atinom-lipi/TOOLCHAIN/bin/../lib/gcc/arm-elf/4.1.0/../../../../arm-elf/lib/thumb/interwork/libc.a(ctime.o)
                              ../fatfs/simpan_file.o (ctime)
/home/afrendy/projconto/atinom_lipi/atinom-lipi/TOOLCHAIN/bin/../lib/gcc/arm-elf/4.1.0/../../../../arm-elf/lib/thumb/interwork/libc.a(div.o)
                              LCD/lcd_320.o (div)
/home/afrendy/projconto/atinom_lipi/atinom-lipi/TOOLCHAIN/bin/../lib/gcc/arm-elf/4.1.0/../../../../arm-elf/lib/thumb/interwork/libc.a(lcltime.o)
                              /home/afrendy/projconto/atinom_lipi/atinom-lipi/TOOLCHAIN/bin/../lib/gcc/arm-elf/4.1.0/../../../../arm-elf/lib/thumb/interwork/libc.a(ctime.o) (localtime)
/home/afrendy/projconto/atinom_lipi/atinom-lipi/TOOLCHAIN/bin/../lib/gcc/arm-elf/4.1.0/../../../../arm-elf/lib/thumb/interwork/libc.a(lcltime_r.o)
                              /home/afrendy/projconto/atinom_lipi/atinom-lipi/TOOLCHAIN/bin/../lib/gcc/arm-elf/4.1.0/../../../../arm-elf/lib/thumb/interwork/libc.a(lcltime.o) (localtime_r)
/home/afrendy/projconto/atinom_lipi/atinom-lipi/TOOLCHAIN/bin/../lib/gcc/arm-elf/4.1.0/../../../../arm-elf/lib/thumb/interwork/libc.a(malloc.o)
                              ../tinysh/shell.o (free)
/home/afrendy/projconto/atinom_lipi/atinom-lipi/TOOLCHAIN/bin/../lib/gcc/arm-elf/4.1.0/../../../../arm-elf/lib/thumb/interwork/libc.a(mallocr.o)
                              /home/afrendy/projconto/atinom_lipi/atinom-lipi/TOOLCHAIN/bin/../lib/gcc/arm-elf/4.1.0/../../../../arm-elf/lib/thumb/interwork/libc.a(malloc.o) (_malloc_r)
/home/afrendy/projconto/atinom_lipi/atinom-lipi/TOOLCHAIN/bin/../lib/gcc/arm-elf/4.1.0/../../../../arm-elf/lib/thumb/interwork/libc.a(memcpy.o)
                              ../FreeRTOS_Source/queue.o (memcpy)
/home/afrendy/projconto/atinom_lipi/atinom-lipi/TOOLCHAIN/bin/../lib/gcc/arm-elf/4.1.0/../../../../arm-elf/lib/thumb/interwork/libc.a(memset.o)
                              ../FreeRTOS_Source/tasks.o (memset)
/home/afrendy/projconto/atinom_lipi/atinom-lipi/TOOLCHAIN/bin/../lib/gcc/arm-elf/4.1.0/../../../../arm-elf/lib/thumb/interwork/libc.a(mktime.o)
                              ../fatfs/simpan_file.o (mktime)
/home/afrendy/projconto/atinom_lipi/atinom-lipi/TOOLCHAIN/bin/../lib/gcc/arm-elf/4.1.0/../../../../arm-elf/lib/thumb/interwork/libc.a(mktm_r.o)
                              /home/afrendy/projconto/atinom_lipi/atinom-lipi/TOOLCHAIN/bin/../lib/gcc/arm-elf/4.1.0/../../../../arm-elf/lib/thumb/interwork/libc.a(mktime.o) (__tzcalc_limits)
/home/afrendy/projconto/atinom_lipi/atinom-lipi/TOOLCHAIN/bin/../lib/gcc/arm-elf/4.1.0/../../../../arm-elf/lib/thumb/interwork/libc.a(mlock.o)
                              /home/afrendy/projconto/atinom_lipi/atinom-lipi/TOOLCHAIN/bin/../lib/gcc/arm-elf/4.1.0/../../../../arm-elf/lib/thumb/interwork/libc.a(mallocr.o) (__malloc_lock)
/home/afrendy/projconto/atinom_lipi/atinom-lipi/TOOLCHAIN/bin/../lib/gcc/arm-elf/4.1.0/../../../../arm-elf/lib/thumb/interwork/libc.a(rand.o)
                              ../uip/hardware/enc28j60.o (srand)
/home/afrendy/projconto/atinom_lipi/atinom-lipi/TOOLCHAIN/bin/../lib/gcc/arm-elf/4.1.0/../../../../arm-elf/lib/thumb/interwork/libc.a(snprintf.o)
                              ../fatfs/simpan_file.o (snprintf)
/home/afrendy/projconto/atinom_lipi/atinom-lipi/TOOLCHAIN/bin/../lib/gcc/arm-elf/4.1.0/../../../../arm-elf/lib/thumb/interwork/libc.a(sprintf.o)
                              ../tinysh/shell.o (sprintf)
/home/afrendy/projconto/atinom_lipi/atinom-lipi/TOOLCHAIN/bin/../lib/gcc/arm-elf/4.1.0/../../../../arm-elf/lib/thumb/interwork/libc.a(sscanf.o)
                              ../tinysh/shell.o (sscanf)
/home/afrendy/projconto/atinom_lipi/atinom-lipi/TOOLCHAIN/bin/../lib/gcc/arm-elf/4.1.0/../../../../arm-elf/lib/thumb/interwork/libc.a(strcat.o)
                              ../tinysh/shell.o (strcat)
/home/afrendy/projconto/atinom_lipi/atinom-lipi/TOOLCHAIN/bin/../lib/gcc/arm-elf/4.1.0/../../../../arm-elf/lib/thumb/interwork/libc.a(strchr.o)
                              ../webserver/httpd.o (strchr)
/home/afrendy/projconto/atinom_lipi/atinom-lipi/TOOLCHAIN/bin/../lib/gcc/arm-elf/4.1.0/../../../../arm-elf/lib/thumb/interwork/libc.a(strcmp.o)
                              ../tinysh/shell.o (strcmp)
/home/afrendy/projconto/atinom_lipi/atinom-lipi/TOOLCHAIN/bin/../lib/gcc/arm-elf/4.1.0/../../../../arm-elf/lib/thumb/interwork/libc.a(strcpy.o)
                              ../tinysh/shell.o (strcpy)
/home/afrendy/projconto/atinom_lipi/atinom-lipi/TOOLCHAIN/bin/../lib/gcc/arm-elf/4.1.0/../../../../arm-elf/lib/thumb/interwork/libc.a(strlen.o)
                              ../tinysh/shell.o (strlen)
/home/afrendy/projconto/atinom_lipi/atinom-lipi/TOOLCHAIN/bin/../lib/gcc/arm-elf/4.1.0/../../../../arm-elf/lib/thumb/interwork/libc.a(strncmp.o)
                              ../tinysh/shell.o (strncmp)
/home/afrendy/projconto/atinom_lipi/atinom-lipi/TOOLCHAIN/bin/../lib/gcc/arm-elf/4.1.0/../../../../arm-elf/lib/thumb/interwork/libc.a(strncpy.o)
                              ../FreeRTOS_Source/tasks.o (strncpy)
/home/afrendy/projconto/atinom_lipi/atinom-lipi/TOOLCHAIN/bin/../lib/gcc/arm-elf/4.1.0/../../../../arm-elf/lib/thumb/interwork/libc.a(strrchr.o)
                              ../webserver/httpd.o (strrchr)
/home/afrendy/projconto/atinom_lipi/atinom-lipi/TOOLCHAIN/bin/../lib/gcc/arm-elf/4.1.0/../../../../arm-elf/lib/thumb/interwork/libc.a(tzlock.o)
                              /home/afrendy/projconto/atinom_lipi/atinom-lipi/TOOLCHAIN/bin/../lib/gcc/arm-elf/4.1.0/../../../../arm-elf/lib/thumb/interwork/libc.a(mktm_r.o) (__tz_lock)
/home/afrendy/projconto/atinom_lipi/atinom-lipi/TOOLCHAIN/bin/../lib/gcc/arm-elf/4.1.0/../../../../arm-elf/lib/thumb/interwork/libc.a(tzvars.o)
                              /home/afrendy/projconto/atinom_lipi/atinom-lipi/TOOLCHAIN/bin/../lib/gcc/arm-elf/4.1.0/../../../../arm-elf/lib/thumb/interwork/libc.a(mktime.o) (_daylight)
/home/afrendy/projconto/atinom_lipi/atinom-lipi/TOOLCHAIN/bin/../lib/gcc/arm-elf/4.1.0/../../../../arm-elf/lib/thumb/interwork/libc.a(vfprintf.o)
                              /home/afrendy/projconto/atinom_lipi/atinom-lipi/TOOLCHAIN/bin/../lib/gcc/arm-elf/4.1.0/../../../../arm-elf/lib/thumb/interwork/libc.a(snprintf.o) (_vfprintf_r)
/home/afrendy/projconto/atinom_lipi/atinom-lipi/TOOLCHAIN/bin/../lib/gcc/arm-elf/4.1.0/../../../../arm-elf/lib/thumb/interwork/libc.a(vfscanf.o)
                              /home/afrendy/projconto/atinom_lipi/atinom-lipi/TOOLCHAIN/bin/../lib/gcc/arm-elf/4.1.0/../../../../arm-elf/lib/thumb/interwork/libc.a(sscanf.o) (__svfscanf_r)
/home/afrendy/projconto/atinom_lipi/atinom-lipi/TOOLCHAIN/bin/../lib/gcc/arm-elf/4.1.0/../../../../arm-elf/lib/thumb/interwork/libc.a(vsprintf.o)
                              ../serial/serial.o (vsprintf)
/home/afrendy/projconto/atinom_lipi/atinom-lipi/TOOLCHAIN/bin/../lib/gcc/arm-elf/4.1.0/../../../../arm-elf/lib/thumb/interwork/libc.a(wcrtomb.o)
                              /home/afrendy/projconto/atinom_lipi/atinom-lipi/TOOLCHAIN/bin/../lib/gcc/arm-elf/4.1.0/../../../../arm-elf/lib/thumb/interwork/libc.a(vfprintf.o) (_wcrtomb_r)
/home/afrendy/projconto/atinom_lipi/atinom-lipi/TOOLCHAIN/bin/../lib/gcc/arm-elf/4.1.0/../../../../arm-elf/lib/thumb/interwork/libc.a(wcsrtombs.o)
                              /home/afrendy/projconto/atinom_lipi/atinom-lipi/TOOLCHAIN/bin/../lib/gcc/arm-elf/4.1.0/../../../../arm-elf/lib/thumb/interwork/libc.a(vfprintf.o) (_wcsrtombs_r)
/home/afrendy/projconto/atinom_lipi/atinom-lipi/TOOLCHAIN/bin/../lib/gcc/arm-elf/4.1.0/../../../../arm-elf/lib/thumb/interwork/libc.a(wctomb_r.o)
                              /home/afrendy/projconto/atinom_lipi/atinom-lipi/TOOLCHAIN/bin/../lib/gcc/arm-elf/4.1.0/../../../../arm-elf/lib/thumb/interwork/libc.a(wcrtomb.o) (_wctomb_r)
/home/afrendy/projconto/atinom_lipi/atinom-lipi/TOOLCHAIN/bin/../lib/gcc/arm-elf/4.1.0/../../../../arm-elf/lib/thumb/interwork/libc.a(wsetup.o)
                              /home/afrendy/projconto/atinom_lipi/atinom-lipi/TOOLCHAIN/bin/../lib/gcc/arm-elf/4.1.0/../../../../arm-elf/lib/thumb/interwork/libc.a(vfprintf.o) (__swsetup)
/home/afrendy/projconto/atinom_lipi/atinom-lipi/TOOLCHAIN/bin/../lib/gcc/arm-elf/4.1.0/../../../../arm-elf/lib/thumb/interwork/libc.a(asctime.o)
                              /home/afrendy/projconto/atinom_lipi/atinom-lipi/TOOLCHAIN/bin/../lib/gcc/arm-elf/4.1.0/../../../../arm-elf/lib/thumb/interwork/libc.a(ctime.o) (asctime)
/home/afrendy/projconto/atinom_lipi/atinom-lipi/TOOLCHAIN/bin/../lib/gcc/arm-elf/4.1.0/../../../../arm-elf/lib/thumb/interwork/libc.a(asctime_r.o)
                              /home/afrendy/projconto/atinom_lipi/atinom-lipi/TOOLCHAIN/bin/../lib/gcc/arm-elf/4.1.0/../../../../arm-elf/lib/thumb/interwork/libc.a(asctime.o) (asctime_r)
/home/afrendy/projconto/atinom_lipi/atinom-lipi/TOOLCHAIN/bin/../lib/gcc/arm-elf/4.1.0/../../../../arm-elf/lib/thumb/interwork/libc.a(ctype_.o)
                              /home/afrendy/projconto/atinom_lipi/atinom-lipi/TOOLCHAIN/bin/../lib/gcc/arm-elf/4.1.0/../../../../arm-elf/lib/thumb/interwork/libc.a(vfscanf.o) (__ctype_ptr)
/home/afrendy/projconto/atinom_lipi/atinom-lipi/TOOLCHAIN/bin/../lib/gcc/arm-elf/4.1.0/../../../../arm-elf/lib/thumb/interwork/libc.a(dtoa.o)
                              /home/afrendy/projconto/atinom_lipi/atinom-lipi/TOOLCHAIN/bin/../lib/gcc/arm-elf/4.1.0/../../../../arm-elf/lib/thumb/interwork/libc.a(vfprintf.o) (_dtoa_r)
/home/afrendy/projconto/atinom_lipi/atinom-lipi/TOOLCHAIN/bin/../lib/gcc/arm-elf/4.1.0/../../../../arm-elf/lib/thumb/interwork/libc.a(fflush.o)
                              /home/afrendy/projconto/atinom_lipi/atinom-lipi/TOOLCHAIN/bin/../lib/gcc/arm-elf/4.1.0/../../../../arm-elf/lib/thumb/interwork/libc.a(vfprintf.o) (fflush)
/home/afrendy/projconto/atinom_lipi/atinom-lipi/TOOLCHAIN/bin/../lib/gcc/arm-elf/4.1.0/../../../../arm-elf/lib/thumb/interwork/libc.a(findfp.o)
                              /home/afrendy/projconto/atinom_lipi/atinom-lipi/TOOLCHAIN/bin/../lib/gcc/arm-elf/4.1.0/../../../../arm-elf/lib/thumb/interwork/libc.a(vfprintf.o) (__sinit)
/home/afrendy/projconto/atinom_lipi/atinom-lipi/TOOLCHAIN/bin/../lib/gcc/arm-elf/4.1.0/../../../../arm-elf/lib/thumb/interwork/libc.a(fread.o)
                              /home/afrendy/projconto/atinom_lipi/atinom-lipi/TOOLCHAIN/bin/../lib/gcc/arm-elf/4.1.0/../../../../arm-elf/lib/thumb/interwork/libc.a(vfscanf.o) (fread)
/home/afrendy/projconto/atinom_lipi/atinom-lipi/TOOLCHAIN/bin/../lib/gcc/arm-elf/4.1.0/../../../../arm-elf/lib/thumb/interwork/libc.a(freer.o)
                              /home/afrendy/projconto/atinom_lipi/atinom-lipi/TOOLCHAIN/bin/../lib/gcc/arm-elf/4.1.0/../../../../arm-elf/lib/thumb/interwork/libc.a(malloc.o) (_free_r)
/home/afrendy/projconto/atinom_lipi/atinom-lipi/TOOLCHAIN/bin/../lib/gcc/arm-elf/4.1.0/../../../../arm-elf/lib/thumb/interwork/libc.a(fvwrite.o)
                              /home/afrendy/projconto/atinom_lipi/atinom-lipi/TOOLCHAIN/bin/../lib/gcc/arm-elf/4.1.0/../../../../arm-elf/lib/thumb/interwork/libc.a(vfprintf.o) (__sfvwrite)
/home/afrendy/projconto/atinom_lipi/atinom-lipi/TOOLCHAIN/bin/../lib/gcc/arm-elf/4.1.0/../../../../arm-elf/lib/thumb/interwork/libc.a(fwalk.o)
                              /home/afrendy/projconto/atinom_lipi/atinom-lipi/TOOLCHAIN/bin/../lib/gcc/arm-elf/4.1.0/../../../../arm-elf/lib/thumb/interwork/libc.a(fflush.o) (_fwalk)
/home/afrendy/projconto/atinom_lipi/atinom-lipi/TOOLCHAIN/bin/../lib/gcc/arm-elf/4.1.0/../../../../arm-elf/lib/thumb/interwork/libc.a(gettzinfo.o)
                              /home/afrendy/projconto/atinom_lipi/atinom-lipi/TOOLCHAIN/bin/../lib/gcc/arm-elf/4.1.0/../../../../arm-elf/lib/thumb/interwork/libc.a(mktime.o) (__gettzinfo)
/home/afrendy/projconto/atinom_lipi/atinom-lipi/TOOLCHAIN/bin/../lib/gcc/arm-elf/4.1.0/../../../../arm-elf/lib/thumb/interwork/libc.a(impure.o)
                              /home/afrendy/projconto/atinom_lipi/atinom-lipi/TOOLCHAIN/bin/../lib/gcc/arm-elf/4.1.0/../../../../arm-elf/lib/thumb/interwork/libc.a(lcltime.o) (_impure_ptr)
/home/afrendy/projconto/atinom_lipi/atinom-lipi/TOOLCHAIN/bin/../lib/gcc/arm-elf/4.1.0/../../../../arm-elf/lib/thumb/interwork/libc.a(iswspace.o)
                              /home/afrendy/projconto/atinom_lipi/atinom-lipi/TOOLCHAIN/bin/../lib/gcc/arm-elf/4.1.0/../../../../arm-elf/lib/thumb/interwork/libc.a(vfscanf.o) (iswspace)
/home/afrendy/projconto/atinom_lipi/atinom-lipi/TOOLCHAIN/bin/../lib/gcc/arm-elf/4.1.0/../../../../arm-elf/lib/thumb/interwork/libc.a(locale.o)
                              /home/afrendy/projconto/atinom_lipi/atinom-lipi/TOOLCHAIN/bin/../lib/gcc/arm-elf/4.1.0/../../../../arm-elf/lib/thumb/interwork/libc.a(vfprintf.o) (localeconv)
/home/afrendy/projconto/atinom_lipi/atinom-lipi/TOOLCHAIN/bin/../lib/gcc/arm-elf/4.1.0/../../../../arm-elf/lib/thumb/interwork/libc.a(makebuf.o)
                              /home/afrendy/projconto/atinom_lipi/atinom-lipi/TOOLCHAIN/bin/../lib/gcc/arm-elf/4.1.0/../../../../arm-elf/lib/thumb/interwork/libc.a(wsetup.o) (__smakebuf)
/home/afrendy/projconto/atinom_lipi/atinom-lipi/TOOLCHAIN/bin/../lib/gcc/arm-elf/4.1.0/../../../../arm-elf/lib/thumb/interwork/libc.a(mbrtowc.o)
                              /home/afrendy/projconto/atinom_lipi/atinom-lipi/TOOLCHAIN/bin/../lib/gcc/arm-elf/4.1.0/../../../../arm-elf/lib/thumb/interwork/libc.a(vfscanf.o) (_mbrtowc_r)
/home/afrendy/projconto/atinom_lipi/atinom-lipi/TOOLCHAIN/bin/../lib/gcc/arm-elf/4.1.0/../../../../arm-elf/lib/thumb/interwork/libc.a(mbtowc_r.o)
                              /home/afrendy/projconto/atinom_lipi/atinom-lipi/TOOLCHAIN/bin/../lib/gcc/arm-elf/4.1.0/../../../../arm-elf/lib/thumb/interwork/libc.a(mbrtowc.o) (_mbtowc_r)
/home/afrendy/projconto/atinom_lipi/atinom-lipi/TOOLCHAIN/bin/../lib/gcc/arm-elf/4.1.0/../../../../arm-elf/lib/thumb/interwork/libc.a(memchr.o)
                              /home/afrendy/projconto/atinom_lipi/atinom-lipi/TOOLCHAIN/bin/../lib/gcc/arm-elf/4.1.0/../../../../arm-elf/lib/thumb/interwork/libc.a(vfprintf.o) (memchr)
/home/afrendy/projconto/atinom_lipi/atinom-lipi/TOOLCHAIN/bin/../lib/gcc/arm-elf/4.1.0/../../../../arm-elf/lib/thumb/interwork/libc.a(memmove.o)
                              /home/afrendy/projconto/atinom_lipi/atinom-lipi/TOOLCHAIN/bin/../lib/gcc/arm-elf/4.1.0/../../../../arm-elf/lib/thumb/interwork/libc.a(fvwrite.o) (memmove)
/home/afrendy/projconto/atinom_lipi/atinom-lipi/TOOLCHAIN/bin/../lib/gcc/arm-elf/4.1.0/../../../../arm-elf/lib/thumb/interwork/libc.a(mprec.o)
                              /home/afrendy/projconto/atinom_lipi/atinom-lipi/TOOLCHAIN/bin/../lib/gcc/arm-elf/4.1.0/../../../../arm-elf/lib/thumb/interwork/libc.a(dtoa.o) (_Bfree)
/home/afrendy/projconto/atinom_lipi/atinom-lipi/TOOLCHAIN/bin/../lib/gcc/arm-elf/4.1.0/../../../../arm-elf/lib/thumb/interwork/libc.a(reallocr.o)
                              /home/afrendy/projconto/atinom_lipi/atinom-lipi/TOOLCHAIN/bin/../lib/gcc/arm-elf/4.1.0/../../../../arm-elf/lib/thumb/interwork/libc.a(fvwrite.o) (_realloc_r)
/home/afrendy/projconto/atinom_lipi/atinom-lipi/TOOLCHAIN/bin/../lib/gcc/arm-elf/4.1.0/../../../../arm-elf/lib/thumb/interwork/libc.a(refill.o)
                              /home/afrendy/projconto/atinom_lipi/atinom-lipi/TOOLCHAIN/bin/../lib/gcc/arm-elf/4.1.0/../../../../arm-elf/lib/thumb/interwork/libc.a(vfscanf.o) (__srefill)
/home/afrendy/projconto/atinom_lipi/atinom-lipi/TOOLCHAIN/bin/../lib/gcc/arm-elf/4.1.0/../../../../arm-elf/lib/thumb/interwork/libc.a(s_isinf.o)
                              /home/afrendy/projconto/atinom_lipi/atinom-lipi/TOOLCHAIN/bin/../lib/gcc/arm-elf/4.1.0/../../../../arm-elf/lib/thumb/interwork/libc.a(vfprintf.o) (isinf)
/home/afrendy/projconto/atinom_lipi/atinom-lipi/TOOLCHAIN/bin/../lib/gcc/arm-elf/4.1.0/../../../../arm-elf/lib/thumb/interwork/libc.a(s_isnan.o)
                              /home/afrendy/projconto/atinom_lipi/atinom-lipi/TOOLCHAIN/bin/../lib/gcc/arm-elf/4.1.0/../../../../arm-elf/lib/thumb/interwork/libc.a(vfprintf.o) (isnan)
/home/afrendy/projconto/atinom_lipi/atinom-lipi/TOOLCHAIN/bin/../lib/gcc/arm-elf/4.1.0/../../../../arm-elf/lib/thumb/interwork/libc.a(sccl.o)
                              /home/afrendy/projconto/atinom_lipi/atinom-lipi/TOOLCHAIN/bin/../lib/gcc/arm-elf/4.1.0/../../../../arm-elf/lib/thumb/interwork/libc.a(vfscanf.o) (__sccl)
/home/afrendy/projconto/atinom_lipi/atinom-lipi/TOOLCHAIN/bin/../lib/gcc/arm-elf/4.1.0/../../../../arm-elf/lib/thumb/interwork/libc.a(sf_nan.o)
                              /home/afrendy/projconto/atinom_lipi/atinom-lipi/TOOLCHAIN/bin/../lib/gcc/arm-elf/4.1.0/../../../../arm-elf/lib/thumb/interwork/libc.a(vfscanf.o) (nanf)
/home/afrendy/projconto/atinom_lipi/atinom-lipi/TOOLCHAIN/bin/../lib/gcc/arm-elf/4.1.0/../../../../arm-elf/lib/thumb/interwork/libc.a(stdio.o)
                              /home/afrendy/projconto/atinom_lipi/atinom-lipi/TOOLCHAIN/bin/../lib/gcc/arm-elf/4.1.0/../../../../arm-elf/lib/thumb/interwork/libc.a(findfp.o) (__sclose)
/home/afrendy/projconto/atinom_lipi/atinom-lipi/TOOLCHAIN/bin/../lib/gcc/arm-elf/4.1.0/../../../../arm-elf/lib/thumb/interwork/libc.a(strtod.o)
                              /home/afrendy/projconto/atinom_lipi/atinom-lipi/TOOLCHAIN/bin/../lib/gcc/arm-elf/4.1.0/../../../../arm-elf/lib/thumb/interwork/libc.a(vfscanf.o) (_strtod_r)
/home/afrendy/projconto/atinom_lipi/atinom-lipi/TOOLCHAIN/bin/../lib/gcc/arm-elf/4.1.0/../../../../arm-elf/lib/thumb/interwork/libc.a(strtol.o)
                              /home/afrendy/projconto/atinom_lipi/atinom-lipi/TOOLCHAIN/bin/../lib/gcc/arm-elf/4.1.0/../../../../arm-elf/lib/thumb/interwork/libc.a(vfscanf.o) (_strtol_r)
/home/afrendy/projconto/atinom_lipi/atinom-lipi/TOOLCHAIN/bin/../lib/gcc/arm-elf/4.1.0/../../../../arm-elf/lib/thumb/interwork/libc.a(strtoul.o)
                              /home/afrendy/projconto/atinom_lipi/atinom-lipi/TOOLCHAIN/bin/../lib/gcc/arm-elf/4.1.0/../../../../arm-elf/lib/thumb/interwork/libc.a(vfscanf.o) (_strtoul_r)
/home/afrendy/projconto/atinom_lipi/atinom-lipi/TOOLCHAIN/bin/../lib/gcc/arm-elf/4.1.0/../../../../arm-elf/lib/thumb/interwork/libc.a(syscalls.o)
                              /home/afrendy/projconto/atinom_lipi/atinom-lipi/TOOLCHAIN/bin/../lib/gcc/arm-elf/4.1.0/../../../../arm-elf/lib/thumb/interwork/libc.a(makebuf.o) (isatty)
/home/afrendy/projconto/atinom_lipi/atinom-lipi/TOOLCHAIN/bin/../lib/gcc/arm-elf/4.1.0/../../../../arm-elf/lib/thumb/interwork/libc.a(ungetc.o)
                              /home/afrendy/projconto/atinom_lipi/atinom-lipi/TOOLCHAIN/bin/../lib/gcc/arm-elf/4.1.0/../../../../arm-elf/lib/thumb/interwork/libc.a(vfscanf.o) (ungetc)
/home/afrendy/projconto/atinom_lipi/atinom-lipi/TOOLCHAIN/bin/../lib/gcc/arm-elf/4.1.0/../../../../arm-elf/lib/thumb/interwork/libc.a(callocr.o)
                              /home/afrendy/projconto/atinom_lipi/atinom-lipi/TOOLCHAIN/bin/../lib/gcc/arm-elf/4.1.0/../../../../arm-elf/lib/thumb/interwork/libc.a(mprec.o) (_calloc_r)
/home/afrendy/projconto/atinom_lipi/atinom-lipi/TOOLCHAIN/bin/../lib/gcc/arm-elf/4.1.0/../../../../arm-elf/lib/thumb/interwork/libc.a(errno.o)
                              /home/afrendy/projconto/atinom_lipi/atinom-lipi/TOOLCHAIN/bin/../lib/gcc/arm-elf/4.1.0/../../../../arm-elf/lib/thumb/interwork/libc.a(syscalls.o) (__errno)
/home/afrendy/projconto/atinom_lipi/atinom-lipi/TOOLCHAIN/bin/../lib/gcc/arm-elf/4.1.0/../../../../arm-elf/lib/thumb/interwork/libc.a(fclose.o)
                              /home/afrendy/projconto/atinom_lipi/atinom-lipi/TOOLCHAIN/bin/../lib/gcc/arm-elf/4.1.0/../../../../arm-elf/lib/thumb/interwork/libc.a(findfp.o) (fclose)
/home/afrendy/projconto/atinom_lipi/atinom-lipi/TOOLCHAIN/bin/../lib/gcc/arm-elf/4.1.0/../../../../arm-elf/lib/thumb/interwork/libc.a(s_nan.o)
                              /home/afrendy/projconto/atinom_lipi/atinom-lipi/TOOLCHAIN/bin/../lib/gcc/arm-elf/4.1.0/../../../../arm-elf/lib/thumb/interwork/libc.a(strtod.o) (nan)
/home/afrendy/projconto/atinom_lipi/atinom-lipi/TOOLCHAIN/bin/../lib/gcc/arm-elf/4.1.0/thumb/interwork/libgcc.a(_udivsi3.o)
                              ../serial/serial.o (__udivsi3)
/home/afrendy/projconto/atinom_lipi/atinom-lipi/TOOLCHAIN/bin/../lib/gcc/arm-elf/4.1.0/thumb/interwork/libgcc.a(_divsi3.o)
                              LCD/lcd_320.o (__divsi3)
/home/afrendy/projconto/atinom_lipi/atinom-lipi/TOOLCHAIN/bin/../lib/gcc/arm-elf/4.1.0/thumb/interwork/libgcc.a(_umodsi3.o)
                              ../tinysh/shell.o (__umodsi3)
/home/afrendy/projconto/atinom_lipi/atinom-lipi/TOOLCHAIN/bin/../lib/gcc/arm-elf/4.1.0/thumb/interwork/libgcc.a(_modsi3.o)
                              LCD/menu_monita.o (__modsi3)
/home/afrendy/projconto/atinom_lipi/atinom-lipi/TOOLCHAIN/bin/../lib/gcc/arm-elf/4.1.0/thumb/interwork/libgcc.a(_dvmd_tls.o)
                              /home/afrendy/projconto/atinom_lipi/atinom-lipi/TOOLCHAIN/bin/../lib/gcc/arm-elf/4.1.0/thumb/interwork/libgcc.a(_udivsi3.o) (__div0)
/home/afrendy/projconto/atinom_lipi/atinom-lipi/TOOLCHAIN/bin/../lib/gcc/arm-elf/4.1.0/thumb/interwork/libgcc.a(_muldi3.o)
                              /home/afrendy/projconto/atinom_lipi/atinom-lipi/TOOLCHAIN/bin/../lib/gcc/arm-elf/4.1.0/../../../../arm-elf/lib/thumb/interwork/libc.a(rand.o) (__muldi3)
/home/afrendy/projconto/atinom_lipi/atinom-lipi/TOOLCHAIN/bin/../lib/gcc/arm-elf/4.1.0/thumb/interwork/libgcc.a(_fixunsdfsi.o)
                              ../spi/gmmc.o (__fixunsdfsi)
/home/afrendy/projconto/atinom_lipi/atinom-lipi/TOOLCHAIN/bin/../lib/gcc/arm-elf/4.1.0/thumb/interwork/libgcc.a(_addsub_sf.o)
                              tampilan.o (__subsf3)
/home/afrendy/projconto/atinom_lipi/atinom-lipi/TOOLCHAIN/bin/../lib/gcc/arm-elf/4.1.0/thumb/interwork/libgcc.a(_div_sf.o)
                              tampilan.o (__divsf3)
/home/afrendy/projconto/atinom_lipi/atinom-lipi/TOOLCHAIN/bin/../lib/gcc/arm-elf/4.1.0/thumb/interwork/libgcc.a(_gt_sf.o)
                              tampilan.o (__gtsf2)
/home/afrendy/projconto/atinom_lipi/atinom-lipi/TOOLCHAIN/bin/../lib/gcc/arm-elf/4.1.0/thumb/interwork/libgcc.a(_sf_to_df.o)
                              ../tinysh/shell.o (__extendsfdf2)
/home/afrendy/projconto/atinom_lipi/atinom-lipi/TOOLCHAIN/bin/../lib/gcc/arm-elf/4.1.0/thumb/interwork/libgcc.a(_thenan_sf.o)
                              /home/afrendy/projconto/atinom_lipi/atinom-lipi/TOOLCHAIN/bin/../lib/gcc/arm-elf/4.1.0/thumb/interwork/libgcc.a(_addsub_sf.o) (__thenan_sf)
/home/afrendy/projconto/atinom_lipi/atinom-lipi/TOOLCHAIN/bin/../lib/gcc/arm-elf/4.1.0/thumb/interwork/libgcc.a(_addsub_df.o)
                              /home/afrendy/projconto/atinom_lipi/atinom-lipi/TOOLCHAIN/bin/../lib/gcc/arm-elf/4.1.0/../../../../arm-elf/lib/thumb/interwork/libc.a(dtoa.o) (__subdf3)
/home/afrendy/projconto/atinom_lipi/atinom-lipi/TOOLCHAIN/bin/../lib/gcc/arm-elf/4.1.0/thumb/interwork/libgcc.a(_mul_df.o)
                              LCD/menu_monita.o (__muldf3)
/home/afrendy/projconto/atinom_lipi/atinom-lipi/TOOLCHAIN/bin/../lib/gcc/arm-elf/4.1.0/thumb/interwork/libgcc.a(_div_df.o)
                              /home/afrendy/projconto/atinom_lipi/atinom-lipi/TOOLCHAIN/bin/../lib/gcc/arm-elf/4.1.0/../../../../arm-elf/lib/thumb/interwork/libc.a(dtoa.o) (__divdf3)
/home/afrendy/projconto/atinom_lipi/atinom-lipi/TOOLCHAIN/bin/../lib/gcc/arm-elf/4.1.0/thumb/interwork/libgcc.a(_eq_df.o)
                              /home/afrendy/projconto/atinom_lipi/atinom-lipi/TOOLCHAIN/bin/../lib/gcc/arm-elf/4.1.0/../../../../arm-elf/lib/thumb/interwork/libc.a(vfprintf.o) (__eqdf2)
/home/afrendy/projconto/atinom_lipi/atinom-lipi/TOOLCHAIN/bin/../lib/gcc/arm-elf/4.1.0/thumb/interwork/libgcc.a(_ne_df.o)
                              /home/afrendy/projconto/atinom_lipi/atinom-lipi/TOOLCHAIN/bin/../lib/gcc/arm-elf/4.1.0/../../../../arm-elf/lib/thumb/interwork/libc.a(vfprintf.o) (__nedf2)
/home/afrendy/projconto/atinom_lipi/atinom-lipi/TOOLCHAIN/bin/../lib/gcc/arm-elf/4.1.0/thumb/interwork/libgcc.a(_gt_df.o)
                              /home/afrendy/projconto/atinom_lipi/atinom-lipi/TOOLCHAIN/bin/../lib/gcc/arm-elf/4.1.0/../../../../arm-elf/lib/thumb/interwork/libc.a(dtoa.o) (__gtdf2)
/home/afrendy/projconto/atinom_lipi/atinom-lipi/TOOLCHAIN/bin/../lib/gcc/arm-elf/4.1.0/thumb/interwork/libgcc.a(_ge_df.o)
                              /home/afrendy/projconto/atinom_lipi/atinom-lipi/TOOLCHAIN/bin/../lib/gcc/arm-elf/4.1.0/../../../../arm-elf/lib/thumb/interwork/libc.a(dtoa.o) (__gedf2)
/home/afrendy/projconto/atinom_lipi/atinom-lipi/TOOLCHAIN/bin/../lib/gcc/arm-elf/4.1.0/thumb/interwork/libgcc.a(_lt_df.o)
                              /home/afrendy/projconto/atinom_lipi/atinom-lipi/TOOLCHAIN/bin/../lib/gcc/arm-elf/4.1.0/../../../../arm-elf/lib/thumb/interwork/libc.a(vfprintf.o) (__ltdf2)
/home/afrendy/projconto/atinom_lipi/atinom-lipi/TOOLCHAIN/bin/../lib/gcc/arm-elf/4.1.0/thumb/interwork/libgcc.a(_le_df.o)
                              /home/afrendy/projconto/atinom_lipi/atinom-lipi/TOOLCHAIN/bin/../lib/gcc/arm-elf/4.1.0/../../../../arm-elf/lib/thumb/interwork/libc.a(strtod.o) (__ledf2)
/home/afrendy/projconto/atinom_lipi/atinom-lipi/TOOLCHAIN/bin/../lib/gcc/arm-elf/4.1.0/thumb/interwork/libgcc.a(_si_to_df.o)
                              ../spi/gmmc.o (__floatsidf)
/home/afrendy/projconto/atinom_lipi/atinom-lipi/TOOLCHAIN/bin/../lib/gcc/arm-elf/4.1.0/thumb/interwork/libgcc.a(_df_to_si.o)
                              /home/afrendy/projconto/atinom_lipi/atinom-lipi/TOOLCHAIN/bin/../lib/gcc/arm-elf/4.1.0/../../../../arm-elf/lib/thumb/interwork/libc.a(dtoa.o) (__fixdfsi)
/home/afrendy/projconto/atinom_lipi/atinom-lipi/TOOLCHAIN/bin/../lib/gcc/arm-elf/4.1.0/thumb/interwork/libgcc.a(_make_df.o)
                              /home/afrendy/projconto/atinom_lipi/atinom-lipi/TOOLCHAIN/bin/../lib/gcc/arm-elf/4.1.0/thumb/interwork/libgcc.a(_sf_to_df.o) (__make_dp)
/home/afrendy/projconto/atinom_lipi/atinom-lipi/TOOLCHAIN/bin/../lib/gcc/arm-elf/4.1.0/thumb/interwork/libgcc.a(_df_to_sf.o)
                              LCD/menu_monita.o (__truncdfsf2)
/home/afrendy/projconto/atinom_lipi/atinom-lipi/TOOLCHAIN/bin/../lib/gcc/arm-elf/4.1.0/thumb/interwork/libgcc.a(_thenan_df.o)
                              /home/afrendy/projconto/atinom_lipi/atinom-lipi/TOOLCHAIN/bin/../lib/gcc/arm-elf/4.1.0/thumb/interwork/libgcc.a(_addsub_df.o) (__thenan_df)
/home/afrendy/projconto/atinom_lipi/atinom-lipi/TOOLCHAIN/bin/../lib/gcc/arm-elf/4.1.0/thumb/interwork/libgcc.a(_pack_sf.o)
                              /home/afrendy/projconto/atinom_lipi/atinom-lipi/TOOLCHAIN/bin/../lib/gcc/arm-elf/4.1.0/thumb/interwork/libgcc.a(_addsub_sf.o) (__pack_f)
/home/afrendy/projconto/atinom_lipi/atinom-lipi/TOOLCHAIN/bin/../lib/gcc/arm-elf/4.1.0/thumb/interwork/libgcc.a(_unpack_sf.o)
                              /home/afrendy/projconto/atinom_lipi/atinom-lipi/TOOLCHAIN/bin/../lib/gcc/arm-elf/4.1.0/thumb/interwork/libgcc.a(_addsub_sf.o) (__unpack_f)
/home/afrendy/projconto/atinom_lipi/atinom-lipi/TOOLCHAIN/bin/../lib/gcc/arm-elf/4.1.0/thumb/interwork/libgcc.a(_fpcmp_parts_sf.o)
                              /home/afrendy/projconto/atinom_lipi/atinom-lipi/TOOLCHAIN/bin/../lib/gcc/arm-elf/4.1.0/thumb/interwork/libgcc.a(_gt_sf.o) (__fpcmp_parts_f)
/home/afrendy/projconto/atinom_lipi/atinom-lipi/TOOLCHAIN/bin/../lib/gcc/arm-elf/4.1.0/thumb/interwork/libgcc.a(_make_sf.o)
                              /home/afrendy/projconto/atinom_lipi/atinom-lipi/TOOLCHAIN/bin/../lib/gcc/arm-elf/4.1.0/thumb/interwork/libgcc.a(_df_to_sf.o) (__make_fp)
/home/afrendy/projconto/atinom_lipi/atinom-lipi/TOOLCHAIN/bin/../lib/gcc/arm-elf/4.1.0/thumb/interwork/libgcc.a(_pack_df.o)
                              /home/afrendy/projconto/atinom_lipi/atinom-lipi/TOOLCHAIN/bin/../lib/gcc/arm-elf/4.1.0/thumb/interwork/libgcc.a(_addsub_df.o) (__pack_d)
/home/afrendy/projconto/atinom_lipi/atinom-lipi/TOOLCHAIN/bin/../lib/gcc/arm-elf/4.1.0/thumb/interwork/libgcc.a(_unpack_df.o)
                              /home/afrendy/projconto/atinom_lipi/atinom-lipi/TOOLCHAIN/bin/../lib/gcc/arm-elf/4.1.0/thumb/interwork/libgcc.a(_addsub_df.o) (__unpack_d)
/home/afrendy/projconto/atinom_lipi/atinom-lipi/TOOLCHAIN/bin/../lib/gcc/arm-elf/4.1.0/thumb/interwork/libgcc.a(_fpcmp_parts_df.o)
                              /home/afrendy/projconto/atinom_lipi/atinom-lipi/TOOLCHAIN/bin/../lib/gcc/arm-elf/4.1.0/thumb/interwork/libgcc.a(_eq_df.o) (__fpcmp_parts_d)
/home/afrendy/projconto/atinom_lipi/atinom-lipi/TOOLCHAIN/bin/../lib/gcc/arm-elf/4.1.0/../../../../arm-elf/lib/thumb/interwork/libm.a(w_pow.o)
                              ../spi/gmmc.o (pow)
/home/afrendy/projconto/atinom_lipi/atinom-lipi/TOOLCHAIN/bin/../lib/gcc/arm-elf/4.1.0/../../../../arm-elf/lib/thumb/interwork/libm.a(e_pow.o)
                              /home/afrendy/projconto/atinom_lipi/atinom-lipi/TOOLCHAIN/bin/../lib/gcc/arm-elf/4.1.0/../../../../arm-elf/lib/thumb/interwork/libm.a(w_pow.o) (__ieee754_pow)
/home/afrendy/projconto/atinom_lipi/atinom-lipi/TOOLCHAIN/bin/../lib/gcc/arm-elf/4.1.0/../../../../arm-elf/lib/thumb/interwork/libm.a(e_sqrt.o)
                              /home/afrendy/projconto/atinom_lipi/atinom-lipi/TOOLCHAIN/bin/../lib/gcc/arm-elf/4.1.0/../../../../arm-elf/lib/thumb/interwork/libm.a(e_pow.o) (__ieee754_sqrt)
/home/afrendy/projconto/atinom_lipi/atinom-lipi/TOOLCHAIN/bin/../lib/gcc/arm-elf/4.1.0/../../../../arm-elf/lib/thumb/interwork/libm.a(s_fabs.o)
                              /home/afrendy/projconto/atinom_lipi/atinom-lipi/TOOLCHAIN/bin/../lib/gcc/arm-elf/4.1.0/../../../../arm-elf/lib/thumb/interwork/libm.a(e_pow.o) (fabs)
/home/afrendy/projconto/atinom_lipi/atinom-lipi/TOOLCHAIN/bin/../lib/gcc/arm-elf/4.1.0/../../../../arm-elf/lib/thumb/interwork/libm.a(s_finite.o)
                              /home/afrendy/projconto/atinom_lipi/atinom-lipi/TOOLCHAIN/bin/../lib/gcc/arm-elf/4.1.0/../../../../arm-elf/lib/thumb/interwork/libm.a(w_pow.o) (finite)
/home/afrendy/projconto/atinom_lipi/atinom-lipi/TOOLCHAIN/bin/../lib/gcc/arm-elf/4.1.0/../../../../arm-elf/lib/thumb/interwork/libm.a(s_lib_ver.o)
                              /home/afrendy/projconto/atinom_lipi/atinom-lipi/TOOLCHAIN/bin/../lib/gcc/arm-elf/4.1.0/../../../../arm-elf/lib/thumb/interwork/libm.a(w_pow.o) (__fdlib_version)
/home/afrendy/projconto/atinom_lipi/atinom-lipi/TOOLCHAIN/bin/../lib/gcc/arm-elf/4.1.0/../../../../arm-elf/lib/thumb/interwork/libm.a(s_matherr.o)
                              /home/afrendy/projconto/atinom_lipi/atinom-lipi/TOOLCHAIN/bin/../lib/gcc/arm-elf/4.1.0/../../../../arm-elf/lib/thumb/interwork/libm.a(w_pow.o) (matherr)
/home/afrendy/projconto/atinom_lipi/atinom-lipi/TOOLCHAIN/bin/../lib/gcc/arm-elf/4.1.0/../../../../arm-elf/lib/thumb/interwork/libm.a(s_rint.o)
                              /home/afrendy/projconto/atinom_lipi/atinom-lipi/TOOLCHAIN/bin/../lib/gcc/arm-elf/4.1.0/../../../../arm-elf/lib/thumb/interwork/libm.a(w_pow.o) (rint)
/home/afrendy/projconto/atinom_lipi/atinom-lipi/TOOLCHAIN/bin/../lib/gcc/arm-elf/4.1.0/../../../../arm-elf/lib/thumb/interwork/libm.a(s_scalbn.o)
                              /home/afrendy/projconto/atinom_lipi/atinom-lipi/TOOLCHAIN/bin/../lib/gcc/arm-elf/4.1.0/../../../../arm-elf/lib/thumb/interwork/libm.a(e_pow.o) (scalbn)
/home/afrendy/projconto/atinom_lipi/atinom-lipi/TOOLCHAIN/bin/../lib/gcc/arm-elf/4.1.0/../../../../arm-elf/lib/thumb/interwork/libm.a(s_copysign.o)
                              /home/afrendy/projconto/atinom_lipi/atinom-lipi/TOOLCHAIN/bin/../lib/gcc/arm-elf/4.1.0/../../../../arm-elf/lib/thumb/interwork/libm.a(s_scalbn.o) (copysign)

Allocating common symbols
Common symbol       size              file

printbuffer         0x200             ../serial/serial.o
Fatfs               0x230             ../tinysh/shell.o
tek                 0x40              tampilan.o
fileInfo            0x20              ../tinysh/shell.o
hdl_lcd             0x4               main.o
uip_len             0x2               ../uip/uip/uip.o
x                   0x2               LCD/menu_monita.o
dirs                0x24              ../tinysh/shell.o
s_data              0x640             tampilan.o
fs                  0x4               ../webserver/httpd-fs.o
saat_gsm_ftp        0x4               main.o
tot_idle            0x4               main.o
abs_path            0x80              ../tinysh/shell.o
data_f              0x640             ../tinysh/shell.o
uip_sappdata        0x4               ../uip/uip/uip.o
uip_acc32           0x4               ../uip/uip/uip.o
sumber              0x4               ../tinysh/shell.o
command             0x14              ../tinysh/enviro.o
hdl_ether           0x4               main.o
uip_flags           0x1               ../uip/uip/uip.o
timer_saat_gsm      0x4               main.o
mutex_lcd_sem       0x4               main.o
hdl_tampilan        0x4               main.o
buf_lfn             0xff              ../tinysh/shell.o
hdl_shell           0x4               main.o
loop_kirim          0x4               ../monita/monita_uip.o
daytime             0x20              tampilan.o
buffer              0x64              ../tinysh/shell.o
uip_appdata         0x4               ../uip/uip/uip.o
uip_conn            0x4               ../uip/uip/uip.o
titik               0x100             tampilan.o
iap_entry           0x4               ../tinysh/enviro.o
uip_sntpaddr        0x4               ../uip/uip/uip.o
lcd_sem             0x4               main.o
y                   0x2               LCD/menu_monita.o
data_hitung         0x118             tampilan.o
xdata               0xf8              ../monita/monita_uip.o
data_float          0x50              ../monita/monita_uip.o
isi_sumber          0x14              LCD/menu_monita.o
result              0x8               ../tinysh/enviro.o
idle_lama           0x4               main.o
uip_listenports     0x14              ../uip/uip/uip.o
uip_draddr          0x4               ../uip/uip/uip.o
res                 0x4               ../tinysh/shell.o
keypad_sem          0x4               tampilan.o
uip_netmask         0x4               ../uip/uip/uip.o
hdl_led             0x4               main.o
uip_hostaddr        0x4               ../uip/uip/uip.o
fweb                0xab4             ../webserver/httpd-fs.o
mesin               0x78              tampilan.o
csd                 0x18              ../spi/gmmc.o
env2                0x5d4             ../tinysh/enviro.o
uip_slen            0x2               ../uip/uip/uip.o
cid                 0x18              ../spi/gmmc.o

Memory Configuration

Name             Origin             Length             Attributes
flash            0x00000000         0x0007d000
ram              0x40000000         0x0000ffe0
usbram           0x7fd00000         0x00002000
ethram           0x7fe00000         0x00004000
*default*        0x00000000         0xffffffff

Linker script and memory map

LOAD ../FreeRTOS_Source/portable/GCC/ARM7_LPC23xx/portISR.o
LOAD ../serial/serialISR.o
LOAD main.o
LOAD ../system/setup_cpu.o
LOAD ../system/syscall.o
LOAD ../system/reset_cpu.o
LOAD ../serial/serial.o
LOAD ../FreeRTOS_Source/queue.o
LOAD ../FreeRTOS_Source/tasks.o
LOAD ../FreeRTOS_Source/portable/GCC/ARM7_LPC23xx/port.o
LOAD ../FreeRTOS_Source/list.o
LOAD ../FreeRTOS_Source/portable/MemMang/heap_2.o
LOAD ../tinysh/tinysh.o
LOAD ../tinysh/shell.o
LOAD ../tinysh/enviro.o
LOAD LCD/lcd_320.o
LOAD LCD/printw.o
LOAD tampilan.o
LOAD ../spi/spi.o
LOAD ../system/idle_hook.o
LOAD ../system/rtc.o
LOAD ../GPIO/selenoid.o
LOAD ../fatfs/ff.o
LOAD ../fatfs/spi_mmc.o
LOAD ../fatfs/option/ccsbcs.o
LOAD ../spi/low_ss1.o
LOAD ../spi/gmmc.o
LOAD ../fatfs/simpan_file.o
LOAD ../monita/monita_uip.o
LOAD LCD/menu_monita.o
LOAD LCD/menu_popup.o
LOAD ../uip/hardware/enc28j60.o
LOAD ../uip/clock.o
LOAD ../uip/lib/memb.o
LOAD ../uip/uip/uip.o
LOAD ../uip/uip/uip_arch.o
LOAD ../uip/uip/uip_arp.o
LOAD ../uip/uip/uip_timer.o
LOAD ../uip/uip/uip-fw.o
LOAD ../uip/uip/psock.o
LOAD ../uip/uip/uiplib.o
LOAD ../uip/uip_task.o
LOAD ../uip/apps/telnetd/telnetd.o
LOAD ../webserver/httpd.o
LOAD ../webserver/httpd-fs.o
LOAD ../webserver/http-strings.o
LOAD ../webserver/httpd-cgi.o
LOAD ../gsm/system_ftp/kirim_file_ftp.o
LOAD ../webserver/webclient/webclient.o
LOAD ../webserver/webclient/webclient-strings.o
LOAD /home/afrendy/projconto/atinom_lipi/atinom-lipi/TOOLCHAIN/bin/../lib/gcc/arm-elf/4.1.0/../../../../arm-elf/lib/thumb/interwork/libc.a
LOAD /home/afrendy/projconto/atinom_lipi/atinom-lipi/TOOLCHAIN/bin/../lib/gcc/arm-elf/4.1.0/thumb/interwork/libgcc.a
LOAD /home/afrendy/projconto/atinom_lipi/atinom-lipi/TOOLCHAIN/bin/../lib/gcc/arm-elf/4.1.0/../../../../arm-elf/lib/thumb/interwork/libm.a
LOAD /tmp/ccoG0KeZ.o
START GROUP
LOAD /home/afrendy/projconto/atinom_lipi/atinom-lipi/TOOLCHAIN/bin/../lib/gcc/arm-elf/4.1.0/thumb/interwork/libgcc.a
LOAD /home/afrendy/projconto/atinom_lipi/atinom-lipi/TOOLCHAIN/bin/../lib/gcc/arm-elf/4.1.0/../../../../arm-elf/lib/thumb/interwork/libc.a
END GROUP
                0x40007ffc                __stack_end__ = 0x40007ffc
                0x00000000                . = 0x0

startup         0x00000000       0x44
 *(.startup)
 .startup       0x00000000       0x44 /tmp/ccoG0KeZ.o

prog            0x00000044    0x21e58
 *(.text)
 .text          0x00000044      0x254 ../FreeRTOS_Source/portable/GCC/ARM7_LPC23xx/portISR.o
                0x000000ec                vPortExitCritical
                0x000001ec                vPortYieldProcessor
                0x00000090                vPortDisableInterruptsFromThumb
                0x00000130                vNonPreemptiveTick
                0x00000044                vPortISRStartFirstTask
                0x000000a8                vPortEnableInterruptsFromThumb
                0x000000c0                vPortEnterCritical
 .text          0x00000298      0x210 ../serial/serialISR.o
                0x00000434                vSerialISRCreateQueues
                0x00000298                vUART_ISR_Handler
                0x00000394                vUART_ISR_Wrapper
 .text          0x000004a8      0x21c main.o
                0x00000564                togle_led_utama
                0x000004ec                init_led_utama
                0x000004c0                init_task_lcd
                0x00000518                LCD_task
                0x00000634                main
                0x000004a8                dele
 .text          0x000006c4      0x1d0 ../system/setup_cpu.o
                0x000006c4                ubah_clk
                0x0000075c                sysInit
 .text          0x00000894       0x9c ../system/syscall.o
                0x0000089c                _lseek_r
                0x000008a0                _fstat_r
                0x000008b0                _sbrk_r
                0x000008d0                _read_r
                0x000008ac                _isatty
                0x00000898                _close_r
                0x00000894                _write_r
 .text          0x00000930       0x6c ../system/reset_cpu.o
                0x00000930                tendang_wdog
                0x00000968                reset_cpu
                0x00000940                setup_wdog
 .text          0x0000099c      0x1bc ../serial/serial.o
                0x00000b2c                printf2
                0x0000099c                vSerialClose
                0x000009a0                uart0GetRxQueue
                0x00000a48                vSerialPutString
                0x000009cc                xSerialPutChar
                0x000009ac                xSerialGetChar
                0x00000a74                xSerialPortInitMinimal
 .text          0x00000b58      0x4c8 ../FreeRTOS_Source/queue.o
                0x00000e30                xQueueGenericSendFromISR
                0x00000fb4                xQueueCreate
                0x00000b78                vQueueDelete
                0x00000e7c                xQueueGenericSend
                0x00000bd4                xQueueReceiveFromISR
                0x00000b68                xQueueIsQueueFullFromISR
                0x00000b90                uxQueueMessagesWaiting
                0x00000ca4                xQueueGenericReceive
                0x00000b58                uxQueueMessagesWaitingFromISR
                0x00000b5c                xQueueIsQueueEmptyFromISR
                0x00000f6c                xQueueCreateMutex
 .text          0x00001020      0x734 ../FreeRTOS_Source/tasks.o
                0x00001570                vTaskEndScheduler
                0x000014b4                vTaskPlaceOnEventList
                0x000010e4                uxTaskGetStackHighWaterMark
                0x0000139c                xTaskGetTickCount
                0x000011b8                xTaskRemoveFromEventList
                0x0000132c                xTaskCheckForTimeOut
                0x00001498                vTaskSuspendAll
                0x000010fc                vTaskPriorityDisinherit
                0x00001148                vTaskPriorityInherit
                0x00001020                vTaskSwitchContext
                0x00001380                uxTaskGetNumberOfTasks
                0x00001234                vTaskIncrementTick
                0x00001310                xTaskGetCurrentTaskHandle
                0x000010c4                usTaskCheckFreeStackSpace
                0x000013b8                xTaskResumeAll
                0x00001710                vTaskStartScheduler
                0x000010b8                vTaskMissedYield
                0x00001594                xTaskCreate
                0x0000150c                vTaskDelay
                0x000010a0                vTaskSetTimeOutState
 .text          0x00001754      0x114 ../FreeRTOS_Source/portable/GCC/ARM7_LPC23xx/port.o
                0x000017fc                xPortStartScheduler
                0x000017f8                vPortEndScheduler
                0x00001754                pxPortInitialiseStack
 .text          0x00001868       0x9c ../FreeRTOS_Source/list.o
                0x00001888                vListInsertEnd
                0x000018e4                vListRemove
                0x00001880                vListInitialiseItem
                0x00001868                vListInitialise
                0x000018a4                vListInsert
 .text          0x00001904      0x128 ../FreeRTOS_Source/portable/MemMang/heap_2.o
                0x00001944                vPortFree
                0x00001904                pvPortMallocKU2
                0x00001974                pvPortMalloc
 .text          0x00001a2c      0x940 ../tinysh/tinysh.o
                0x00001d10                tinysh_char_in
                0x00001b30                tinysh_add_command
                0x00001b68                tinysh_set_prompt
                0x00001b90                tinysh_get_arg
                0x00001b9c                tinysh_atoxi
                0x00001a44                strstart
 .text          0x0000236c     0x2784 ../tinysh/shell.o
                0x00003de4                set_data
                0x0000383c                hapus_flash
                0x000025e0                cek_nomer_valid
                0x000024a8                cek_sumber
                0x00002428                cek_versi
                0x00003590                cek_fs_free
                0x00002598                garis_bawah
                0x00002acc                cek_data
                0x00002e30                proses_passwd
                0x0000366c                shell
                0x000041f8                set_sumber
                0x00003344                cek_stack
                0x0000236c                char_to_bin
                0x000033a0                set_date
                0x00002c60                cek_nomer_sumber
                0x00004634                set_group
                0x00003884                prepare_flash
                0x00002378                dec_to_bin
                0x00003638                set_fs_mount
                0x000038c4                tulis_flash
                0x00002624                baca_ip
                0x000031f0                uptime
                0x00004170                set_awal_sumber
                0x00002490                read_sumber
                0x000039f8                set_file
                0x000023d0                save_sumber
                0x00002570                garis_bawah2
                0x00002580                judul
                0x00002400                display_args
                0x000023d4                init_shell
                0x00002384                baca_kanal
 .text          0x00004af0      0x408 ../tinysh/enviro.o
                0x00004af0                tulis_env_flash
                0x00004ed0                save_env
                0x00004bdc                baca_env
                0x00004b3c                set_default_ip
                0x00004af4                set_dafault_kalib
                0x00004d88                tulis_env
                0x00004d7c                print_env
 .text          0x00004ef8      0xf3c LCD/lcd_320.o
                0x000057d4                update_lcd_layer2
                0x00005000                hapus
                0x00004fe4                fill_layar
                0x00005a94                line_ke
                0x00005de4                kotak
                0x00005800                update_hard_lcd
                0x00005708                update_lcd
                0x000057a8                update_lcd_layer3
                0x000054c4                teks_layar
                0x000050e4                teks_arial
                0x0000572c                teks_h
                0x00005070                teks_clear
                0x00005d80                msg_box
                0x00004f58                tulis_param
                0x00004fcc                cls_layar
                0x00004ef8                init_port_lcd
                0x000056c8                pixel
                0x000051bc                teks_h_hard
                0x00005774                printf_lcd
                0x00004fb0                move_ke
                0x00004f80                tulis_command
                0x000058e0                init_lcd
                0x00005400                teks_komik
                0x00005cd0                kotak3d
 .text          0x00005e34       0x70 LCD/printw.o
                0x00005e4c                printw
                0x00005e34                goto_xy
 .text          0x00005ea4      0x38c tampilan.o
                0x00005fb4                init_task_tampilan
                0x00005eb4                hitung_data_hitung
                0x00005ea4                cek_keypad
                0x00005fe4                tampilan_task
 .text          0x00006230       0x5c ../spi/spi.o
                0x00006268                spiPut
                0x00006230                spiInit
 .text          0x0000628c       0x10 ../system/idle_hook.o
                0x0000628c                vApplicationIdleHook
 .text          0x0000629c      0x2c0 ../system/rtc.o
                0x0000629c                rtc_init
                0x000063fc                p_rtc_get_time
                0x00006454                get_tm_time
                0x000062c4                rtc_reset
                0x000063a8                rtc_get_time
                0x000062d0                rtc_start
                0x0000635c                rtc_set_time_tm
                0x000064b8                get_fattime
                0x000064f8                rtcWrite
                0x00006450                get_rtc_time
                0x00006304                rtc_set_time
                0x000062e0                rtc_reset_waktu
 .text          0x0000655c     0x269c ../fatfs/ff.o
                0x00007100                f_gets
                0x000076f0                f_printf
                0x00008554                f_rename
                0x000083d0                f_truncate
                0x000065f0                gen_numname
                0x00008728                f_unlink
                0x00007680                f_putc
                0x000076bc                f_puts
                0x00008a68                f_close
                0x00006f44                f_read
                0x00007b38                f_readdir
                0x000086c4                f_chmod
                0x000089c4                f_sync
                0x000066a4                f_mount
                0x00008088                f_opendir
                0x000072a0                f_lseek
                0x00008038                f_stat
                0x00008664                f_utime
                0x0000748c                f_write
                0x00008a7c                f_open
                0x000087f0                f_mkdir
                0x00006e44                f_getfree
 .text          0x00008bf8      0x1e8 ../fatfs/spi_mmc.o
                0x00008bf8                diskShutdown
                0x00008d4c                disk_initialize
                0x00008c10                disk_status
                0x00008c20                disk_ioctl
                0x00008c1c                diskPresent
                0x00008c6c                disk_write
                0x00008cdc                disk_read
 .text          0x00008de0       0x4c ../fatfs/option/ccsbcs.o
                0x00008de0                ff_convert
 .text          0x00008e2c      0x118 ../spi/low_ss1.o
                0x00008e78                cs_mmc
                0x00008ee4                init_spi_mmc
                0x00008e84                uncs_mmc
                0x00008ec0                ambil_word_mmc
                0x00008e2c                init_gpio_mmc
                0x00008e90                kirim_word_mmc
 .text          0x00008f44      0x668 ../spi/gmmc.o
                0x00009114                init_mmc
                0x0000930c                copy_cid
                0x000091e0                mmc_crc_off
                0x00008fc4                komand_mmc
                0x00009334                get_cid_csd
                0x00008f60                getvalue
                0x00009014                baca_mmc_blok
                0x00008f9c                mmc_respon2
                0x000090a0                tulis_mmc_blok
                0x000092fc                mmc_error_out
                0x00009200                stop_mmc
                0x00009184                mmc_status
                0x00009320                copy_csd
                0x00008f50                getbit
                0x00008f44                get_sector_count
                0x00009230                tes_mmc_awal
 .text          0x000095ac      0x524 ../fatfs/simpan_file.o
                0x000097dc                proses_simpan_file
                0x000095ac                tulis_foto
                0x00009720                webclient_connected
 .text          0x00009ad0      0x798 LCD/menu_monita.o
                0x0000a0d4                menu_monita
                0x0000a138                tabel_data
                0x00009ad0                init_debug_layar
                0x00009cd4                cetak_data
                0x00009b1c                kotak_bolong
                0x00009c00                menu_setting
                0x00009ae4                init_scroll
                0x0000a18c                kotak_pesan
                0x0000a204                debug_out_h
                0x00009afc                print_scroll
                0x00009be0                menu_sumber
                0x00009e8c                menu_pilih
                0x0000a1a4                debug_out
                0x00009d04                menu_group
                0x00009b20                menu_titik
 .text          0x0000a268      0x280 LCD/menu_popup.o
                0x0000a268                kotak_pilih
                0x0000a34c                menu_OK
                0x0000a26c                data_sumber
 .text          0x0000a4e8      0x6fc ../uip/hardware/enc28j60.o
                0x0000a818                enc28j60Init
                0x0000a6b8                enc28j60Send
                0x0000a4e8                enc28j60Deinit
                0x0000a4f8                enc28j60WaitForData
                0x0000aadc                enc28j60Receive
                0x0000a4fc                cek_paket
 .text          0x0000abe4        0xc ../uip/clock.o
                0x0000abe4                clock_time
 .text          0x0000abf0       0xb4 ../uip/lib/memb.o
                0x0000abf0                memb_alloc
                0x0000ac34                memb_free
                0x0000ac80                memb_init
 .text          0x0000aca4      0xe3c ../uip/uip/uip.o
                0x0000ad10                uip_unlisten
                0x0000af64                uip_process
                0x0000ad54                uip_listen
                0x0000ada8                uip_connect
                0x0000aec0                htonl
                0x0000ad98                htons
                0x0000acb0                uip_init
                0x0000aca4                uip_setipid
                0x0000aee0                uip_iszeroaddr
                0x0000af00                uip_send
 .text          0x0000bae0      0x27c ../uip/uip/uip_arch.o
                0x0000bae0                uip_add32
                0x0000bd48                uip_ipchksum
                0x0000bc64                uip_tcpchksum
                0x0000bbf0                uip_chksum
                0x0000bba4                uip_udpchksum
 .text          0x0000bd5c      0x4cc ../uip/uip/uip_arp.o
                0x0000bffc                uip_arp_out
                0x0000be88                uip_arp_arpin
                0x0000c184                uip_arp_timer
                0x0000c1ec                uip_arp_init
                0x0000bfa4                uip_arp_ipin
 .text          0x0000c228       0x50 ../uip/uip/uip_timer.o
                0x0000c234                timer_expired
                0x0000c264                timer_set
                0x0000c254                timer_restart
                0x0000c228                timer_reset
 .text          0x0000c278      0x274 ../uip/uip/uip-fw.o
                0x0000c2a4                uip_fw_output
                0x0000c278                uip_fw_init
                0x0000c388                uip_fw_periodic
                0x0000c37c                uip_fw_default
                0x0000c36c                uip_fw_register
                0x0000c3a8                uip_fw_forward
 .text          0x0000c4ec      0x3b0 ../uip/uip/psock.o
                0x0000c7c0                psock_generator_send
                0x0000c550                psock_newdata
                0x0000c540                psock_datalen
                0x0000c83c                psock_send
                0x0000c67c                psock_readbuf
                0x0000c658                psock_init
                0x0000c578                psock_readto
 .text          0x0000c89c       0x6c ../uip/uip/uiplib.o
                0x0000c89c                uiplib_ipaddrconv
 .text          0x0000c908      0x26c ../uip/uip_task.o
                0x0000c93c                start_ether
                0x0000c908                dispatch_udp_appcall
                0x0000c90c                dispatch_tcp_appcall
 .text          0x0000cb74      0x524 ../uip/apps/telnetd/telnetd.o
                0x0000cd18                cek_passwd
                0x0000cccc                telnetd_init
                0x0000cb8c                telnetdDisconnect
                0x0000cc34                telnetdPutChar
                0x0000cde4                telnetd_appcall
 .text          0x0000d098      0x6c4 ../webserver/httpd.o
                0x0000d098                httpd_init
                0x0000d650                httpd_appcall
 .text          0x0000d75c      0x3bc ../webserver/httpd-fs.o
                0x0000d8cc                http_fs_baca_dir
                0x0000d75c                httpd_fs_init
                0x0000d7e8                httpd_fs_open
                0x0000d774                httpd_fs_count
 .text          0x0000db18      0x210 ../webserver/httpd-cgi.o
                0x0000db28                httpd_cgi
 .text          0x0000dd28      0x69c ../webserver/webclient/webclient.o
                0x0000dd4c                webclient_init
                0x0000dd28                webclient_mimetype
                0x0000dd38                webclient_hostname
                0x0000ddac                webclient_datahandler
                0x0000df54                webclient_appcall
                0x0000deb4                webclient_get
                0x0000dd40                webclient_port
                0x0000dd50                webclient_close
                0x0000dd30                webclient_filename
 .text          0x0000e3c4       0x10 /home/afrendy/projconto/atinom_lipi/atinom-lipi/TOOLCHAIN/bin/../lib/gcc/arm-elf/4.1.0/../../../../arm-elf/lib/thumb/interwork/libc.a(ctime.o)
                0x0000e3c4                ctime
 .text          0x0000e3d4       0x3c /home/afrendy/projconto/atinom_lipi/atinom-lipi/TOOLCHAIN/bin/../lib/gcc/arm-elf/4.1.0/../../../../arm-elf/lib/thumb/interwork/libc.a(div.o)
                0x0000e3d4                div
 .text          0x0000e410       0x14 /home/afrendy/projconto/atinom_lipi/atinom-lipi/TOOLCHAIN/bin/../lib/gcc/arm-elf/4.1.0/../../../../arm-elf/lib/thumb/interwork/libc.a(lcltime.o)
                0x0000e410                localtime
 .text          0x0000e424        0xc /home/afrendy/projconto/atinom_lipi/atinom-lipi/TOOLCHAIN/bin/../lib/gcc/arm-elf/4.1.0/../../../../arm-elf/lib/thumb/interwork/libc.a(lcltime_r.o)
                0x0000e424                localtime_r
 .text          0x0000e430       0x28 /home/afrendy/projconto/atinom_lipi/atinom-lipi/TOOLCHAIN/bin/../lib/gcc/arm-elf/4.1.0/../../../../arm-elf/lib/thumb/interwork/libc.a(malloc.o)
                0x0000e444                malloc
                0x0000e430                free
 .text          0x0000e458      0x538 /home/afrendy/projconto/atinom_lipi/atinom-lipi/TOOLCHAIN/bin/../lib/gcc/arm-elf/4.1.0/../../../../arm-elf/lib/thumb/interwork/libc.a(mallocr.o)
                0x0000e458                _malloc_r
 .text          0x0000e990       0x64 /home/afrendy/projconto/atinom_lipi/atinom-lipi/TOOLCHAIN/bin/../lib/gcc/arm-elf/4.1.0/../../../../arm-elf/lib/thumb/interwork/libc.a(memcpy.o)
                0x0000e990                memcpy
 .text          0x0000e9f4       0x64 /home/afrendy/projconto/atinom_lipi/atinom-lipi/TOOLCHAIN/bin/../lib/gcc/arm-elf/4.1.0/../../../../arm-elf/lib/thumb/interwork/libc.a(memset.o)
                0x0000e9f4                memset
 .text          0x0000ea58      0x434 /home/afrendy/projconto/atinom_lipi/atinom-lipi/TOOLCHAIN/bin/../lib/gcc/arm-elf/4.1.0/../../../../arm-elf/lib/thumb/interwork/libc.a(mktime.o)
                0x0000ec2c                mktime
 .text          0x0000ee8c      0x520 /home/afrendy/projconto/atinom_lipi/atinom-lipi/TOOLCHAIN/bin/../lib/gcc/arm-elf/4.1.0/../../../../arm-elf/lib/thumb/interwork/libc.a(mktm_r.o)
                0x0000ee8c                __tzcalc_limits
                0x0000f024                _mktm_r
 .text          0x0000f3ac        0x8 /home/afrendy/projconto/atinom_lipi/atinom-lipi/TOOLCHAIN/bin/../lib/gcc/arm-elf/4.1.0/../../../../arm-elf/lib/thumb/interwork/libc.a(mlock.o)
                0x0000f3b0                __malloc_unlock
                0x0000f3ac                __malloc_lock
 .text          0x0000f3b4       0x50 /home/afrendy/projconto/atinom_lipi/atinom-lipi/TOOLCHAIN/bin/../lib/gcc/arm-elf/4.1.0/../../../../arm-elf/lib/thumb/interwork/libc.a(rand.o)
                0x0000f3c8                rand
                0x0000f3b4                srand
 .text          0x0000f404       0xbc /home/afrendy/projconto/atinom_lipi/atinom-lipi/TOOLCHAIN/bin/../lib/gcc/arm-elf/4.1.0/../../../../arm-elf/lib/thumb/interwork/libc.a(snprintf.o)
                0x0000f404                snprintf
                0x0000f468                _snprintf_r
 .text          0x0000f4c0       0x84 /home/afrendy/projconto/atinom_lipi/atinom-lipi/TOOLCHAIN/bin/../lib/gcc/arm-elf/4.1.0/../../../../arm-elf/lib/thumb/interwork/libc.a(sprintf.o)
                0x0000f504                _sprintf_r
                0x0000f4c0                sprintf
 .text          0x0000f544       0xac /home/afrendy/projconto/atinom_lipi/atinom-lipi/TOOLCHAIN/bin/../lib/gcc/arm-elf/4.1.0/../../../../arm-elf/lib/thumb/interwork/libc.a(sscanf.o)
                0x0000f5a0                sscanf
                0x0000f548                _sscanf_r
 .text          0x0000f5f0       0x58 /home/afrendy/projconto/atinom_lipi/atinom-lipi/TOOLCHAIN/bin/../lib/gcc/arm-elf/4.1.0/../../../../arm-elf/lib/thumb/interwork/libc.a(strcat.o)
                0x0000f5f0                strcat
 .text          0x0000f648       0x7c /home/afrendy/projconto/atinom_lipi/atinom-lipi/TOOLCHAIN/bin/../lib/gcc/arm-elf/4.1.0/../../../../arm-elf/lib/thumb/interwork/libc.a(strchr.o)
                0x0000f648                strchr
 .text          0x0000f6c4       0x68 /home/afrendy/projconto/atinom_lipi/atinom-lipi/TOOLCHAIN/bin/../lib/gcc/arm-elf/4.1.0/../../../../arm-elf/lib/thumb/interwork/libc.a(strcmp.o)
                0x0000f6c4                strcmp
 .text          0x0000f72c       0x50 /home/afrendy/projconto/atinom_lipi/atinom-lipi/TOOLCHAIN/bin/../lib/gcc/arm-elf/4.1.0/../../../../arm-elf/lib/thumb/interwork/libc.a(strcpy.o)
                0x0000f72c                strcpy
 .text          0x0000f77c       0x50 /home/afrendy/projconto/atinom_lipi/atinom-lipi/TOOLCHAIN/bin/../lib/gcc/arm-elf/4.1.0/../../../../arm-elf/lib/thumb/interwork/libc.a(strlen.o)
                0x0000f77c                strlen
 .text          0x0000f7cc       0xb4 /home/afrendy/projconto/atinom_lipi/atinom-lipi/TOOLCHAIN/bin/../lib/gcc/arm-elf/4.1.0/../../../../arm-elf/lib/thumb/interwork/libc.a(strncmp.o)
                0x0000f7cc                strncmp
 .text          0x0000f880       0x88 /home/afrendy/projconto/atinom_lipi/atinom-lipi/TOOLCHAIN/bin/../lib/gcc/arm-elf/4.1.0/../../../../arm-elf/lib/thumb/interwork/libc.a(strncpy.o)
                0x0000f880                strncpy
 .text          0x0000f908       0x30 /home/afrendy/projconto/atinom_lipi/atinom-lipi/TOOLCHAIN/bin/../lib/gcc/arm-elf/4.1.0/../../../../arm-elf/lib/thumb/interwork/libc.a(strrchr.o)
                0x0000f908                strrchr
 .text          0x0000f938        0x8 /home/afrendy/projconto/atinom_lipi/atinom-lipi/TOOLCHAIN/bin/../lib/gcc/arm-elf/4.1.0/../../../../arm-elf/lib/thumb/interwork/libc.a(tzlock.o)
                0x0000f93c                __tz_unlock
                0x0000f938                __tz_lock
 .text          0x0000f940     0x1a60 /home/afrendy/projconto/atinom_lipi/atinom-lipi/TOOLCHAIN/bin/../lib/gcc/arm-elf/4.1.0/../../../../arm-elf/lib/thumb/interwork/libc.a(vfprintf.o)
                0x0000f960                _vfprintf_r
                0x00011380                vfprintf
 .text          0x000113a0      0xc6c /home/afrendy/projconto/atinom_lipi/atinom-lipi/TOOLCHAIN/bin/../lib/gcc/arm-elf/4.1.0/../../../../arm-elf/lib/thumb/interwork/libc.a(vfscanf.o)
                0x00011f88                __svfscanf
                0x00011fa8                _vfscanf_r
                0x00011fd4                vfscanf
                0x000113a0                __svfscanf_r
 .text          0x0001200c       0x74 /home/afrendy/projconto/atinom_lipi/atinom-lipi/TOOLCHAIN/bin/../lib/gcc/arm-elf/4.1.0/../../../../arm-elf/lib/thumb/interwork/libc.a(vsprintf.o)
                0x00012040                vsprintf
                0x0001200c                _vsprintf_r
 .text          0x00012080       0x54 /home/afrendy/projconto/atinom_lipi/atinom-lipi/TOOLCHAIN/bin/../lib/gcc/arm-elf/4.1.0/../../../../arm-elf/lib/thumb/interwork/libc.a(wcrtomb.o)
                0x00012080                _wcrtomb_r
                0x000120b4                wcrtomb
 .text          0x000120d4      0x10c /home/afrendy/projconto/atinom_lipi/atinom-lipi/TOOLCHAIN/bin/../lib/gcc/arm-elf/4.1.0/../../../../arm-elf/lib/thumb/interwork/libc.a(wcsrtombs.o)
                0x000120d4                _wcsrtombs_r
                0x000121b8                wcsrtombs
 .text          0x000121e0      0x2b8 /home/afrendy/projconto/atinom_lipi/atinom-lipi/TOOLCHAIN/bin/../lib/gcc/arm-elf/4.1.0/../../../../arm-elf/lib/thumb/interwork/libc.a(wctomb_r.o)
                0x000121e0                _wctomb_r
 .text          0x00012498       0xa0 /home/afrendy/projconto/atinom_lipi/atinom-lipi/TOOLCHAIN/bin/../lib/gcc/arm-elf/4.1.0/../../../../arm-elf/lib/thumb/interwork/libc.a(wsetup.o)
                0x00012498                __swsetup
 .text          0x00012538       0x14 /home/afrendy/projconto/atinom_lipi/atinom-lipi/TOOLCHAIN/bin/../lib/gcc/arm-elf/4.1.0/../../../../arm-elf/lib/thumb/interwork/libc.a(asctime.o)
                0x00012538                asctime
 .text          0x0001254c       0x54 /home/afrendy/projconto/atinom_lipi/atinom-lipi/TOOLCHAIN/bin/../lib/gcc/arm-elf/4.1.0/../../../../arm-elf/lib/thumb/interwork/libc.a(asctime_r.o)
                0x0001254c                asctime_r
 .text          0x000125a0      0xf28 /home/afrendy/projconto/atinom_lipi/atinom-lipi/TOOLCHAIN/bin/../lib/gcc/arm-elf/4.1.0/../../../../arm-elf/lib/thumb/interwork/libc.a(dtoa.o)
                0x000126f0                _dtoa_r
 .text          0x000134c8       0x90 /home/afrendy/projconto/atinom_lipi/atinom-lipi/TOOLCHAIN/bin/../lib/gcc/arm-elf/4.1.0/../../../../arm-elf/lib/thumb/interwork/libc.a(fflush.o)
                0x000134c8                fflush
 .text          0x00013558      0x1c4 /home/afrendy/projconto/atinom_lipi/atinom-lipi/TOOLCHAIN/bin/../lib/gcc/arm-elf/4.1.0/../../../../arm-elf/lib/thumb/interwork/libc.a(findfp.o)
                0x000135a0                __sinit
                0x00013658                __sfmoreglue
                0x00013644                _cleanup
                0x00013634                _cleanup_r
                0x0001361c                __fp_lock_all
                0x00013590                __sfp_lock_acquire
                0x00013690                __sfp
                0x0001359c                __sinit_lock_release
                0x00013604                __fp_unlock_all
                0x00013594                __sfp_lock_release
                0x00013598                __sinit_lock_acquire
 .text          0x0001371c      0x148 /home/afrendy/projconto/atinom_lipi/atinom-lipi/TOOLCHAIN/bin/../lib/gcc/arm-elf/4.1.0/../../../../arm-elf/lib/thumb/interwork/libc.a(fread.o)
                0x0001371c                fread
 .text          0x00013864      0x268 /home/afrendy/projconto/atinom_lipi/atinom-lipi/TOOLCHAIN/bin/../lib/gcc/arm-elf/4.1.0/../../../../arm-elf/lib/thumb/interwork/libc.a(freer.o)
                0x00013904                _free_r
                0x00013864                _malloc_trim_r
 .text          0x00013acc      0x298 /home/afrendy/projconto/atinom_lipi/atinom-lipi/TOOLCHAIN/bin/../lib/gcc/arm-elf/4.1.0/../../../../arm-elf/lib/thumb/interwork/libc.a(fvwrite.o)
                0x00013acc                __sfvwrite
 .text          0x00013d64       0xf0 /home/afrendy/projconto/atinom_lipi/atinom-lipi/TOOLCHAIN/bin/../lib/gcc/arm-elf/4.1.0/../../../../arm-elf/lib/thumb/interwork/libc.a(fwalk.o)
                0x00013ddc                _fwalk
                0x00013d64                _fwalk_reent
 .text          0x00013e54        0x8 /home/afrendy/projconto/atinom_lipi/atinom-lipi/TOOLCHAIN/bin/../lib/gcc/arm-elf/4.1.0/../../../../arm-elf/lib/thumb/interwork/libc.a(gettzinfo.o)
                0x00013e54                __gettzinfo
 .text          0x00013e5c       0x1c /home/afrendy/projconto/atinom_lipi/atinom-lipi/TOOLCHAIN/bin/../lib/gcc/arm-elf/4.1.0/../../../../arm-elf/lib/thumb/interwork/libc.a(iswspace.o)
                0x00013e5c                iswspace
 .text          0x00013e78       0x88 /home/afrendy/projconto/atinom_lipi/atinom-lipi/TOOLCHAIN/bin/../lib/gcc/arm-elf/4.1.0/../../../../arm-elf/lib/thumb/interwork/libc.a(locale.o)
                0x00013ea0                _setlocale_r
                0x00013e78                __locale_charset
                0x00013e84                _localeconv_r
                0x00013ee4                setlocale
                0x00013e8c                localeconv
 .text          0x00013f00       0xdc /home/afrendy/projconto/atinom_lipi/atinom-lipi/TOOLCHAIN/bin/../lib/gcc/arm-elf/4.1.0/../../../../arm-elf/lib/thumb/interwork/libc.a(makebuf.o)
                0x00013f00                __smakebuf
 .text          0x00013fdc       0x64 /home/afrendy/projconto/atinom_lipi/atinom-lipi/TOOLCHAIN/bin/../lib/gcc/arm-elf/4.1.0/../../../../arm-elf/lib/thumb/interwork/libc.a(mbrtowc.o)
                0x00014018                mbrtowc
                0x00013fdc                _mbrtowc_r
 .text          0x00014040       0x38 /home/afrendy/projconto/atinom_lipi/atinom-lipi/TOOLCHAIN/bin/../lib/gcc/arm-elf/4.1.0/../../../../arm-elf/lib/thumb/interwork/libc.a(mbtowc_r.o)
                0x00014040                _mbtowc_r
 .text          0x00014078       0xbc /home/afrendy/projconto/atinom_lipi/atinom-lipi/TOOLCHAIN/bin/../lib/gcc/arm-elf/4.1.0/../../../../arm-elf/lib/thumb/interwork/libc.a(memchr.o)
                0x00014078                memchr
 .text          0x00014134       0x8c /home/afrendy/projconto/atinom_lipi/atinom-lipi/TOOLCHAIN/bin/../lib/gcc/arm-elf/4.1.0/../../../../arm-elf/lib/thumb/interwork/libc.a(memmove.o)
                0x00014134                memmove
 .text          0x000141c0      0x8c0 /home/afrendy/projconto/atinom_lipi/atinom-lipi/TOOLCHAIN/bin/../lib/gcc/arm-elf/4.1.0/../../../../arm-elf/lib/thumb/interwork/libc.a(mprec.o)
                0x00014438                _mprec_log10
                0x000141d8                _hi0bits
                0x00014478                _Balloc
                0x000144d4                _d2b
                0x00014750                _multiply
                0x000143e4                _ratio
                0x000149f0                _s2b
                0x000148a0                _i2b
                0x00014220                _lo0bits
                0x0001428c                __mcmp
                0x00014954                _pow5mult
                0x000142cc                _ulp
                0x0001431c                _b2d
                0x000148b8                _multadd
                0x000145bc                __mdiff
                0x000146a4                _lshift
                0x000141c0                _Bfree
 .text          0x00014a80      0x3d8 /home/afrendy/projconto/atinom_lipi/atinom-lipi/TOOLCHAIN/bin/../lib/gcc/arm-elf/4.1.0/../../../../arm-elf/lib/thumb/interwork/libc.a(reallocr.o)
                0x00014a80                _realloc_r
 .text          0x00014e58      0x114 /home/afrendy/projconto/atinom_lipi/atinom-lipi/TOOLCHAIN/bin/../lib/gcc/arm-elf/4.1.0/../../../../arm-elf/lib/thumb/interwork/libc.a(refill.o)
                0x00014e70                __srefill
 .text          0x00014f6c       0x24 /home/afrendy/projconto/atinom_lipi/atinom-lipi/TOOLCHAIN/bin/../lib/gcc/arm-elf/4.1.0/../../../../arm-elf/lib/thumb/interwork/libc.a(s_isinf.o)
                0x00014f6c                isinf
 .text          0x00014f90       0x1c /home/afrendy/projconto/atinom_lipi/atinom-lipi/TOOLCHAIN/bin/../lib/gcc/arm-elf/4.1.0/../../../../arm-elf/lib/thumb/interwork/libc.a(s_isnan.o)
                0x00014f90                isnan
 .text          0x00014fac       0x7c /home/afrendy/projconto/atinom_lipi/atinom-lipi/TOOLCHAIN/bin/../lib/gcc/arm-elf/4.1.0/../../../../arm-elf/lib/thumb/interwork/libc.a(sccl.o)
                0x00014fac                __sccl
 .text          0x00015028        0x8 /home/afrendy/projconto/atinom_lipi/atinom-lipi/TOOLCHAIN/bin/../lib/gcc/arm-elf/4.1.0/../../../../arm-elf/lib/thumb/interwork/libc.a(sf_nan.o)
                0x00015028                nanf
 .text          0x00015030       0xd8 /home/afrendy/projconto/atinom_lipi/atinom-lipi/TOOLCHAIN/bin/../lib/gcc/arm-elf/4.1.0/../../../../arm-elf/lib/thumb/interwork/libc.a(stdio.o)
                0x00015048                __sseek
                0x000150d0                __sread
                0x00015030                __sclose
                0x00015088                __swrite
 .text          0x00015108      0xbe8 /home/afrendy/projconto/atinom_lipi/atinom-lipi/TOOLCHAIN/bin/../lib/gcc/arm-elf/4.1.0/../../../../arm-elf/lib/thumb/interwork/libc.a(strtod.o)
                0x00015108                _strtod_r
                0x00015cd4                strtod
                0x00015c9c                strtof
 .text          0x00015cf0      0x168 /home/afrendy/projconto/atinom_lipi/atinom-lipi/TOOLCHAIN/bin/../lib/gcc/arm-elf/4.1.0/../../../../arm-elf/lib/thumb/interwork/libc.a(strtol.o)
                0x00015e38                strtol
                0x00015cf0                _strtol_r
 .text          0x00015e58      0x16c /home/afrendy/projconto/atinom_lipi/atinom-lipi/TOOLCHAIN/bin/../lib/gcc/arm-elf/4.1.0/../../../../arm-elf/lib/thumb/interwork/libc.a(strtoul.o)
                0x00015fa4                strtoul
                0x00015e58                _strtoul_r
 .text          0x00015fc4      0x504 /home/afrendy/projconto/atinom_lipi/atinom-lipi/TOOLCHAIN/bin/../lib/gcc/arm-elf/4.1.0/../../../../arm-elf/lib/thumb/interwork/libc.a(syscalls.o)
                0x00015fe0                _getpid
                0x000160d4                initialise_monitor_handles
                0x00015ff8                isatty
                0x00016060                _fstat
                0x000163f4                _open
                0x00016028                _sbrk
                0x00015ff4                _raise
                0x0001615c                _times
                0x00016408                _stat
                0x00016444                _lseek
                0x00015fe4                _link
                0x00016218                _swiwrite
                0x00015ffc                _rename
                0x00016240                _swilseek
                0x000161e0                _swiclose
                0x000162f4                _swiopen
                0x00015fec                _unlink
                0x00016380                _write
                0x000161ac                _kill
                0x00016180                _gettimeofday
                0x0001647c                _read
                0x000161c8                _exit
                0x00016010                _system
                0x00016454                _swiread
                0x000163e4                _close
 .text          0x000164c8      0x16c /home/afrendy/projconto/atinom_lipi/atinom-lipi/TOOLCHAIN/bin/../lib/gcc/arm-elf/4.1.0/../../../../arm-elf/lib/thumb/interwork/libc.a(ungetc.o)
                0x00016618                ungetc
                0x000164c8                __submore
                0x00016544                _ungetc_r
 .text          0x00016634       0x60 /home/afrendy/projconto/atinom_lipi/atinom-lipi/TOOLCHAIN/bin/../lib/gcc/arm-elf/4.1.0/../../../../arm-elf/lib/thumb/interwork/libc.a(callocr.o)
                0x00016634                _calloc_r
 .text          0x00016694        0xc /home/afrendy/projconto/atinom_lipi/atinom-lipi/TOOLCHAIN/bin/../lib/gcc/arm-elf/4.1.0/../../../../arm-elf/lib/thumb/interwork/libc.a(errno.o)
                0x00016694                __errno
 .text          0x000166a0       0xbc /home/afrendy/projconto/atinom_lipi/atinom-lipi/TOOLCHAIN/bin/../lib/gcc/arm-elf/4.1.0/../../../../arm-elf/lib/thumb/interwork/libc.a(fclose.o)
                0x000166a0                _fclose_r
                0x00016744                fclose
 .text          0x0001675c       0x14 /home/afrendy/projconto/atinom_lipi/atinom-lipi/TOOLCHAIN/bin/../lib/gcc/arm-elf/4.1.0/../../../../arm-elf/lib/thumb/interwork/libc.a(s_nan.o)
                0x0001675c                nan
 .text          0x00016770       0x8c /home/afrendy/projconto/atinom_lipi/atinom-lipi/TOOLCHAIN/bin/../lib/gcc/arm-elf/4.1.0/thumb/interwork/libgcc.a(_udivsi3.o)
                0x00016770                __udivsi3
                0x00016770                __aeabi_uidiv
                0x000167ec                __aeabi_uidivmod
 .text          0x000167fc       0xa4 /home/afrendy/projconto/atinom_lipi/atinom-lipi/TOOLCHAIN/bin/../lib/gcc/arm-elf/4.1.0/thumb/interwork/libgcc.a(_divsi3.o)
                0x000167fc                __aeabi_idiv
                0x000167fc                __divsi3
                0x00016890                __aeabi_idivmod
 .text          0x000168a0       0xc8 /home/afrendy/projconto/atinom_lipi/atinom-lipi/TOOLCHAIN/bin/../lib/gcc/arm-elf/4.1.0/thumb/interwork/libgcc.a(_umodsi3.o)
                0x000168a0                __umodsi3
 .text          0x00016968       0xd8 /home/afrendy/projconto/atinom_lipi/atinom-lipi/TOOLCHAIN/bin/../lib/gcc/arm-elf/4.1.0/thumb/interwork/libgcc.a(_modsi3.o)
                0x00016968                __modsi3
 .text          0x00016a40        0x4 /home/afrendy/projconto/atinom_lipi/atinom-lipi/TOOLCHAIN/bin/../lib/gcc/arm-elf/4.1.0/thumb/interwork/libgcc.a(_dvmd_tls.o)
                0x00016a40                __aeabi_ldiv0
                0x00016a40                __div0
                0x00016a40                __aeabi_idiv0
 .text          0x00016a44       0x84 /home/afrendy/projconto/atinom_lipi/atinom-lipi/TOOLCHAIN/bin/../lib/gcc/arm-elf/4.1.0/thumb/interwork/libgcc.a(_muldi3.o)
                0x00016a44                __muldi3
 .text          0x00016ac8       0x40 /home/afrendy/projconto/atinom_lipi/atinom-lipi/TOOLCHAIN/bin/../lib/gcc/arm-elf/4.1.0/thumb/interwork/libgcc.a(_fixunsdfsi.o)
                0x00016ac8                __fixunsdfsi
 .text          0x00016b08      0x234 /home/afrendy/projconto/atinom_lipi/atinom-lipi/TOOLCHAIN/bin/../lib/gcc/arm-elf/4.1.0/thumb/interwork/libgcc.a(_addsub_sf.o)
                0x00016ccc                __subsf3
                0x00016d08                __addsf3
 .text          0x00016d3c      0x11c /home/afrendy/projconto/atinom_lipi/atinom-lipi/TOOLCHAIN/bin/../lib/gcc/arm-elf/4.1.0/thumb/interwork/libgcc.a(_div_sf.o)
                0x00016d74                __divsf3
 .text          0x00016e58       0x54 /home/afrendy/projconto/atinom_lipi/atinom-lipi/TOOLCHAIN/bin/../lib/gcc/arm-elf/4.1.0/thumb/interwork/libgcc.a(_gt_sf.o)
                0x00016e68                __gtsf2
 .text          0x00016eac       0x30 /home/afrendy/projconto/atinom_lipi/atinom-lipi/TOOLCHAIN/bin/../lib/gcc/arm-elf/4.1.0/thumb/interwork/libgcc.a(_sf_to_df.o)
                0x00016eac                __extendsfdf2
 .text          0x00016edc      0x328 /home/afrendy/projconto/atinom_lipi/atinom-lipi/TOOLCHAIN/bin/../lib/gcc/arm-elf/4.1.0/thumb/interwork/libgcc.a(_addsub_df.o)
                0x000171cc                __adddf3
                0x0001718c                __subdf3
 .text          0x00017204      0x2ac /home/afrendy/projconto/atinom_lipi/atinom-lipi/TOOLCHAIN/bin/../lib/gcc/arm-elf/4.1.0/thumb/interwork/libgcc.a(_mul_df.o)
                0x0001723c                __muldf3
 .text          0x000174b0      0x1ac /home/afrendy/projconto/atinom_lipi/atinom-lipi/TOOLCHAIN/bin/../lib/gcc/arm-elf/4.1.0/thumb/interwork/libgcc.a(_div_df.o)
                0x000174e8                __divdf3
 .text          0x0001765c       0x58 /home/afrendy/projconto/atinom_lipi/atinom-lipi/TOOLCHAIN/bin/../lib/gcc/arm-elf/4.1.0/thumb/interwork/libgcc.a(_eq_df.o)
                0x0001766c                __eqdf2
 .text          0x000176b4       0x58 /home/afrendy/projconto/atinom_lipi/atinom-lipi/TOOLCHAIN/bin/../lib/gcc/arm-elf/4.1.0/thumb/interwork/libgcc.a(_ne_df.o)
                0x000176c4                __nedf2
 .text          0x0001770c       0x58 /home/afrendy/projconto/atinom_lipi/atinom-lipi/TOOLCHAIN/bin/../lib/gcc/arm-elf/4.1.0/thumb/interwork/libgcc.a(_gt_df.o)
                0x0001771c                __gtdf2
 .text          0x00017764       0x58 /home/afrendy/projconto/atinom_lipi/atinom-lipi/TOOLCHAIN/bin/../lib/gcc/arm-elf/4.1.0/thumb/interwork/libgcc.a(_ge_df.o)
                0x00017774                __gedf2
 .text          0x000177bc       0x58 /home/afrendy/projconto/atinom_lipi/atinom-lipi/TOOLCHAIN/bin/../lib/gcc/arm-elf/4.1.0/thumb/interwork/libgcc.a(_lt_df.o)
                0x000177cc                __ltdf2
 .text          0x00017814       0x58 /home/afrendy/projconto/atinom_lipi/atinom-lipi/TOOLCHAIN/bin/../lib/gcc/arm-elf/4.1.0/thumb/interwork/libgcc.a(_le_df.o)
                0x00017824                __ledf2
 .text          0x0001786c       0x8c /home/afrendy/projconto/atinom_lipi/atinom-lipi/TOOLCHAIN/bin/../lib/gcc/arm-elf/4.1.0/thumb/interwork/libgcc.a(_si_to_df.o)
                0x0001786c                __floatsidf
 .text          0x000178f8       0xb4 /home/afrendy/projconto/atinom_lipi/atinom-lipi/TOOLCHAIN/bin/../lib/gcc/arm-elf/4.1.0/thumb/interwork/libgcc.a(_df_to_si.o)
                0x00017928                __fixdfsi
 .text          0x000179ac       0x28 /home/afrendy/projconto/atinom_lipi/atinom-lipi/TOOLCHAIN/bin/../lib/gcc/arm-elf/4.1.0/thumb/interwork/libgcc.a(_make_df.o)
                0x000179ac                __make_dp
 .text          0x000179d4       0x44 /home/afrendy/projconto/atinom_lipi/atinom-lipi/TOOLCHAIN/bin/../lib/gcc/arm-elf/4.1.0/thumb/interwork/libgcc.a(_df_to_sf.o)
                0x000179d4                __truncdfsf2
 .text          0x00017a18      0x130 /home/afrendy/projconto/atinom_lipi/atinom-lipi/TOOLCHAIN/bin/../lib/gcc/arm-elf/4.1.0/thumb/interwork/libgcc.a(_pack_sf.o)
                0x00017a48                __pack_f
 .text          0x00017b48       0x80 /home/afrendy/projconto/atinom_lipi/atinom-lipi/TOOLCHAIN/bin/../lib/gcc/arm-elf/4.1.0/thumb/interwork/libgcc.a(_unpack_sf.o)
                0x00017b48                __unpack_f
 .text          0x00017bc8       0xd8 /home/afrendy/projconto/atinom_lipi/atinom-lipi/TOOLCHAIN/bin/../lib/gcc/arm-elf/4.1.0/thumb/interwork/libgcc.a(_fpcmp_parts_sf.o)
                0x00017bf8                __fpcmp_parts_f
 .text          0x00017ca0       0x18 /home/afrendy/projconto/atinom_lipi/atinom-lipi/TOOLCHAIN/bin/../lib/gcc/arm-elf/4.1.0/thumb/interwork/libgcc.a(_make_sf.o)
                0x00017ca0                __make_fp
 .text          0x00017cb8      0x290 /home/afrendy/projconto/atinom_lipi/atinom-lipi/TOOLCHAIN/bin/../lib/gcc/arm-elf/4.1.0/thumb/interwork/libgcc.a(_pack_df.o)
                0x00017ce8                __pack_d
 .text          0x00017f48       0xc4 /home/afrendy/projconto/atinom_lipi/atinom-lipi/TOOLCHAIN/bin/../lib/gcc/arm-elf/4.1.0/thumb/interwork/libgcc.a(_unpack_df.o)
                0x00017f48                __unpack_d
 .text          0x0001800c       0xf0 /home/afrendy/projconto/atinom_lipi/atinom-lipi/TOOLCHAIN/bin/../lib/gcc/arm-elf/4.1.0/thumb/interwork/libgcc.a(_fpcmp_parts_df.o)
                0x0001803c                __fpcmp_parts_d
 .text          0x000180fc      0x388 /home/afrendy/projconto/atinom_lipi/atinom-lipi/TOOLCHAIN/bin/../lib/gcc/arm-elf/4.1.0/../../../../arm-elf/lib/thumb/interwork/libm.a(w_pow.o)
                0x000180fc                pow
 .text          0x00018484      0xbb4 /home/afrendy/projconto/atinom_lipi/atinom-lipi/TOOLCHAIN/bin/../lib/gcc/arm-elf/4.1.0/../../../../arm-elf/lib/thumb/interwork/libm.a(e_pow.o)
                0x00018484                __ieee754_pow
 .text          0x00019038      0x1d8 /home/afrendy/projconto/atinom_lipi/atinom-lipi/TOOLCHAIN/bin/../lib/gcc/arm-elf/4.1.0/../../../../arm-elf/lib/thumb/interwork/libm.a(e_sqrt.o)
                0x00019038                __ieee754_sqrt
 .text          0x00019210       0x18 /home/afrendy/projconto/atinom_lipi/atinom-lipi/TOOLCHAIN/bin/../lib/gcc/arm-elf/4.1.0/../../../../arm-elf/lib/thumb/interwork/libm.a(s_fabs.o)
                0x00019210                fabs
 .text          0x00019228       0x1c /home/afrendy/projconto/atinom_lipi/atinom-lipi/TOOLCHAIN/bin/../lib/gcc/arm-elf/4.1.0/../../../../arm-elf/lib/thumb/interwork/libm.a(s_finite.o)
                0x00019228                finite
 .text          0x00019244        0x4 /home/afrendy/projconto/atinom_lipi/atinom-lipi/TOOLCHAIN/bin/../lib/gcc/arm-elf/4.1.0/../../../../arm-elf/lib/thumb/interwork/libm.a(s_matherr.o)
                0x00019244                matherr
 .text          0x00019248      0x16c /home/afrendy/projconto/atinom_lipi/atinom-lipi/TOOLCHAIN/bin/../lib/gcc/arm-elf/4.1.0/../../../../arm-elf/lib/thumb/interwork/libm.a(s_rint.o)
                0x00019248                rint
 .text          0x000193b4      0x130 /home/afrendy/projconto/atinom_lipi/atinom-lipi/TOOLCHAIN/bin/../lib/gcc/arm-elf/4.1.0/../../../../arm-elf/lib/thumb/interwork/libm.a(s_scalbn.o)
                0x000193b4                scalbn
 .text          0x000194e4       0x24 /home/afrendy/projconto/atinom_lipi/atinom-lipi/TOOLCHAIN/bin/../lib/gcc/arm-elf/4.1.0/../../../../arm-elf/lib/thumb/interwork/libm.a(s_copysign.o)
                0x000194e4                copysign
 .text          0x00019508       0xb8 /tmp/ccoG0KeZ.o
                0x00019508                start
                0x000195a4                endless_loop
 *(.rodata)
 .rodata        0x000195c0        0x4 ../tinysh/tinysh.o
 .rodata        0x000195c4       0x98 ../tinysh/shell.o
 .rodata        0x0001965c        0xd ../fatfs/ff.o
 *fill*         0x00019669        0x3 00
 .rodata        0x0001966c       0x30 ../fatfs/spi_mmc.o
 .rodata        0x0001969c      0x100 ../fatfs/option/ccsbcs.o
 .rodata        0x0001979c       0x10 ../spi/gmmc.o
 .rodata        0x000197ac       0x34 ../fatfs/simpan_file.o
 .rodata        0x000197e0       0x48 ../uip/uip/uip.o
 .rodata        0x00019828        0x6 ../uip/uip/uip_arp.o
 *fill*         0x0001982e        0x2 00
 .rodata        0x00019830       0x18 ../uip/apps/telnetd/telnetd.o
 .rodata        0x00019848       0x10 ../webserver/httpd.o
 .rodata        0x00019858     0x1660 ../webserver/httpd-fs.o
                0x000198bc                file_index_html
                0x000198f8                file_fade_png
                0x0001990c                file_stats_shtml
                0x00019894                file_footer_html
                0x0001986c                file_404_html
                0x000198a8                file_header_html
                0x00019880                file_files_shtml
                0x000198e4                file_tcp_shtml
                0x000198d0                file_style_css
                0x00019858                file_processes_shtml
 .rodata        0x0001aeb8      0x24a ../webserver/http-strings.o
                0x0001b0d8                http_shtml
                0x0001aeb8                http_http
                0x0001aed4                http_10
                0x0001b052                http_content_type_png
                0x0001b01b                http_content_type_css
                0x0001af2a                http_referer
                0x0001af87                http_header_404
                0x0001aec5                http_301
                0x0001afe2                http_content_type_plain
                0x0001b0f8                http_text
                0x0001afff                http_content_type_html
                0x0001aef5                http_texthtml
                0x0001af0a                http_host
                0x0001b06e                http_content_type_gif
                0x0001af11                http_crnl
                0x0001aecf                http_get
                0x0001aeff                http_location
                0x0001b0f3                http_jpg
                0x0001b0e4                http_css
                0x0001aedd                http_11
                0x0001b036                http_content_type_text
                0x0001aeca                http_302
                0x0001aee6                http_content_type
                0x0001af33                http_header_200
                0x0001b0fd                http_txt
                0x0001b08a                http_content_type_jpg
                0x0001b0d2                http_html
                0x0001af14                http_index_html
                0x0001b0e9                http_png
                0x0001aec0                http_200
                0x0001af20                http_404_html
                0x0001b0ee                http_gif
                0x0001b0a7                http_content_type_binary
                0x0001b0df                http_htm
 *fill*         0x0001b102        0x2 00
 .rodata        0x0001b104       0x94 ../webserver/httpd-cgi.o
 .rodata        0x0001b198       0x28 ../webserver/webclient/webclient.o
 .rodata        0x0001b1c0       0x4d ../webserver/webclient/webclient-strings.o
                0x0001b1c0                http_user_agent_fields
 *fill*         0x0001b20d        0x3 00
 .rodata        0x0001b210       0x60 /home/afrendy/projconto/atinom_lipi/atinom-lipi/TOOLCHAIN/bin/../lib/gcc/arm-elf/4.1.0/../../../../arm-elf/lib/thumb/interwork/libc.a(mktime.o)
 .rodata        0x0001b270       0x68 /home/afrendy/projconto/atinom_lipi/atinom-lipi/TOOLCHAIN/bin/../lib/gcc/arm-elf/4.1.0/../../../../arm-elf/lib/thumb/interwork/libc.a(mktm_r.o)
 .rodata        0x0001b2d8      0x184 /home/afrendy/projconto/atinom_lipi/atinom-lipi/TOOLCHAIN/bin/../lib/gcc/arm-elf/4.1.0/../../../../arm-elf/lib/thumb/interwork/libc.a(vfprintf.o)
 .rodata        0x0001b45c      0x464 /home/afrendy/projconto/atinom_lipi/atinom-lipi/TOOLCHAIN/bin/../lib/gcc/arm-elf/4.1.0/../../../../arm-elf/lib/thumb/interwork/libc.a(vfscanf.o)
 .rodata        0x0001b8c0       0x39 /home/afrendy/projconto/atinom_lipi/atinom-lipi/TOOLCHAIN/bin/../lib/gcc/arm-elf/4.1.0/../../../../arm-elf/lib/thumb/interwork/libc.a(asctime_r.o)
 .rodata        0x0001b8f9      0x101 /home/afrendy/projconto/atinom_lipi/atinom-lipi/TOOLCHAIN/bin/../lib/gcc/arm-elf/4.1.0/../../../../arm-elf/lib/thumb/interwork/libc.a(ctype_.o)
                0x0001b8f9                _ctype_
 *fill*         0x0001b9fa        0x2 00
 .rodata        0x0001b9fc       0x18 /home/afrendy/projconto/atinom_lipi/atinom-lipi/TOOLCHAIN/bin/../lib/gcc/arm-elf/4.1.0/../../../../arm-elf/lib/thumb/interwork/libc.a(dtoa.o)
 .rodata        0x0001ba14        0x4 /home/afrendy/projconto/atinom_lipi/atinom-lipi/TOOLCHAIN/bin/../lib/gcc/arm-elf/4.1.0/../../../../arm-elf/lib/thumb/interwork/libc.a(impure.o)
                0x0001ba14                _global_impure_ptr
 .rodata        0x0001ba18       0x34 /home/afrendy/projconto/atinom_lipi/atinom-lipi/TOOLCHAIN/bin/../lib/gcc/arm-elf/4.1.0/../../../../arm-elf/lib/thumb/interwork/libc.a(locale.o)
 .rodata        0x0001ba4c      0x124 /home/afrendy/projconto/atinom_lipi/atinom-lipi/TOOLCHAIN/bin/../lib/gcc/arm-elf/4.1.0/../../../../arm-elf/lib/thumb/interwork/libc.a(mprec.o)
                0x0001bb3c                __mprec_tinytens
                0x0001ba4c                __mprec_tens
                0x0001bb14                __mprec_bigtens
 .rodata        0x0001bb70       0xb8 /home/afrendy/projconto/atinom_lipi/atinom-lipi/TOOLCHAIN/bin/../lib/gcc/arm-elf/4.1.0/../../../../arm-elf/lib/thumb/interwork/libc.a(strtod.o)
 .rodata        0x0001bc28       0x10 /home/afrendy/projconto/atinom_lipi/atinom-lipi/TOOLCHAIN/bin/../lib/gcc/arm-elf/4.1.0/thumb/interwork/libgcc.a(_thenan_sf.o)
                0x0001bc28                __thenan_sf
 .rodata        0x0001bc38       0x14 /home/afrendy/projconto/atinom_lipi/atinom-lipi/TOOLCHAIN/bin/../lib/gcc/arm-elf/4.1.0/thumb/interwork/libgcc.a(_thenan_df.o)
                0x0001bc38                __thenan_df
 .rodata        0x0001bc4c       0x30 /home/afrendy/projconto/atinom_lipi/atinom-lipi/TOOLCHAIN/bin/../lib/gcc/arm-elf/4.1.0/../../../../arm-elf/lib/thumb/interwork/libm.a(e_pow.o)
 .rodata        0x0001bc7c        0x4 /home/afrendy/projconto/atinom_lipi/atinom-lipi/TOOLCHAIN/bin/../lib/gcc/arm-elf/4.1.0/../../../../arm-elf/lib/thumb/interwork/libm.a(s_lib_ver.o)
                0x0001bc7c                __fdlib_version
 .rodata        0x0001bc80       0x10 /home/afrendy/projconto/atinom_lipi/atinom-lipi/TOOLCHAIN/bin/../lib/gcc/arm-elf/4.1.0/../../../../arm-elf/lib/thumb/interwork/libm.a(s_rint.o)
 *(.rodata*)
 .rodata.str1.4
                0x0001bc90        0x9 main.o
                                  0xc (size before relaxing)
 *fill*         0x0001bc99        0x3 00
 .rodata.str1.4
                0x0001bc9c       0x13 ../system/reset_cpu.o
                                 0x14 (size before relaxing)
 *fill*         0x0001bcaf        0x1 00
 .rodata.str1.4
                0x0001bcb0        0x5 ../FreeRTOS_Source/tasks.o
                                  0x8 (size before relaxing)
 *fill*         0x0001bcb5        0x3 00
 .rodata.str1.4
                0x0001bcb8      0x161 ../tinysh/tinysh.o
                                0x170 (size before relaxing)
 *fill*         0x0001be19        0x3 00
 .rodata.str1.4
                0x0001be1c     0x21e4 ../tinysh/shell.o
                               0x224c (size before relaxing)
 .rodata.str1.4
                0x0001e000      0x19b ../tinysh/enviro.o
                                0x1f8 (size before relaxing)
 *fill*         0x0001e19b        0x1 00
 .rodata.str1.4
                0x0001e19c       0xeb tampilan.o
                                0x114 (size before relaxing)
 *fill*         0x0001e287        0x1 00
 .rodata.str1.4
                0x0001e288       0x1f ../fatfs/ff.o
                                 0x20 (size before relaxing)
 *fill*         0x0001e2a7        0x1 00
 .rodata.str1.4
                0x0001e2a8       0x54 ../fatfs/spi_mmc.o
                                 0x58 (size before relaxing)
 .rodata.str1.4
                0x0001e2fc      0x103 ../spi/gmmc.o
                                0x108 (size before relaxing)
 *fill*         0x0001e3ff        0x1 00
 .rodata.str1.4
                0x0001e400       0xc8 ../fatfs/simpan_file.o
                                 0xd8 (size before relaxing)
 .rodata.str1.4
                0x0001e4c8      0x126 LCD/menu_monita.o
                                0x128 (size before relaxing)
 *fill*         0x0001e5ee        0x2 00
 .rodata.str1.4
                0x0001e5f0       0x16 LCD/menu_popup.o
                                 0x18 (size before relaxing)
 *fill*         0x0001e606        0x2 00
 .rodata.str1.4
                0x0001e608       0x8d ../uip/hardware/enc28j60.o
                                 0x90 (size before relaxing)
 *fill*         0x0001e695        0x3 00
 .rodata.str1.4
                0x0001e698       0xaf ../uip/uip_task.o
                                 0xb0 (size before relaxing)
 *fill*         0x0001e747        0x1 00
 .rodata.str1.4
                0x0001e748       0xa1 ../uip/apps/telnetd/telnetd.o
                                 0xd0 (size before relaxing)
 *fill*         0x0001e7e9        0x3 00
 .rodata.str1.4
                0x0001e7ec       0x24 ../webserver/httpd.o
 .rodata.str1.4
                0x0001e810      0x1f8 ../webserver/httpd-fs.o
                                0x21c (size before relaxing)
 .rodata.str1.4
                0x0001ea08       0x8a ../webserver/httpd-cgi.o
                                 0x8c (size before relaxing)
 *fill*         0x0001ea92        0x2 00
 .rodata.str1.4
                0x0001ea94       0x46 ../webserver/webclient/webclient.o
                                 0x48 (size before relaxing)
 *fill*         0x0001eada        0x2 00
 .rodata.str1.4
                0x0001eadc        0x4 /home/afrendy/projconto/atinom_lipi/atinom-lipi/TOOLCHAIN/bin/../lib/gcc/arm-elf/4.1.0/../../../../arm-elf/lib/thumb/interwork/libc.a(tzvars.o)
 .rodata.str1.4
                0x0001eae0       0x5b /home/afrendy/projconto/atinom_lipi/atinom-lipi/TOOLCHAIN/bin/../lib/gcc/arm-elf/4.1.0/../../../../arm-elf/lib/thumb/interwork/libc.a(vfprintf.o)
                                 0x64 (size before relaxing)
 *fill*         0x0001eb3b        0x1 00
 .rodata.str1.4
                0x0001eb3c        0x5 /home/afrendy/projconto/atinom_lipi/atinom-lipi/TOOLCHAIN/bin/../lib/gcc/arm-elf/4.1.0/../../../../arm-elf/lib/thumb/interwork/libc.a(vfscanf.o)
                                  0x8 (size before relaxing)
 *fill*         0x0001eb41        0x3 00
 .rodata.str1.4
                0x0001eb44       0x1e /home/afrendy/projconto/atinom_lipi/atinom-lipi/TOOLCHAIN/bin/../lib/gcc/arm-elf/4.1.0/../../../../arm-elf/lib/thumb/interwork/libc.a(wctomb_r.o)
                                 0x20 (size before relaxing)
 *fill*         0x0001eb62        0x2 00
 .rodata.str1.4
                0x0001eb64       0x20 /home/afrendy/projconto/atinom_lipi/atinom-lipi/TOOLCHAIN/bin/../lib/gcc/arm-elf/4.1.0/../../../../arm-elf/lib/thumb/interwork/libc.a(asctime_r.o)
 .rodata.str1.4
                0x0001eb84       0x10 /home/afrendy/projconto/atinom_lipi/atinom-lipi/TOOLCHAIN/bin/../lib/gcc/arm-elf/4.1.0/../../../../arm-elf/lib/thumb/interwork/libc.a(dtoa.o)
                                 0x14 (size before relaxing)
 .rodata.str1.4
                0x0001eb94        0x2 /home/afrendy/projconto/atinom_lipi/atinom-lipi/TOOLCHAIN/bin/../lib/gcc/arm-elf/4.1.0/../../../../arm-elf/lib/thumb/interwork/libc.a(impure.o)
                                  0x4 (size before relaxing)
 *fill*         0x0001eb96        0x2 00
 .rodata.str1.4
                0x0001eb98        0xb /home/afrendy/projconto/atinom_lipi/atinom-lipi/TOOLCHAIN/bin/../lib/gcc/arm-elf/4.1.0/../../../../arm-elf/lib/thumb/interwork/libc.a(locale.o)
                                 0x18 (size before relaxing)
 .rodata.str1.4
                0x0001eba3        0x0 /home/afrendy/projconto/atinom_lipi/atinom-lipi/TOOLCHAIN/bin/../lib/gcc/arm-elf/4.1.0/../../../../arm-elf/lib/thumb/interwork/libc.a(mbrtowc.o)
                                  0x4 (size before relaxing)
 *fill*         0x0001eba3        0x1 00
 .rodata.str1.4
                0x0001eba4        0x4 /home/afrendy/projconto/atinom_lipi/atinom-lipi/TOOLCHAIN/bin/../lib/gcc/arm-elf/4.1.0/../../../../arm-elf/lib/thumb/interwork/libc.a(syscalls.o)
 .rodata.str1.4
                0x0001eba8        0x4 /home/afrendy/projconto/atinom_lipi/atinom-lipi/TOOLCHAIN/bin/../lib/gcc/arm-elf/4.1.0/../../../../arm-elf/lib/thumb/interwork/libm.a(w_pow.o)
 *(.glue_7)
 .glue_7        0x0001ebac       0x48 /home/afrendy/projconto/atinom_lipi/atinom-lipi/TOOLCHAIN/bin/../lib/gcc/arm-elf/4.1.0/../../../../arm-elf/lib/thumb/interwork/libm.a(s_copysign.o)
                0x0001ebe8                __main_from_arm
                0x0001ebd0                __xQueueGenericSendFromISR_from_arm
                0x0001ebdc                __xQueueCreate_from_arm
                0x0001ebac                __vTaskIncrementTick_from_arm
                0x0001ebc4                __xQueueReceiveFromISR_from_arm
                0x0001ebb8                __vTaskSwitchContext_from_arm
 *(.glue_7t)
 .glue_7t       0x0001ebf4       0x28 /home/afrendy/projconto/atinom_lipi/atinom-lipi/TOOLCHAIN/bin/../lib/gcc/arm-elf/4.1.0/../../../../arm-elf/lib/thumb/interwork/libm.a(s_copysign.o)
                0x0001ebf8                __vPortEnterCritical_change_to_arm
                0x0001ec04                __vSerialISRCreateQueues_from_thumb
                0x0001ec08                __vSerialISRCreateQueues_change_to_arm
                0x0001ec00                __vPortExitCritical_change_to_arm
                0x0001ec14                __vPortISRStartFirstTask_from_thumb
                0x0001ec0c                __vPortDisableInterruptsFromThumb_from_thumb
                0x0001ebfc                __vPortExitCritical_from_thumb
                0x0001ebf4                __vPortEnterCritical_from_thumb
                0x0001ec18                __vPortISRStartFirstTask_change_to_arm
                0x0001ec10                __vPortDisableInterruptsFromThumb_change_to_arm
 *(.lokasi_font)
 .lokasi_font   0x0001ec1c     0x3280 LCD/lcd_320.o
                0x000206bc                arial
                0x0001edfc                big
                0x0001ec1c                font57
                0x00021e9c                __end_of_text__ = .
                0x00021e9c                __exidx_start = .

.ARM.exidx
 *(.ARM.exidx* .gnu.linkonce.armexidx.*)
                0x00021e9c                __exidx_end = .

.data           0x40000000      0xb80 load address 0x00021e9c
                0x40000000                __data_beg__ = .
                0x00021e9c                __data_beg_src__ = __end_of_text__
 *(.data)
 .data          0x40000000        0x4 ../FreeRTOS_Source/portable/GCC/ARM7_LPC23xx/portISR.o
                0x40000000                ulCriticalNesting
 .data          0x40000004       0x38 ../tinysh/tinysh.o
 .data          0x4000003c      0x2c0 ../tinysh/shell.o
 .data          0x400002fc        0x1 ../fatfs/spi_mmc.o
 *fill*         0x400002fd        0x3 00
 .data          0x40000300       0x10 ../webserver/httpd-cgi.o
 .data          0x40000310      0x410 /home/afrendy/projconto/atinom_lipi/atinom-lipi/TOOLCHAIN/bin/../lib/gcc/arm-elf/4.1.0/../../../../arm-elf/lib/thumb/interwork/libc.a(mallocr.o)
                0x4000071c                __malloc_sbrk_base
                0x40000310                __malloc_av_
                0x40000718                __malloc_trim_threshold
 .data          0x40000720        0x8 /home/afrendy/projconto/atinom_lipi/atinom-lipi/TOOLCHAIN/bin/../lib/gcc/arm-elf/4.1.0/../../../../arm-elf/lib/thumb/interwork/libc.a(tzvars.o)
                0x40000720                _tzname
 .data          0x40000728        0x4 /home/afrendy/projconto/atinom_lipi/atinom-lipi/TOOLCHAIN/bin/../lib/gcc/arm-elf/4.1.0/../../../../arm-elf/lib/thumb/interwork/libc.a(ctype_.o)
                0x40000728                __ctype_ptr
 .data          0x4000072c       0x40 /home/afrendy/projconto/atinom_lipi/atinom-lipi/TOOLCHAIN/bin/../lib/gcc/arm-elf/4.1.0/../../../../arm-elf/lib/thumb/interwork/libc.a(gettzinfo.o)
 .data          0x4000076c      0x404 /home/afrendy/projconto/atinom_lipi/atinom-lipi/TOOLCHAIN/bin/../lib/gcc/arm-elf/4.1.0/../../../../arm-elf/lib/thumb/interwork/libc.a(impure.o)
                0x4000076c                _impure_ptr
 .data          0x40000b70       0x10 /home/afrendy/projconto/atinom_lipi/atinom-lipi/TOOLCHAIN/bin/../lib/gcc/arm-elf/4.1.0/../../../../arm-elf/lib/thumb/interwork/libc.a(locale.o)
                0x40000b70                __mb_cur_max
                0x40000b74                __lc_ctype
                0x40000b80                __data_end__ = .

.bss            0x40000b80     0xb220
                0x40000b80                __bss_beg__ = .
 *(.bss)
 .bss           0x40000b80        0xc ../serial/serialISR.o
 .bss           0x40000b8c        0xc main.o
                0x40000b8c                loop_idle
                0x40000b90                waktu_buat_file
 .bss           0x40000b98        0x4 ../system/syscall.o
 .bss           0x40000b9c        0xc ../serial/serial.o
 .bss           0x40000ba8       0xc0 ../FreeRTOS_Source/tasks.o
                0x40000bac                pxCurrentTCB
                0x40000ba8                tick_ku
 .bss           0x40000c68     0x785c ../FreeRTOS_Source/portable/MemMang/heap_2.o
 .bss           0x400084c4      0x31c ../tinysh/tinysh.o
 .bss           0x400087e0       0x1c ../tinysh/shell.o
                0x400087e4                tik_lama
                0x400087e0                uptime_ovflow
 .bss           0x400087fc        0xc LCD/lcd_320.o
                0x400087fc                y_p
 .bss           0x40008808        0x8 LCD/printw.o
 .bss           0x40008810      0x208 ../fatfs/ff.o
 .bss           0x40008a18       0x10 ../fatfs/spi_mmc.o
 .bss           0x40008a28      0x454 ../fatfs/simpan_file.o
 .bss           0x40008e7c        0xc LCD/menu_monita.o
 .bss           0x40008e88        0x2 LCD/menu_popup.o
                0x40008e88                pos_cur
                0x40008e89                pos_lama
 *fill*         0x40008e8a        0x2 00
 .bss           0x40008e8c        0x8 ../uip/hardware/enc28j60.o
                0x40008e90                error_ENC
                0x40008e8c                ethRxPointer
 .bss           0x40008e94       0x18 ../uip/uip/uip.o
                0x40008e98                uip_ethaddr
                0x40008e94                uip_timeoffset
 .bss           0x40008eac       0x60 ../uip/uip/uip_arp.o
 .bss           0x40008f0c       0x28 ../uip/uip/uip-fw.o
 .bss           0x40008f34       0x10 ../uip/uip_task.o
                0x40008f34                paket_per_menit
                0x40008f38                paket_kita
 .bss           0x40008f44      0x2c0 ../uip/apps/telnetd/telnetd.o
 .bss           0x40009204       0xa0 ../webserver/httpd-fs.o
 .bss           0x400092a4      0x184 ../webserver/webclient/webclient.o
 .bss           0x40009428       0x34 /home/afrendy/projconto/atinom_lipi/atinom-lipi/TOOLCHAIN/bin/../lib/gcc/arm-elf/4.1.0/../../../../arm-elf/lib/thumb/interwork/libc.a(mallocr.o)
                0x40009428                __malloc_top_pad
                0x4000942c                __malloc_max_sbrked_mem
                0x40009434                __malloc_current_mallinfo
                0x40009430                __malloc_max_total_mem
 .bss           0x4000945c        0x8 /home/afrendy/projconto/atinom_lipi/atinom-lipi/TOOLCHAIN/bin/../lib/gcc/arm-elf/4.1.0/../../../../arm-elf/lib/thumb/interwork/libc.a(tzvars.o)
                0x4000945c                _daylight
                0x40009460                _timezone
 .bss           0x40009464        0xc /home/afrendy/projconto/atinom_lipi/atinom-lipi/TOOLCHAIN/bin/../lib/gcc/arm-elf/4.1.0/../../../../arm-elf/lib/thumb/interwork/libc.a(locale.o)
                0x40009464                __nlocale_changed
                0x40009468                __mlocale_changed
                0x4000946c                _PathLocale
 .bss           0x40009470       0xb0 /home/afrendy/projconto/atinom_lipi/atinom-lipi/TOOLCHAIN/bin/../lib/gcc/arm-elf/4.1.0/../../../../arm-elf/lib/thumb/interwork/libc.a(syscalls.o)
 COMMON         0x40009520       0x2c main.o
                0x40009520                hdl_lcd
                0x40009524                saat_gsm_ftp
                0x40009528                tot_idle
                0x4000952c                hdl_ether
                0x40009530                timer_saat_gsm
                0x40009534                mutex_lcd_sem
                0x40009538                hdl_tampilan
                0x4000953c                hdl_shell
                0x40009540                lcd_sem
                0x40009544                idle_lama
                0x40009548                hdl_led
 COMMON         0x4000954c      0x200 ../serial/serial.o
                0x4000954c                printbuffer
 COMMON         0x4000974c      0xaa0 ../tinysh/shell.o
                0x4000974c                Fatfs
                0x4000997c                fileInfo
                0x4000999c                dirs
                0x400099c0                abs_path
                0x40009a40                data_f
                0x4000a080                sumber
                0x4000a084                buf_lfn
                0x4000a183                buffer
                0x4000a1e8                res
 COMMON         0x4000a1ec      0x5f4 ../tinysh/enviro.o
                0x4000a1ec                command
                0x4000a200                iap_entry
                0x4000a204                result
                0x4000a20c                env2
 COMMON         0x4000a7e0      0x934 tampilan.o
                0x4000a7e0                tek
                0x4000a820                s_data
                0x4000ae60                daytime
                0x4000ae80                titik
                0x4000af80                data_hitung
                0x4000b098                keypad_sem
                0x4000b09c                mesin
 COMMON         0x4000b114       0x30 ../spi/gmmc.o
                0x4000b114                csd
                0x4000b12c                cid
 COMMON         0x4000b144      0x14c ../monita/monita_uip.o
                0x4000b144                loop_kirim
                0x4000b148                xdata
                0x4000b240                data_float
 COMMON         0x4000b290       0x18 LCD/menu_monita.o
                0x4000b290                x
                0x4000b292                y
                0x4000b294                isi_sumber
 COMMON         0x4000b2a8       0x3e ../uip/uip/uip.o
                0x4000b2a8                uip_len
                0x4000b2ac                uip_sappdata
                0x4000b2b0                uip_acc32
                0x4000b2b4                uip_flags
                0x4000b2b8                uip_appdata
                0x4000b2bc                uip_conn
                0x4000b2c0                uip_sntpaddr
                0x4000b2c4                uip_listenports
                0x4000b2d8                uip_draddr
                0x4000b2dc                uip_netmask
                0x4000b2e0                uip_hostaddr
                0x4000b2e4                uip_slen
 *fill*         0x4000b2e6        0x2 00
 COMMON         0x4000b2e8      0xab8 ../webserver/httpd-fs.o
                0x4000b2e8                fs
                0x4000b2ec                fweb
                0x4000bda0                . = ALIGN (0x4)
                0x4000bda0                _bss_end__ = .
                0x4000bda0                __bss_end__ = .
                0x4000bda0                __end__ = .

.usbram         0x7fd00000        0x0
                0x7fd00000                __usbram_beg__ = .
 *(.index_text)
                0x7fd00000                __usbram_end__ = .

.ethram         0x7fe00000     0x3914
                0x7fe00000                __ethram_beg__ = .
 *(.ethram)
 *(.eth_test_text)
 *(.eth_test)
 .eth_test      0x7fe00000     0x2688 LCD/lcd_320.o
                0x7fe00000                layar
 .eth_test      0x7fe02688     0x128c ../uip/uip/uip.o
                0x7fe02c6c                uip_conns
                0x7fe02688                uip_buf
                0x7fe03914                __ethram_end__ = .
                0x7fe03914                . = ALIGN (0x4)
                0x7fe03914                end = .
OUTPUT(tampilan_lipi.elf elf32-littlearm)

.comment        0x00000000      0xaf8
 .comment       0x00000000       0x12 ../FreeRTOS_Source/portable/GCC/ARM7_LPC23xx/portISR.o
 .comment       0x00000012       0x12 ../serial/serialISR.o
 .comment       0x00000024       0x12 main.o
 .comment       0x00000036       0x12 ../system/setup_cpu.o
 .comment       0x00000048       0x12 ../system/syscall.o
 .comment       0x0000005a       0x12 ../system/reset_cpu.o
 .comment       0x0000006c       0x12 ../serial/serial.o
 .comment       0x0000007e       0x12 ../FreeRTOS_Source/queue.o
 .comment       0x00000090       0x12 ../FreeRTOS_Source/tasks.o
 .comment       0x000000a2       0x12 ../FreeRTOS_Source/portable/GCC/ARM7_LPC23xx/port.o
 .comment       0x000000b4       0x12 ../FreeRTOS_Source/list.o
 .comment       0x000000c6       0x12 ../FreeRTOS_Source/portable/MemMang/heap_2.o
 .comment       0x000000d8       0x12 ../tinysh/tinysh.o
 .comment       0x000000ea       0x12 ../tinysh/shell.o
 .comment       0x000000fc       0x12 ../tinysh/enviro.o
 .comment       0x0000010e       0x12 LCD/lcd_320.o
 .comment       0x00000120       0x12 LCD/printw.o
 .comment       0x00000132       0x12 tampilan.o
 .comment       0x00000144       0x12 ../spi/spi.o
 .comment       0x00000156       0x12 ../system/idle_hook.o
 .comment       0x00000168       0x12 ../system/rtc.o
 .comment       0x0000017a       0x12 ../GPIO/selenoid.o
 .comment       0x0000018c       0x12 ../fatfs/ff.o
 .comment       0x0000019e       0x12 ../fatfs/spi_mmc.o
 .comment       0x000001b0       0x12 ../fatfs/option/ccsbcs.o
 .comment       0x000001c2       0x12 ../spi/low_ss1.o
 .comment       0x000001d4       0x12 ../spi/gmmc.o
 .comment       0x000001e6       0x12 ../fatfs/simpan_file.o
 .comment       0x000001f8       0x12 ../monita/monita_uip.o
 .comment       0x0000020a       0x12 LCD/menu_monita.o
 .comment       0x0000021c       0x12 LCD/menu_popup.o
 .comment       0x0000022e       0x12 ../uip/hardware/enc28j60.o
 .comment       0x00000240       0x12 ../uip/clock.o
 .comment       0x00000252       0x12 ../uip/lib/memb.o
 .comment       0x00000264       0x12 ../uip/uip/uip.o
 .comment       0x00000276       0x12 ../uip/uip/uip_arch.o
 .comment       0x00000288       0x12 ../uip/uip/uip_arp.o
 .comment       0x0000029a       0x12 ../uip/uip/uip_timer.o
 .comment       0x000002ac       0x12 ../uip/uip/uip-fw.o
 .comment       0x000002be       0x12 ../uip/uip/psock.o
 .comment       0x000002d0       0x12 ../uip/uip/uiplib.o
 .comment       0x000002e2       0x12 ../uip/uip_task.o
 .comment       0x000002f4       0x12 ../uip/apps/telnetd/telnetd.o
 .comment       0x00000306       0x12 ../webserver/httpd.o
 .comment       0x00000318       0x12 ../webserver/httpd-fs.o
 .comment       0x0000032a       0x12 ../webserver/http-strings.o
 .comment       0x0000033c       0x12 ../webserver/httpd-cgi.o
 .comment       0x0000034e       0x12 ../gsm/system_ftp/kirim_file_ftp.o
 .comment       0x00000360       0x12 ../webserver/webclient/webclient.o
 .comment       0x00000372       0x12 ../webserver/webclient/webclient-strings.o
 .comment       0x00000384       0x12 /home/afrendy/projconto/atinom_lipi/atinom-lipi/TOOLCHAIN/bin/../lib/gcc/arm-elf/4.1.0/../../../../arm-elf/lib/thumb/interwork/libc.a(ctime.o)
 .comment       0x00000396       0x12 /home/afrendy/projconto/atinom_lipi/atinom-lipi/TOOLCHAIN/bin/../lib/gcc/arm-elf/4.1.0/../../../../arm-elf/lib/thumb/interwork/libc.a(div.o)
 .comment       0x000003a8       0x12 /home/afrendy/projconto/atinom_lipi/atinom-lipi/TOOLCHAIN/bin/../lib/gcc/arm-elf/4.1.0/../../../../arm-elf/lib/thumb/interwork/libc.a(lcltime.o)
 .comment       0x000003ba       0x12 /home/afrendy/projconto/atinom_lipi/atinom-lipi/TOOLCHAIN/bin/../lib/gcc/arm-elf/4.1.0/../../../../arm-elf/lib/thumb/interwork/libc.a(lcltime_r.o)
 .comment       0x000003cc       0x12 /home/afrendy/projconto/atinom_lipi/atinom-lipi/TOOLCHAIN/bin/../lib/gcc/arm-elf/4.1.0/../../../../arm-elf/lib/thumb/interwork/libc.a(malloc.o)
 .comment       0x000003de       0x12 /home/afrendy/projconto/atinom_lipi/atinom-lipi/TOOLCHAIN/bin/../lib/gcc/arm-elf/4.1.0/../../../../arm-elf/lib/thumb/interwork/libc.a(mallocr.o)
 .comment       0x000003f0       0x12 /home/afrendy/projconto/atinom_lipi/atinom-lipi/TOOLCHAIN/bin/../lib/gcc/arm-elf/4.1.0/../../../../arm-elf/lib/thumb/interwork/libc.a(memcpy.o)
 .comment       0x00000402       0x12 /home/afrendy/projconto/atinom_lipi/atinom-lipi/TOOLCHAIN/bin/../lib/gcc/arm-elf/4.1.0/../../../../arm-elf/lib/thumb/interwork/libc.a(memset.o)
 .comment       0x00000414       0x12 /home/afrendy/projconto/atinom_lipi/atinom-lipi/TOOLCHAIN/bin/../lib/gcc/arm-elf/4.1.0/../../../../arm-elf/lib/thumb/interwork/libc.a(mktime.o)
 .comment       0x00000426       0x12 /home/afrendy/projconto/atinom_lipi/atinom-lipi/TOOLCHAIN/bin/../lib/gcc/arm-elf/4.1.0/../../../../arm-elf/lib/thumb/interwork/libc.a(mktm_r.o)
 .comment       0x00000438       0x12 /home/afrendy/projconto/atinom_lipi/atinom-lipi/TOOLCHAIN/bin/../lib/gcc/arm-elf/4.1.0/../../../../arm-elf/lib/thumb/interwork/libc.a(mlock.o)
 .comment       0x0000044a       0x12 /home/afrendy/projconto/atinom_lipi/atinom-lipi/TOOLCHAIN/bin/../lib/gcc/arm-elf/4.1.0/../../../../arm-elf/lib/thumb/interwork/libc.a(rand.o)
 .comment       0x0000045c       0x12 /home/afrendy/projconto/atinom_lipi/atinom-lipi/TOOLCHAIN/bin/../lib/gcc/arm-elf/4.1.0/../../../../arm-elf/lib/thumb/interwork/libc.a(snprintf.o)
 .comment       0x0000046e       0x12 /home/afrendy/projconto/atinom_lipi/atinom-lipi/TOOLCHAIN/bin/../lib/gcc/arm-elf/4.1.0/../../../../arm-elf/lib/thumb/interwork/libc.a(sprintf.o)
 .comment       0x00000480       0x12 /home/afrendy/projconto/atinom_lipi/atinom-lipi/TOOLCHAIN/bin/../lib/gcc/arm-elf/4.1.0/../../../../arm-elf/lib/thumb/interwork/libc.a(sscanf.o)
 .comment       0x00000492       0x12 /home/afrendy/projconto/atinom_lipi/atinom-lipi/TOOLCHAIN/bin/../lib/gcc/arm-elf/4.1.0/../../../../arm-elf/lib/thumb/interwork/libc.a(strcat.o)
 .comment       0x000004a4       0x12 /home/afrendy/projconto/atinom_lipi/atinom-lipi/TOOLCHAIN/bin/../lib/gcc/arm-elf/4.1.0/../../../../arm-elf/lib/thumb/interwork/libc.a(strchr.o)
 .comment       0x000004b6       0x12 /home/afrendy/projconto/atinom_lipi/atinom-lipi/TOOLCHAIN/bin/../lib/gcc/arm-elf/4.1.0/../../../../arm-elf/lib/thumb/interwork/libc.a(strcmp.o)
 .comment       0x000004c8       0x12 /home/afrendy/projconto/atinom_lipi/atinom-lipi/TOOLCHAIN/bin/../lib/gcc/arm-elf/4.1.0/../../../../arm-elf/lib/thumb/interwork/libc.a(strcpy.o)
 .comment       0x000004da       0x12 /home/afrendy/projconto/atinom_lipi/atinom-lipi/TOOLCHAIN/bin/../lib/gcc/arm-elf/4.1.0/../../../../arm-elf/lib/thumb/interwork/libc.a(strlen.o)
 .comment       0x000004ec       0x12 /home/afrendy/projconto/atinom_lipi/atinom-lipi/TOOLCHAIN/bin/../lib/gcc/arm-elf/4.1.0/../../../../arm-elf/lib/thumb/interwork/libc.a(strncmp.o)
 .comment       0x000004fe       0x12 /home/afrendy/projconto/atinom_lipi/atinom-lipi/TOOLCHAIN/bin/../lib/gcc/arm-elf/4.1.0/../../../../arm-elf/lib/thumb/interwork/libc.a(strncpy.o)
 .comment       0x00000510       0x12 /home/afrendy/projconto/atinom_lipi/atinom-lipi/TOOLCHAIN/bin/../lib/gcc/arm-elf/4.1.0/../../../../arm-elf/lib/thumb/interwork/libc.a(strrchr.o)
 .comment       0x00000522       0x12 /home/afrendy/projconto/atinom_lipi/atinom-lipi/TOOLCHAIN/bin/../lib/gcc/arm-elf/4.1.0/../../../../arm-elf/lib/thumb/interwork/libc.a(tzlock.o)
 .comment       0x00000534       0x12 /home/afrendy/projconto/atinom_lipi/atinom-lipi/TOOLCHAIN/bin/../lib/gcc/arm-elf/4.1.0/../../../../arm-elf/lib/thumb/interwork/libc.a(tzvars.o)
 .comment       0x00000546       0x12 /home/afrendy/projconto/atinom_lipi/atinom-lipi/TOOLCHAIN/bin/../lib/gcc/arm-elf/4.1.0/../../../../arm-elf/lib/thumb/interwork/libc.a(vfprintf.o)
 .comment       0x00000558       0x12 /home/afrendy/projconto/atinom_lipi/atinom-lipi/TOOLCHAIN/bin/../lib/gcc/arm-elf/4.1.0/../../../../arm-elf/lib/thumb/interwork/libc.a(vfscanf.o)
 .comment       0x0000056a       0x12 /home/afrendy/projconto/atinom_lipi/atinom-lipi/TOOLCHAIN/bin/../lib/gcc/arm-elf/4.1.0/../../../../arm-elf/lib/thumb/interwork/libc.a(vsprintf.o)
 .comment       0x0000057c       0x12 /home/afrendy/projconto/atinom_lipi/atinom-lipi/TOOLCHAIN/bin/../lib/gcc/arm-elf/4.1.0/../../../../arm-elf/lib/thumb/interwork/libc.a(wcrtomb.o)
 .comment       0x0000058e       0x12 /home/afrendy/projconto/atinom_lipi/atinom-lipi/TOOLCHAIN/bin/../lib/gcc/arm-elf/4.1.0/../../../../arm-elf/lib/thumb/interwork/libc.a(wcsrtombs.o)
 .comment       0x000005a0       0x12 /home/afrendy/projconto/atinom_lipi/atinom-lipi/TOOLCHAIN/bin/../lib/gcc/arm-elf/4.1.0/../../../../arm-elf/lib/thumb/interwork/libc.a(wctomb_r.o)
 .comment       0x000005b2       0x12 /home/afrendy/projconto/atinom_lipi/atinom-lipi/TOOLCHAIN/bin/../lib/gcc/arm-elf/4.1.0/../../../../arm-elf/lib/thumb/interwork/libc.a(wsetup.o)
 .comment       0x000005c4       0x12 /home/afrendy/projconto/atinom_lipi/atinom-lipi/TOOLCHAIN/bin/../lib/gcc/arm-elf/4.1.0/../../../../arm-elf/lib/thumb/interwork/libc.a(asctime.o)
 .comment       0x000005d6       0x12 /home/afrendy/projconto/atinom_lipi/atinom-lipi/TOOLCHAIN/bin/../lib/gcc/arm-elf/4.1.0/../../../../arm-elf/lib/thumb/interwork/libc.a(asctime_r.o)
 .comment       0x000005e8       0x12 /home/afrendy/projconto/atinom_lipi/atinom-lipi/TOOLCHAIN/bin/../lib/gcc/arm-elf/4.1.0/../../../../arm-elf/lib/thumb/interwork/libc.a(ctype_.o)
 .comment       0x000005fa       0x12 /home/afrendy/projconto/atinom_lipi/atinom-lipi/TOOLCHAIN/bin/../lib/gcc/arm-elf/4.1.0/../../../../arm-elf/lib/thumb/interwork/libc.a(dtoa.o)
 .comment       0x0000060c       0x12 /home/afrendy/projconto/atinom_lipi/atinom-lipi/TOOLCHAIN/bin/../lib/gcc/arm-elf/4.1.0/../../../../arm-elf/lib/thumb/interwork/libc.a(fflush.o)
 .comment       0x0000061e       0x12 /home/afrendy/projconto/atinom_lipi/atinom-lipi/TOOLCHAIN/bin/../lib/gcc/arm-elf/4.1.0/../../../../arm-elf/lib/thumb/interwork/libc.a(findfp.o)
 .comment       0x00000630       0x12 /home/afrendy/projconto/atinom_lipi/atinom-lipi/TOOLCHAIN/bin/../lib/gcc/arm-elf/4.1.0/../../../../arm-elf/lib/thumb/interwork/libc.a(fread.o)
 .comment       0x00000642       0x12 /home/afrendy/projconto/atinom_lipi/atinom-lipi/TOOLCHAIN/bin/../lib/gcc/arm-elf/4.1.0/../../../../arm-elf/lib/thumb/interwork/libc.a(freer.o)
 .comment       0x00000654       0x12 /home/afrendy/projconto/atinom_lipi/atinom-lipi/TOOLCHAIN/bin/../lib/gcc/arm-elf/4.1.0/../../../../arm-elf/lib/thumb/interwork/libc.a(fvwrite.o)
 .comment       0x00000666       0x12 /home/afrendy/projconto/atinom_lipi/atinom-lipi/TOOLCHAIN/bin/../lib/gcc/arm-elf/4.1.0/../../../../arm-elf/lib/thumb/interwork/libc.a(fwalk.o)
 .comment       0x00000678       0x12 /home/afrendy/projconto/atinom_lipi/atinom-lipi/TOOLCHAIN/bin/../lib/gcc/arm-elf/4.1.0/../../../../arm-elf/lib/thumb/interwork/libc.a(gettzinfo.o)
 .comment       0x0000068a       0x12 /home/afrendy/projconto/atinom_lipi/atinom-lipi/TOOLCHAIN/bin/../lib/gcc/arm-elf/4.1.0/../../../../arm-elf/lib/thumb/interwork/libc.a(impure.o)
 .comment       0x0000069c       0x12 /home/afrendy/projconto/atinom_lipi/atinom-lipi/TOOLCHAIN/bin/../lib/gcc/arm-elf/4.1.0/../../../../arm-elf/lib/thumb/interwork/libc.a(iswspace.o)
 .comment       0x000006ae       0x12 /home/afrendy/projconto/atinom_lipi/atinom-lipi/TOOLCHAIN/bin/../lib/gcc/arm-elf/4.1.0/../../../../arm-elf/lib/thumb/interwork/libc.a(locale.o)
 .comment       0x000006c0       0x12 /home/afrendy/projconto/atinom_lipi/atinom-lipi/TOOLCHAIN/bin/../lib/gcc/arm-elf/4.1.0/../../../../arm-elf/lib/thumb/interwork/libc.a(makebuf.o)
 .comment       0x000006d2       0x12 /home/afrendy/projconto/atinom_lipi/atinom-lipi/TOOLCHAIN/bin/../lib/gcc/arm-elf/4.1.0/../../../../arm-elf/lib/thumb/interwork/libc.a(mbrtowc.o)
 .comment       0x000006e4       0x12 /home/afrendy/projconto/atinom_lipi/atinom-lipi/TOOLCHAIN/bin/../lib/gcc/arm-elf/4.1.0/../../../../arm-elf/lib/thumb/interwork/libc.a(mbtowc_r.o)
 .comment       0x000006f6       0x12 /home/afrendy/projconto/atinom_lipi/atinom-lipi/TOOLCHAIN/bin/../lib/gcc/arm-elf/4.1.0/../../../../arm-elf/lib/thumb/interwork/libc.a(memchr.o)
 .comment       0x00000708       0x12 /home/afrendy/projconto/atinom_lipi/atinom-lipi/TOOLCHAIN/bin/../lib/gcc/arm-elf/4.1.0/../../../../arm-elf/lib/thumb/interwork/libc.a(memmove.o)
 .comment       0x0000071a       0x12 /home/afrendy/projconto/atinom_lipi/atinom-lipi/TOOLCHAIN/bin/../lib/gcc/arm-elf/4.1.0/../../../../arm-elf/lib/thumb/interwork/libc.a(mprec.o)
 .comment       0x0000072c       0x12 /home/afrendy/projconto/atinom_lipi/atinom-lipi/TOOLCHAIN/bin/../lib/gcc/arm-elf/4.1.0/../../../../arm-elf/lib/thumb/interwork/libc.a(reallocr.o)
 .comment       0x0000073e       0x12 /home/afrendy/projconto/atinom_lipi/atinom-lipi/TOOLCHAIN/bin/../lib/gcc/arm-elf/4.1.0/../../../../arm-elf/lib/thumb/interwork/libc.a(refill.o)
 .comment       0x00000750       0x12 /home/afrendy/projconto/atinom_lipi/atinom-lipi/TOOLCHAIN/bin/../lib/gcc/arm-elf/4.1.0/../../../../arm-elf/lib/thumb/interwork/libc.a(s_isinf.o)
 .comment       0x00000762       0x12 /home/afrendy/projconto/atinom_lipi/atinom-lipi/TOOLCHAIN/bin/../lib/gcc/arm-elf/4.1.0/../../../../arm-elf/lib/thumb/interwork/libc.a(s_isnan.o)
 .comment       0x00000774       0x12 /home/afrendy/projconto/atinom_lipi/atinom-lipi/TOOLCHAIN/bin/../lib/gcc/arm-elf/4.1.0/../../../../arm-elf/lib/thumb/interwork/libc.a(sccl.o)
 .comment       0x00000786       0x12 /home/afrendy/projconto/atinom_lipi/atinom-lipi/TOOLCHAIN/bin/../lib/gcc/arm-elf/4.1.0/../../../../arm-elf/lib/thumb/interwork/libc.a(sf_nan.o)
 .comment       0x00000798       0x12 /home/afrendy/projconto/atinom_lipi/atinom-lipi/TOOLCHAIN/bin/../lib/gcc/arm-elf/4.1.0/../../../../arm-elf/lib/thumb/interwork/libc.a(stdio.o)
 .comment       0x000007aa       0x12 /home/afrendy/projconto/atinom_lipi/atinom-lipi/TOOLCHAIN/bin/../lib/gcc/arm-elf/4.1.0/../../../../arm-elf/lib/thumb/interwork/libc.a(strtod.o)
 .comment       0x000007bc       0x12 /home/afrendy/projconto/atinom_lipi/atinom-lipi/TOOLCHAIN/bin/../lib/gcc/arm-elf/4.1.0/../../../../arm-elf/lib/thumb/interwork/libc.a(strtol.o)
 .comment       0x000007ce       0x12 /home/afrendy/projconto/atinom_lipi/atinom-lipi/TOOLCHAIN/bin/../lib/gcc/arm-elf/4.1.0/../../../../arm-elf/lib/thumb/interwork/libc.a(strtoul.o)
 .comment       0x000007e0       0x12 /home/afrendy/projconto/atinom_lipi/atinom-lipi/TOOLCHAIN/bin/../lib/gcc/arm-elf/4.1.0/../../../../arm-elf/lib/thumb/interwork/libc.a(syscalls.o)
 .comment       0x000007f2       0x12 /home/afrendy/projconto/atinom_lipi/atinom-lipi/TOOLCHAIN/bin/../lib/gcc/arm-elf/4.1.0/../../../../arm-elf/lib/thumb/interwork/libc.a(ungetc.o)
 .comment       0x00000804       0x12 /home/afrendy/projconto/atinom_lipi/atinom-lipi/TOOLCHAIN/bin/../lib/gcc/arm-elf/4.1.0/../../../../arm-elf/lib/thumb/interwork/libc.a(callocr.o)
 .comment       0x00000816       0x12 /home/afrendy/projconto/atinom_lipi/atinom-lipi/TOOLCHAIN/bin/../lib/gcc/arm-elf/4.1.0/../../../../arm-elf/lib/thumb/interwork/libc.a(errno.o)
 .comment       0x00000828       0x12 /home/afrendy/projconto/atinom_lipi/atinom-lipi/TOOLCHAIN/bin/../lib/gcc/arm-elf/4.1.0/../../../../arm-elf/lib/thumb/interwork/libc.a(fclose.o)
 .comment       0x0000083a       0x12 /home/afrendy/projconto/atinom_lipi/atinom-lipi/TOOLCHAIN/bin/../lib/gcc/arm-elf/4.1.0/../../../../arm-elf/lib/thumb/interwork/libc.a(s_nan.o)
 .comment       0x0000084c       0x12 /home/afrendy/projconto/atinom_lipi/atinom-lipi/TOOLCHAIN/bin/../lib/gcc/arm-elf/4.1.0/thumb/interwork/libgcc.a(_muldi3.o)
 .comment       0x0000085e       0x12 /home/afrendy/projconto/atinom_lipi/atinom-lipi/TOOLCHAIN/bin/../lib/gcc/arm-elf/4.1.0/thumb/interwork/libgcc.a(_fixunsdfsi.o)
 .comment       0x00000870       0x12 /home/afrendy/projconto/atinom_lipi/atinom-lipi/TOOLCHAIN/bin/../lib/gcc/arm-elf/4.1.0/thumb/interwork/libgcc.a(_addsub_sf.o)
 .comment       0x00000882       0x12 /home/afrendy/projconto/atinom_lipi/atinom-lipi/TOOLCHAIN/bin/../lib/gcc/arm-elf/4.1.0/thumb/interwork/libgcc.a(_div_sf.o)
 .comment       0x00000894       0x12 /home/afrendy/projconto/atinom_lipi/atinom-lipi/TOOLCHAIN/bin/../lib/gcc/arm-elf/4.1.0/thumb/interwork/libgcc.a(_gt_sf.o)
 .comment       0x000008a6       0x12 /home/afrendy/projconto/atinom_lipi/atinom-lipi/TOOLCHAIN/bin/../lib/gcc/arm-elf/4.1.0/thumb/interwork/libgcc.a(_sf_to_df.o)
 .comment       0x000008b8       0x12 /home/afrendy/projconto/atinom_lipi/atinom-lipi/TOOLCHAIN/bin/../lib/gcc/arm-elf/4.1.0/thumb/interwork/libgcc.a(_thenan_sf.o)
 .comment       0x000008ca       0x12 /home/afrendy/projconto/atinom_lipi/atinom-lipi/TOOLCHAIN/bin/../lib/gcc/arm-elf/4.1.0/thumb/interwork/libgcc.a(_addsub_df.o)
 .comment       0x000008dc       0x12 /home/afrendy/projconto/atinom_lipi/atinom-lipi/TOOLCHAIN/bin/../lib/gcc/arm-elf/4.1.0/thumb/interwork/libgcc.a(_mul_df.o)
 .comment       0x000008ee       0x12 /home/afrendy/projconto/atinom_lipi/atinom-lipi/TOOLCHAIN/bin/../lib/gcc/arm-elf/4.1.0/thumb/interwork/libgcc.a(_div_df.o)
 .comment       0x00000900       0x12 /home/afrendy/projconto/atinom_lipi/atinom-lipi/TOOLCHAIN/bin/../lib/gcc/arm-elf/4.1.0/thumb/interwork/libgcc.a(_eq_df.o)
 .comment       0x00000912       0x12 /home/afrendy/projconto/atinom_lipi/atinom-lipi/TOOLCHAIN/bin/../lib/gcc/arm-elf/4.1.0/thumb/interwork/libgcc.a(_ne_df.o)
 .comment       0x00000924       0x12 /home/afrendy/projconto/atinom_lipi/atinom-lipi/TOOLCHAIN/bin/../lib/gcc/arm-elf/4.1.0/thumb/interwork/libgcc.a(_gt_df.o)
 .comment       0x00000936       0x12 /home/afrendy/projconto/atinom_lipi/atinom-lipi/TOOLCHAIN/bin/../lib/gcc/arm-elf/4.1.0/thumb/interwork/libgcc.a(_ge_df.o)
 .comment       0x00000948       0x12 /home/afrendy/projconto/atinom_lipi/atinom-lipi/TOOLCHAIN/bin/../lib/gcc/arm-elf/4.1.0/thumb/interwork/libgcc.a(_lt_df.o)
 .comment       0x0000095a       0x12 /home/afrendy/projconto/atinom_lipi/atinom-lipi/TOOLCHAIN/bin/../lib/gcc/arm-elf/4.1.0/thumb/interwork/libgcc.a(_le_df.o)
 .comment       0x0000096c       0x12 /home/afrendy/projconto/atinom_lipi/atinom-lipi/TOOLCHAIN/bin/../lib/gcc/arm-elf/4.1.0/thumb/interwork/libgcc.a(_si_to_df.o)
 .comment       0x0000097e       0x12 /home/afrendy/projconto/atinom_lipi/atinom-lipi/TOOLCHAIN/bin/../lib/gcc/arm-elf/4.1.0/thumb/interwork/libgcc.a(_df_to_si.o)
 .comment       0x00000990       0x12 /home/afrendy/projconto/atinom_lipi/atinom-lipi/TOOLCHAIN/bin/../lib/gcc/arm-elf/4.1.0/thumb/interwork/libgcc.a(_make_df.o)
 .comment       0x000009a2       0x12 /home/afrendy/projconto/atinom_lipi/atinom-lipi/TOOLCHAIN/bin/../lib/gcc/arm-elf/4.1.0/thumb/interwork/libgcc.a(_df_to_sf.o)
 .comment       0x000009b4       0x12 /home/afrendy/projconto/atinom_lipi/atinom-lipi/TOOLCHAIN/bin/../lib/gcc/arm-elf/4.1.0/thumb/interwork/libgcc.a(_thenan_df.o)
 .comment       0x000009c6       0x12 /home/afrendy/projconto/atinom_lipi/atinom-lipi/TOOLCHAIN/bin/../lib/gcc/arm-elf/4.1.0/thumb/interwork/libgcc.a(_pack_sf.o)
 .comment       0x000009d8       0x12 /home/afrendy/projconto/atinom_lipi/atinom-lipi/TOOLCHAIN/bin/../lib/gcc/arm-elf/4.1.0/thumb/interwork/libgcc.a(_unpack_sf.o)
 .comment       0x000009ea       0x12 /home/afrendy/projconto/atinom_lipi/atinom-lipi/TOOLCHAIN/bin/../lib/gcc/arm-elf/4.1.0/thumb/interwork/libgcc.a(_fpcmp_parts_sf.o)
 .comment       0x000009fc       0x12 /home/afrendy/projconto/atinom_lipi/atinom-lipi/TOOLCHAIN/bin/../lib/gcc/arm-elf/4.1.0/thumb/interwork/libgcc.a(_make_sf.o)
 .comment       0x00000a0e       0x12 /home/afrendy/projconto/atinom_lipi/atinom-lipi/TOOLCHAIN/bin/../lib/gcc/arm-elf/4.1.0/thumb/interwork/libgcc.a(_pack_df.o)
 .comment       0x00000a20       0x12 /home/afrendy/projconto/atinom_lipi/atinom-lipi/TOOLCHAIN/bin/../lib/gcc/arm-elf/4.1.0/thumb/interwork/libgcc.a(_unpack_df.o)
 .comment       0x00000a32       0x12 /home/afrendy/projconto/atinom_lipi/atinom-lipi/TOOLCHAIN/bin/../lib/gcc/arm-elf/4.1.0/thumb/interwork/libgcc.a(_fpcmp_parts_df.o)
 .comment       0x00000a44       0x12 /home/afrendy/projconto/atinom_lipi/atinom-lipi/TOOLCHAIN/bin/../lib/gcc/arm-elf/4.1.0/../../../../arm-elf/lib/thumb/interwork/libm.a(w_pow.o)
 .comment       0x00000a56       0x12 /home/afrendy/projconto/atinom_lipi/atinom-lipi/TOOLCHAIN/bin/../lib/gcc/arm-elf/4.1.0/../../../../arm-elf/lib/thumb/interwork/libm.a(e_pow.o)
 .comment       0x00000a68       0x12 /home/afrendy/projconto/atinom_lipi/atinom-lipi/TOOLCHAIN/bin/../lib/gcc/arm-elf/4.1.0/../../../../arm-elf/lib/thumb/interwork/libm.a(e_sqrt.o)
 .comment       0x00000a7a       0x12 /home/afrendy/projconto/atinom_lipi/atinom-lipi/TOOLCHAIN/bin/../lib/gcc/arm-elf/4.1.0/../../../../arm-elf/lib/thumb/interwork/libm.a(s_fabs.o)
 .comment       0x00000a8c       0x12 /home/afrendy/projconto/atinom_lipi/atinom-lipi/TOOLCHAIN/bin/../lib/gcc/arm-elf/4.1.0/../../../../arm-elf/lib/thumb/interwork/libm.a(s_finite.o)
 .comment       0x00000a9e       0x12 /home/afrendy/projconto/atinom_lipi/atinom-lipi/TOOLCHAIN/bin/../lib/gcc/arm-elf/4.1.0/../../../../arm-elf/lib/thumb/interwork/libm.a(s_lib_ver.o)
 .comment       0x00000ab0       0x12 /home/afrendy/projconto/atinom_lipi/atinom-lipi/TOOLCHAIN/bin/../lib/gcc/arm-elf/4.1.0/../../../../arm-elf/lib/thumb/interwork/libm.a(s_matherr.o)
 .comment       0x00000ac2       0x12 /home/afrendy/projconto/atinom_lipi/atinom-lipi/TOOLCHAIN/bin/../lib/gcc/arm-elf/4.1.0/../../../../arm-elf/lib/thumb/interwork/libm.a(s_rint.o)
 .comment       0x00000ad4       0x12 /home/afrendy/projconto/atinom_lipi/atinom-lipi/TOOLCHAIN/bin/../lib/gcc/arm-elf/4.1.0/../../../../arm-elf/lib/thumb/interwork/libm.a(s_scalbn.o)
 .comment       0x00000ae6       0x12 /home/afrendy/projconto/atinom_lipi/atinom-lipi/TOOLCHAIN/bin/../lib/gcc/arm-elf/4.1.0/../../../../arm-elf/lib/thumb/interwork/libm.a(s_copysign.o)

.debug_abbrev   0x00000000     0x8534
 .debug_abbrev  0x00000000       0x6f /home/afrendy/projconto/atinom_lipi/atinom-lipi/TOOLCHAIN/bin/../lib/gcc/arm-elf/4.1.0/../../../../arm-elf/lib/thumb/interwork/libc.a(ctime.o)
 .debug_abbrev  0x0000006f       0xa4 /home/afrendy/projconto/atinom_lipi/atinom-lipi/TOOLCHAIN/bin/../lib/gcc/arm-elf/4.1.0/../../../../arm-elf/lib/thumb/interwork/libc.a(div.o)
 .debug_abbrev  0x00000113      0x17f /home/afrendy/projconto/atinom_lipi/atinom-lipi/TOOLCHAIN/bin/../lib/gcc/arm-elf/4.1.0/../../../../arm-elf/lib/thumb/interwork/libc.a(lcltime.o)
 .debug_abbrev  0x00000292       0x9c /home/afrendy/projconto/atinom_lipi/atinom-lipi/TOOLCHAIN/bin/../lib/gcc/arm-elf/4.1.0/../../../../arm-elf/lib/thumb/interwork/libc.a(lcltime_r.o)
 .debug_abbrev  0x0000032e      0x187 /home/afrendy/projconto/atinom_lipi/atinom-lipi/TOOLCHAIN/bin/../lib/gcc/arm-elf/4.1.0/../../../../arm-elf/lib/thumb/interwork/libc.a(malloc.o)
 .debug_abbrev  0x000004b5      0x216 /home/afrendy/projconto/atinom_lipi/atinom-lipi/TOOLCHAIN/bin/../lib/gcc/arm-elf/4.1.0/../../../../arm-elf/lib/thumb/interwork/libc.a(mallocr.o)
 .debug_abbrev  0x000006cb       0x99 /home/afrendy/projconto/atinom_lipi/atinom-lipi/TOOLCHAIN/bin/../lib/gcc/arm-elf/4.1.0/../../../../arm-elf/lib/thumb/interwork/libc.a(memcpy.o)
 .debug_abbrev  0x00000764       0x9a /home/afrendy/projconto/atinom_lipi/atinom-lipi/TOOLCHAIN/bin/../lib/gcc/arm-elf/4.1.0/../../../../arm-elf/lib/thumb/interwork/libc.a(memset.o)
 .debug_abbrev  0x000007fe      0x147 /home/afrendy/projconto/atinom_lipi/atinom-lipi/TOOLCHAIN/bin/../lib/gcc/arm-elf/4.1.0/../../../../arm-elf/lib/thumb/interwork/libc.a(mktime.o)
 .debug_abbrev  0x00000945      0x12b /home/afrendy/projconto/atinom_lipi/atinom-lipi/TOOLCHAIN/bin/../lib/gcc/arm-elf/4.1.0/../../../../arm-elf/lib/thumb/interwork/libc.a(mktm_r.o)
 .debug_abbrev  0x00000a70      0x16a /home/afrendy/projconto/atinom_lipi/atinom-lipi/TOOLCHAIN/bin/../lib/gcc/arm-elf/4.1.0/../../../../arm-elf/lib/thumb/interwork/libc.a(mlock.o)
 .debug_abbrev  0x00000bda      0x185 /home/afrendy/projconto/atinom_lipi/atinom-lipi/TOOLCHAIN/bin/../lib/gcc/arm-elf/4.1.0/../../../../arm-elf/lib/thumb/interwork/libc.a(rand.o)
 .debug_abbrev  0x00000d5f      0x1a2 /home/afrendy/projconto/atinom_lipi/atinom-lipi/TOOLCHAIN/bin/../lib/gcc/arm-elf/4.1.0/../../../../arm-elf/lib/thumb/interwork/libc.a(snprintf.o)
 .debug_abbrev  0x00000f01      0x193 /home/afrendy/projconto/atinom_lipi/atinom-lipi/TOOLCHAIN/bin/../lib/gcc/arm-elf/4.1.0/../../../../arm-elf/lib/thumb/interwork/libc.a(sprintf.o)
 .debug_abbrev  0x00001094      0x1c8 /home/afrendy/projconto/atinom_lipi/atinom-lipi/TOOLCHAIN/bin/../lib/gcc/arm-elf/4.1.0/../../../../arm-elf/lib/thumb/interwork/libc.a(sscanf.o)
 .debug_abbrev  0x0000125c       0x87 /home/afrendy/projconto/atinom_lipi/atinom-lipi/TOOLCHAIN/bin/../lib/gcc/arm-elf/4.1.0/../../../../arm-elf/lib/thumb/interwork/libc.a(strcat.o)
 .debug_abbrev  0x000012e3       0x8f /home/afrendy/projconto/atinom_lipi/atinom-lipi/TOOLCHAIN/bin/../lib/gcc/arm-elf/4.1.0/../../../../arm-elf/lib/thumb/interwork/libc.a(strchr.o)
 .debug_abbrev  0x00001372       0x71 /home/afrendy/projconto/atinom_lipi/atinom-lipi/TOOLCHAIN/bin/../lib/gcc/arm-elf/4.1.0/../../../../arm-elf/lib/thumb/interwork/libc.a(strcmp.o)
 .debug_abbrev  0x000013e3       0x80 /home/afrendy/projconto/atinom_lipi/atinom-lipi/TOOLCHAIN/bin/../lib/gcc/arm-elf/4.1.0/../../../../arm-elf/lib/thumb/interwork/libc.a(strcpy.o)
 .debug_abbrev  0x00001463       0x8b /home/afrendy/projconto/atinom_lipi/atinom-lipi/TOOLCHAIN/bin/../lib/gcc/arm-elf/4.1.0/../../../../arm-elf/lib/thumb/interwork/libc.a(strlen.o)
 .debug_abbrev  0x000014ee       0x7e /home/afrendy/projconto/atinom_lipi/atinom-lipi/TOOLCHAIN/bin/../lib/gcc/arm-elf/4.1.0/../../../../arm-elf/lib/thumb/interwork/libc.a(strncmp.o)
 .debug_abbrev  0x0000156c       0x8d /home/afrendy/projconto/atinom_lipi/atinom-lipi/TOOLCHAIN/bin/../lib/gcc/arm-elf/4.1.0/../../../../arm-elf/lib/thumb/interwork/libc.a(strncpy.o)
 .debug_abbrev  0x000015f9       0x6f /home/afrendy/projconto/atinom_lipi/atinom-lipi/TOOLCHAIN/bin/../lib/gcc/arm-elf/4.1.0/../../../../arm-elf/lib/thumb/interwork/libc.a(strrchr.o)
 .debug_abbrev  0x00001668       0x4e /home/afrendy/projconto/atinom_lipi/atinom-lipi/TOOLCHAIN/bin/../lib/gcc/arm-elf/4.1.0/../../../../arm-elf/lib/thumb/interwork/libc.a(tzlock.o)
 .debug_abbrev  0x000016b6       0x56 /home/afrendy/projconto/atinom_lipi/atinom-lipi/TOOLCHAIN/bin/../lib/gcc/arm-elf/4.1.0/../../../../arm-elf/lib/thumb/interwork/libc.a(tzvars.o)
 .debug_abbrev  0x0000170c      0x356 /home/afrendy/projconto/atinom_lipi/atinom-lipi/TOOLCHAIN/bin/../lib/gcc/arm-elf/4.1.0/../../../../arm-elf/lib/thumb/interwork/libc.a(vfprintf.o)
 .debug_abbrev  0x00001a62      0x26d /home/afrendy/projconto/atinom_lipi/atinom-lipi/TOOLCHAIN/bin/../lib/gcc/arm-elf/4.1.0/../../../../arm-elf/lib/thumb/interwork/libc.a(vfscanf.o)
 .debug_abbrev  0x00001ccf      0x17f /home/afrendy/projconto/atinom_lipi/atinom-lipi/TOOLCHAIN/bin/../lib/gcc/arm-elf/4.1.0/../../../../arm-elf/lib/thumb/interwork/libc.a(vsprintf.o)
 .debug_abbrev  0x00001e4e      0x18e /home/afrendy/projconto/atinom_lipi/atinom-lipi/TOOLCHAIN/bin/../lib/gcc/arm-elf/4.1.0/../../../../arm-elf/lib/thumb/interwork/libc.a(wcrtomb.o)
 .debug_abbrev  0x00001fdc      0x1a4 /home/afrendy/projconto/atinom_lipi/atinom-lipi/TOOLCHAIN/bin/../lib/gcc/arm-elf/4.1.0/../../../../arm-elf/lib/thumb/interwork/libc.a(wcsrtombs.o)
 .debug_abbrev  0x00002180      0x1ab /home/afrendy/projconto/atinom_lipi/atinom-lipi/TOOLCHAIN/bin/../lib/gcc/arm-elf/4.1.0/../../../../arm-elf/lib/thumb/interwork/libc.a(wctomb_r.o)
 .debug_abbrev  0x0000232b      0x170 /home/afrendy/projconto/atinom_lipi/atinom-lipi/TOOLCHAIN/bin/../lib/gcc/arm-elf/4.1.0/../../../../arm-elf/lib/thumb/interwork/libc.a(wsetup.o)
 .debug_abbrev  0x0000249b      0x17f /home/afrendy/projconto/atinom_lipi/atinom-lipi/TOOLCHAIN/bin/../lib/gcc/arm-elf/4.1.0/../../../../arm-elf/lib/thumb/interwork/libc.a(asctime.o)
 .debug_abbrev  0x0000261a       0xa1 /home/afrendy/projconto/atinom_lipi/atinom-lipi/TOOLCHAIN/bin/../lib/gcc/arm-elf/4.1.0/../../../../arm-elf/lib/thumb/interwork/libc.a(asctime_r.o)
 .debug_abbrev  0x000026bb       0x52 /home/afrendy/projconto/atinom_lipi/atinom-lipi/TOOLCHAIN/bin/../lib/gcc/arm-elf/4.1.0/../../../../arm-elf/lib/thumb/interwork/libc.a(ctype_.o)
 .debug_abbrev  0x0000270d      0x214 /home/afrendy/projconto/atinom_lipi/atinom-lipi/TOOLCHAIN/bin/../lib/gcc/arm-elf/4.1.0/../../../../arm-elf/lib/thumb/interwork/libc.a(dtoa.o)
 .debug_abbrev  0x00002921      0x17f /home/afrendy/projconto/atinom_lipi/atinom-lipi/TOOLCHAIN/bin/../lib/gcc/arm-elf/4.1.0/../../../../arm-elf/lib/thumb/interwork/libc.a(fflush.o)
 .debug_abbrev  0x00002aa0      0x24a /home/afrendy/projconto/atinom_lipi/atinom-lipi/TOOLCHAIN/bin/../lib/gcc/arm-elf/4.1.0/../../../../arm-elf/lib/thumb/interwork/libc.a(findfp.o)
 .debug_abbrev  0x00002cea      0x1c7 /home/afrendy/projconto/atinom_lipi/atinom-lipi/TOOLCHAIN/bin/../lib/gcc/arm-elf/4.1.0/../../../../arm-elf/lib/thumb/interwork/libc.a(fread.o)
 .debug_abbrev  0x00002eb1      0x1d9 /home/afrendy/projconto/atinom_lipi/atinom-lipi/TOOLCHAIN/bin/../lib/gcc/arm-elf/4.1.0/../../../../arm-elf/lib/thumb/interwork/libc.a(freer.o)
 .debug_abbrev  0x0000308a      0x1b4 /home/afrendy/projconto/atinom_lipi/atinom-lipi/TOOLCHAIN/bin/../lib/gcc/arm-elf/4.1.0/../../../../arm-elf/lib/thumb/interwork/libc.a(fvwrite.o)
 .debug_abbrev  0x0000323e      0x1e3 /home/afrendy/projconto/atinom_lipi/atinom-lipi/TOOLCHAIN/bin/../lib/gcc/arm-elf/4.1.0/../../../../arm-elf/lib/thumb/interwork/libc.a(fwalk.o)
 .debug_abbrev  0x00003421       0xa5 /home/afrendy/projconto/atinom_lipi/atinom-lipi/TOOLCHAIN/bin/../lib/gcc/arm-elf/4.1.0/../../../../arm-elf/lib/thumb/interwork/libc.a(gettzinfo.o)
 .debug_abbrev  0x000034c6      0x157 /home/afrendy/projconto/atinom_lipi/atinom-lipi/TOOLCHAIN/bin/../lib/gcc/arm-elf/4.1.0/../../../../arm-elf/lib/thumb/interwork/libc.a(impure.o)
 .debug_abbrev  0x0000361d       0x9f /home/afrendy/projconto/atinom_lipi/atinom-lipi/TOOLCHAIN/bin/../lib/gcc/arm-elf/4.1.0/../../../../arm-elf/lib/thumb/interwork/libc.a(iswspace.o)
 .debug_abbrev  0x000036bc      0x20e /home/afrendy/projconto/atinom_lipi/atinom-lipi/TOOLCHAIN/bin/../lib/gcc/arm-elf/4.1.0/../../../../arm-elf/lib/thumb/interwork/libc.a(locale.o)
 .debug_abbrev  0x000038ca      0x1a8 /home/afrendy/projconto/atinom_lipi/atinom-lipi/TOOLCHAIN/bin/../lib/gcc/arm-elf/4.1.0/../../../../arm-elf/lib/thumb/interwork/libc.a(makebuf.o)
 .debug_abbrev  0x00003a72      0x17f /home/afrendy/projconto/atinom_lipi/atinom-lipi/TOOLCHAIN/bin/../lib/gcc/arm-elf/4.1.0/../../../../arm-elf/lib/thumb/interwork/libc.a(mbrtowc.o)
 .debug_abbrev  0x00003bf1      0x199 /home/afrendy/projconto/atinom_lipi/atinom-lipi/TOOLCHAIN/bin/../lib/gcc/arm-elf/4.1.0/../../../../arm-elf/lib/thumb/interwork/libc.a(mbtowc_r.o)
 .debug_abbrev  0x00003d8a       0xb5 /home/afrendy/projconto/atinom_lipi/atinom-lipi/TOOLCHAIN/bin/../lib/gcc/arm-elf/4.1.0/../../../../arm-elf/lib/thumb/interwork/libc.a(memchr.o)
 .debug_abbrev  0x00003e3f       0x99 /home/afrendy/projconto/atinom_lipi/atinom-lipi/TOOLCHAIN/bin/../lib/gcc/arm-elf/4.1.0/../../../../arm-elf/lib/thumb/interwork/libc.a(memmove.o)
 .debug_abbrev  0x00003ed8      0x262 /home/afrendy/projconto/atinom_lipi/atinom-lipi/TOOLCHAIN/bin/../lib/gcc/arm-elf/4.1.0/../../../../arm-elf/lib/thumb/interwork/libc.a(mprec.o)
 .debug_abbrev  0x0000413a      0x1c3 /home/afrendy/projconto/atinom_lipi/atinom-lipi/TOOLCHAIN/bin/../lib/gcc/arm-elf/4.1.0/../../../../arm-elf/lib/thumb/interwork/libc.a(reallocr.o)
 .debug_abbrev  0x000042fd      0x187 /home/afrendy/projconto/atinom_lipi/atinom-lipi/TOOLCHAIN/bin/../lib/gcc/arm-elf/4.1.0/../../../../arm-elf/lib/thumb/interwork/libc.a(refill.o)
 .debug_abbrev  0x00004484       0x79 /home/afrendy/projconto/atinom_lipi/atinom-lipi/TOOLCHAIN/bin/../lib/gcc/arm-elf/4.1.0/../../../../arm-elf/lib/thumb/interwork/libc.a(s_isinf.o)
 .debug_abbrev  0x000044fd       0x79 /home/afrendy/projconto/atinom_lipi/atinom-lipi/TOOLCHAIN/bin/../lib/gcc/arm-elf/4.1.0/../../../../arm-elf/lib/thumb/interwork/libc.a(s_isnan.o)
 .debug_abbrev  0x00004576       0x84 /home/afrendy/projconto/atinom_lipi/atinom-lipi/TOOLCHAIN/bin/../lib/gcc/arm-elf/4.1.0/../../../../arm-elf/lib/thumb/interwork/libc.a(sccl.o)
 .debug_abbrev  0x000045fa       0x6d /home/afrendy/projconto/atinom_lipi/atinom-lipi/TOOLCHAIN/bin/../lib/gcc/arm-elf/4.1.0/../../../../arm-elf/lib/thumb/interwork/libc.a(sf_nan.o)
 .debug_abbrev  0x00004667      0x1aa /home/afrendy/projconto/atinom_lipi/atinom-lipi/TOOLCHAIN/bin/../lib/gcc/arm-elf/4.1.0/../../../../arm-elf/lib/thumb/interwork/libc.a(stdio.o)
 .debug_abbrev  0x00004811      0x21a /home/afrendy/projconto/atinom_lipi/atinom-lipi/TOOLCHAIN/bin/../lib/gcc/arm-elf/4.1.0/../../../../arm-elf/lib/thumb/interwork/libc.a(strtod.o)
 .debug_abbrev  0x00004a2b      0x1ae /home/afrendy/projconto/atinom_lipi/atinom-lipi/TOOLCHAIN/bin/../lib/gcc/arm-elf/4.1.0/../../../../arm-elf/lib/thumb/interwork/libc.a(strtol.o)
 .debug_abbrev  0x00004bd9      0x1ac /home/afrendy/projconto/atinom_lipi/atinom-lipi/TOOLCHAIN/bin/../lib/gcc/arm-elf/4.1.0/../../../../arm-elf/lib/thumb/interwork/libc.a(strtoul.o)
 .debug_abbrev  0x00004d85      0x3e4 /home/afrendy/projconto/atinom_lipi/atinom-lipi/TOOLCHAIN/bin/../lib/gcc/arm-elf/4.1.0/../../../../arm-elf/lib/thumb/interwork/libc.a(syscalls.o)
 .debug_abbrev  0x00005169      0x18e /home/afrendy/projconto/atinom_lipi/atinom-lipi/TOOLCHAIN/bin/../lib/gcc/arm-elf/4.1.0/../../../../arm-elf/lib/thumb/interwork/libc.a(ungetc.o)
 .debug_abbrev  0x000052f7      0x1af /home/afrendy/projconto/atinom_lipi/atinom-lipi/TOOLCHAIN/bin/../lib/gcc/arm-elf/4.1.0/../../../../arm-elf/lib/thumb/interwork/libc.a(callocr.o)
 .debug_abbrev  0x000054a6      0x15f /home/afrendy/projconto/atinom_lipi/atinom-lipi/TOOLCHAIN/bin/../lib/gcc/arm-elf/4.1.0/../../../../arm-elf/lib/thumb/interwork/libc.a(errno.o)
 .debug_abbrev  0x00005605      0x18e /home/afrendy/projconto/atinom_lipi/atinom-lipi/TOOLCHAIN/bin/../lib/gcc/arm-elf/4.1.0/../../../../arm-elf/lib/thumb/interwork/libc.a(fclose.o)
 .debug_abbrev  0x00005793       0xd5 /home/afrendy/projconto/atinom_lipi/atinom-lipi/TOOLCHAIN/bin/../lib/gcc/arm-elf/4.1.0/../../../../arm-elf/lib/thumb/interwork/libc.a(s_nan.o)
 .debug_abbrev  0x00005868       0x14 /home/afrendy/projconto/atinom_lipi/atinom-lipi/TOOLCHAIN/bin/../lib/gcc/arm-elf/4.1.0/thumb/interwork/libgcc.a(_udivsi3.o)
 .debug_abbrev  0x0000587c       0x14 /home/afrendy/projconto/atinom_lipi/atinom-lipi/TOOLCHAIN/bin/../lib/gcc/arm-elf/4.1.0/thumb/interwork/libgcc.a(_divsi3.o)
 .debug_abbrev  0x00005890       0x14 /home/afrendy/projconto/atinom_lipi/atinom-lipi/TOOLCHAIN/bin/../lib/gcc/arm-elf/4.1.0/thumb/interwork/libgcc.a(_umodsi3.o)
 .debug_abbrev  0x000058a4       0x14 /home/afrendy/projconto/atinom_lipi/atinom-lipi/TOOLCHAIN/bin/../lib/gcc/arm-elf/4.1.0/thumb/interwork/libgcc.a(_modsi3.o)
 .debug_abbrev  0x000058b8       0x14 /home/afrendy/projconto/atinom_lipi/atinom-lipi/TOOLCHAIN/bin/../lib/gcc/arm-elf/4.1.0/thumb/interwork/libgcc.a(_dvmd_tls.o)
 .debug_abbrev  0x000058cc       0xec /home/afrendy/projconto/atinom_lipi/atinom-lipi/TOOLCHAIN/bin/../lib/gcc/arm-elf/4.1.0/thumb/interwork/libgcc.a(_muldi3.o)
 .debug_abbrev  0x000059b8       0x5d /home/afrendy/projconto/atinom_lipi/atinom-lipi/TOOLCHAIN/bin/../lib/gcc/arm-elf/4.1.0/thumb/interwork/libgcc.a(_fixunsdfsi.o)
 .debug_abbrev  0x00005a15      0x1a8 /home/afrendy/projconto/atinom_lipi/atinom-lipi/TOOLCHAIN/bin/../lib/gcc/arm-elf/4.1.0/thumb/interwork/libgcc.a(_addsub_sf.o)
 .debug_abbrev  0x00005bbd      0x1d9 /home/afrendy/projconto/atinom_lipi/atinom-lipi/TOOLCHAIN/bin/../lib/gcc/arm-elf/4.1.0/thumb/interwork/libgcc.a(_div_sf.o)
 .debug_abbrev  0x00005d96      0x157 /home/afrendy/projconto/atinom_lipi/atinom-lipi/TOOLCHAIN/bin/../lib/gcc/arm-elf/4.1.0/thumb/interwork/libgcc.a(_gt_sf.o)
 .debug_abbrev  0x00005eed      0x128 /home/afrendy/projconto/atinom_lipi/atinom-lipi/TOOLCHAIN/bin/../lib/gcc/arm-elf/4.1.0/thumb/interwork/libgcc.a(_sf_to_df.o)
 .debug_abbrev  0x00006015       0xba /home/afrendy/projconto/atinom_lipi/atinom-lipi/TOOLCHAIN/bin/../lib/gcc/arm-elf/4.1.0/thumb/interwork/libgcc.a(_thenan_sf.o)
 .debug_abbrev  0x000060cf      0x1a8 /home/afrendy/projconto/atinom_lipi/atinom-lipi/TOOLCHAIN/bin/../lib/gcc/arm-elf/4.1.0/thumb/interwork/libgcc.a(_addsub_df.o)
 .debug_abbrev  0x00006277      0x1e7 /home/afrendy/projconto/atinom_lipi/atinom-lipi/TOOLCHAIN/bin/../lib/gcc/arm-elf/4.1.0/thumb/interwork/libgcc.a(_mul_df.o)
 .debug_abbrev  0x0000645e      0x1d9 /home/afrendy/projconto/atinom_lipi/atinom-lipi/TOOLCHAIN/bin/../lib/gcc/arm-elf/4.1.0/thumb/interwork/libgcc.a(_div_df.o)
 .debug_abbrev  0x00006637      0x157 /home/afrendy/projconto/atinom_lipi/atinom-lipi/TOOLCHAIN/bin/../lib/gcc/arm-elf/4.1.0/thumb/interwork/libgcc.a(_eq_df.o)
 .debug_abbrev  0x0000678e      0x157 /home/afrendy/projconto/atinom_lipi/atinom-lipi/TOOLCHAIN/bin/../lib/gcc/arm-elf/4.1.0/thumb/interwork/libgcc.a(_ne_df.o)
 .debug_abbrev  0x000068e5      0x157 /home/afrendy/projconto/atinom_lipi/atinom-lipi/TOOLCHAIN/bin/../lib/gcc/arm-elf/4.1.0/thumb/interwork/libgcc.a(_gt_df.o)
 .debug_abbrev  0x00006a3c      0x157 /home/afrendy/projconto/atinom_lipi/atinom-lipi/TOOLCHAIN/bin/../lib/gcc/arm-elf/4.1.0/thumb/interwork/libgcc.a(_ge_df.o)
 .debug_abbrev  0x00006b93      0x157 /home/afrendy/projconto/atinom_lipi/atinom-lipi/TOOLCHAIN/bin/../lib/gcc/arm-elf/4.1.0/thumb/interwork/libgcc.a(_lt_df.o)
 .debug_abbrev  0x00006cea      0x157 /home/afrendy/projconto/atinom_lipi/atinom-lipi/TOOLCHAIN/bin/../lib/gcc/arm-elf/4.1.0/thumb/interwork/libgcc.a(_le_df.o)
 .debug_abbrev  0x00006e41       0xf1 /home/afrendy/projconto/atinom_lipi/atinom-lipi/TOOLCHAIN/bin/../lib/gcc/arm-elf/4.1.0/thumb/interwork/libgcc.a(_si_to_df.o)
 .debug_abbrev  0x00006f32      0x166 /home/afrendy/projconto/atinom_lipi/atinom-lipi/TOOLCHAIN/bin/../lib/gcc/arm-elf/4.1.0/thumb/interwork/libgcc.a(_df_to_si.o)
 .debug_abbrev  0x00007098      0x10f /home/afrendy/projconto/atinom_lipi/atinom-lipi/TOOLCHAIN/bin/../lib/gcc/arm-elf/4.1.0/thumb/interwork/libgcc.a(_make_df.o)
 .debug_abbrev  0x000071a7      0x137 /home/afrendy/projconto/atinom_lipi/atinom-lipi/TOOLCHAIN/bin/../lib/gcc/arm-elf/4.1.0/thumb/interwork/libgcc.a(_df_to_sf.o)
 .debug_abbrev  0x000072de       0xba /home/afrendy/projconto/atinom_lipi/atinom-lipi/TOOLCHAIN/bin/../lib/gcc/arm-elf/4.1.0/thumb/interwork/libgcc.a(_thenan_df.o)
 .debug_abbrev  0x00007398      0x17a /home/afrendy/projconto/atinom_lipi/atinom-lipi/TOOLCHAIN/bin/../lib/gcc/arm-elf/4.1.0/thumb/interwork/libgcc.a(_pack_sf.o)
 .debug_abbrev  0x00007512      0x158 /home/afrendy/projconto/atinom_lipi/atinom-lipi/TOOLCHAIN/bin/../lib/gcc/arm-elf/4.1.0/thumb/interwork/libgcc.a(_unpack_sf.o)
 .debug_abbrev  0x0000766a      0x111 /home/afrendy/projconto/atinom_lipi/atinom-lipi/TOOLCHAIN/bin/../lib/gcc/arm-elf/4.1.0/thumb/interwork/libgcc.a(_fpcmp_parts_sf.o)
 .debug_abbrev  0x0000777b      0x100 /home/afrendy/projconto/atinom_lipi/atinom-lipi/TOOLCHAIN/bin/../lib/gcc/arm-elf/4.1.0/thumb/interwork/libgcc.a(_make_sf.o)
 .debug_abbrev  0x0000787b      0x192 /home/afrendy/projconto/atinom_lipi/atinom-lipi/TOOLCHAIN/bin/../lib/gcc/arm-elf/4.1.0/thumb/interwork/libgcc.a(_pack_df.o)
 .debug_abbrev  0x00007a0d      0x149 /home/afrendy/projconto/atinom_lipi/atinom-lipi/TOOLCHAIN/bin/../lib/gcc/arm-elf/4.1.0/thumb/interwork/libgcc.a(_unpack_df.o)
 .debug_abbrev  0x00007b56      0x111 /home/afrendy/projconto/atinom_lipi/atinom-lipi/TOOLCHAIN/bin/../lib/gcc/arm-elf/4.1.0/thumb/interwork/libgcc.a(_fpcmp_parts_df.o)
 .debug_abbrev  0x00007c67       0xc7 /home/afrendy/projconto/atinom_lipi/atinom-lipi/TOOLCHAIN/bin/../lib/gcc/arm-elf/4.1.0/../../../../arm-elf/lib/thumb/interwork/libm.a(w_pow.o)
 .debug_abbrev  0x00007d2e      0x164 /home/afrendy/projconto/atinom_lipi/atinom-lipi/TOOLCHAIN/bin/../lib/gcc/arm-elf/4.1.0/../../../../arm-elf/lib/thumb/interwork/libm.a(e_pow.o)
 .debug_abbrev  0x00007e92      0x120 /home/afrendy/projconto/atinom_lipi/atinom-lipi/TOOLCHAIN/bin/../lib/gcc/arm-elf/4.1.0/../../../../arm-elf/lib/thumb/interwork/libm.a(e_sqrt.o)
 .debug_abbrev  0x00007fb2       0xd2 /home/afrendy/projconto/atinom_lipi/atinom-lipi/TOOLCHAIN/bin/../lib/gcc/arm-elf/4.1.0/../../../../arm-elf/lib/thumb/interwork/libm.a(s_fabs.o)
 .debug_abbrev  0x00008084       0xc5 /home/afrendy/projconto/atinom_lipi/atinom-lipi/TOOLCHAIN/bin/../lib/gcc/arm-elf/4.1.0/../../../../arm-elf/lib/thumb/interwork/libm.a(s_finite.o)
 .debug_abbrev  0x00008149       0x5a /home/afrendy/projconto/atinom_lipi/atinom-lipi/TOOLCHAIN/bin/../lib/gcc/arm-elf/4.1.0/../../../../arm-elf/lib/thumb/interwork/libm.a(s_lib_ver.o)
 .debug_abbrev  0x000081a3       0x95 /home/afrendy/projconto/atinom_lipi/atinom-lipi/TOOLCHAIN/bin/../lib/gcc/arm-elf/4.1.0/../../../../arm-elf/lib/thumb/interwork/libm.a(s_matherr.o)
 .debug_abbrev  0x00008238      0x10e /home/afrendy/projconto/atinom_lipi/atinom-lipi/TOOLCHAIN/bin/../lib/gcc/arm-elf/4.1.0/../../../../arm-elf/lib/thumb/interwork/libm.a(s_rint.o)
 .debug_abbrev  0x00008346      0x104 /home/afrendy/projconto/atinom_lipi/atinom-lipi/TOOLCHAIN/bin/../lib/gcc/arm-elf/4.1.0/../../../../arm-elf/lib/thumb/interwork/libm.a(s_scalbn.o)
 .debug_abbrev  0x0000844a       0xea /home/afrendy/projconto/atinom_lipi/atinom-lipi/TOOLCHAIN/bin/../lib/gcc/arm-elf/4.1.0/../../../../arm-elf/lib/thumb/interwork/libm.a(s_copysign.o)

.debug_info     0x00000000    0x23dac
 .debug_info    0x00000000       0xc3 /home/afrendy/projconto/atinom_lipi/atinom-lipi/TOOLCHAIN/bin/../lib/gcc/arm-elf/4.1.0/../../../../arm-elf/lib/thumb/interwork/libc.a(ctime.o)
 .debug_info    0x000000c3       0xe4 /home/afrendy/projconto/atinom_lipi/atinom-lipi/TOOLCHAIN/bin/../lib/gcc/arm-elf/4.1.0/../../../../arm-elf/lib/thumb/interwork/libc.a(div.o)
 .debug_info    0x000001a7      0x9d0 /home/afrendy/projconto/atinom_lipi/atinom-lipi/TOOLCHAIN/bin/../lib/gcc/arm-elf/4.1.0/../../../../arm-elf/lib/thumb/interwork/libc.a(lcltime.o)
 .debug_info    0x00000b77      0x15c /home/afrendy/projconto/atinom_lipi/atinom-lipi/TOOLCHAIN/bin/../lib/gcc/arm-elf/4.1.0/../../../../arm-elf/lib/thumb/interwork/libc.a(lcltime_r.o)
 .debug_info    0x00000cd3      0x957 /home/afrendy/projconto/atinom_lipi/atinom-lipi/TOOLCHAIN/bin/../lib/gcc/arm-elf/4.1.0/../../../../arm-elf/lib/thumb/interwork/libc.a(malloc.o)
 .debug_info    0x0000162a      0xcbc /home/afrendy/projconto/atinom_lipi/atinom-lipi/TOOLCHAIN/bin/../lib/gcc/arm-elf/4.1.0/../../../../arm-elf/lib/thumb/interwork/libc.a(mallocr.o)
 .debug_info    0x000022e6      0x10e /home/afrendy/projconto/atinom_lipi/atinom-lipi/TOOLCHAIN/bin/../lib/gcc/arm-elf/4.1.0/../../../../arm-elf/lib/thumb/interwork/libc.a(memcpy.o)
 .debug_info    0x000023f4      0x112 /home/afrendy/projconto/atinom_lipi/atinom-lipi/TOOLCHAIN/bin/../lib/gcc/arm-elf/4.1.0/../../../../arm-elf/lib/thumb/interwork/libc.a(memset.o)
 .debug_info    0x00002506      0x372 /home/afrendy/projconto/atinom_lipi/atinom-lipi/TOOLCHAIN/bin/../lib/gcc/arm-elf/4.1.0/../../../../arm-elf/lib/thumb/interwork/libc.a(mktime.o)
 .debug_info    0x00002878      0x3ff /home/afrendy/projconto/atinom_lipi/atinom-lipi/TOOLCHAIN/bin/../lib/gcc/arm-elf/4.1.0/../../../../arm-elf/lib/thumb/interwork/libc.a(mktm_r.o)
 .debug_info    0x00002c77      0x93c /home/afrendy/projconto/atinom_lipi/atinom-lipi/TOOLCHAIN/bin/../lib/gcc/arm-elf/4.1.0/../../../../arm-elf/lib/thumb/interwork/libc.a(mlock.o)
 .debug_info    0x000035b3      0x934 /home/afrendy/projconto/atinom_lipi/atinom-lipi/TOOLCHAIN/bin/../lib/gcc/arm-elf/4.1.0/../../../../arm-elf/lib/thumb/interwork/libc.a(rand.o)
 .debug_info    0x00003ee7      0xa22 /home/afrendy/projconto/atinom_lipi/atinom-lipi/TOOLCHAIN/bin/../lib/gcc/arm-elf/4.1.0/../../../../arm-elf/lib/thumb/interwork/libc.a(snprintf.o)
 .debug_info    0x00004909      0xa02 /home/afrendy/projconto/atinom_lipi/atinom-lipi/TOOLCHAIN/bin/../lib/gcc/arm-elf/4.1.0/../../../../arm-elf/lib/thumb/interwork/libc.a(sprintf.o)
 .debug_info    0x0000530b      0xa4c /home/afrendy/projconto/atinom_lipi/atinom-lipi/TOOLCHAIN/bin/../lib/gcc/arm-elf/4.1.0/../../../../arm-elf/lib/thumb/interwork/libc.a(sscanf.o)
 .debug_info    0x00005d57       0xe6 /home/afrendy/projconto/atinom_lipi/atinom-lipi/TOOLCHAIN/bin/../lib/gcc/arm-elf/4.1.0/../../../../arm-elf/lib/thumb/interwork/libc.a(strcat.o)
 .debug_info    0x00005e3d      0x111 /home/afrendy/projconto/atinom_lipi/atinom-lipi/TOOLCHAIN/bin/../lib/gcc/arm-elf/4.1.0/../../../../arm-elf/lib/thumb/interwork/libc.a(strchr.o)
 .debug_info    0x00005f4e       0xda /home/afrendy/projconto/atinom_lipi/atinom-lipi/TOOLCHAIN/bin/../lib/gcc/arm-elf/4.1.0/../../../../arm-elf/lib/thumb/interwork/libc.a(strcmp.o)
 .debug_info    0x00006028      0x10d /home/afrendy/projconto/atinom_lipi/atinom-lipi/TOOLCHAIN/bin/../lib/gcc/arm-elf/4.1.0/../../../../arm-elf/lib/thumb/interwork/libc.a(strcpy.o)
 .debug_info    0x00006135       0xd6 /home/afrendy/projconto/atinom_lipi/atinom-lipi/TOOLCHAIN/bin/../lib/gcc/arm-elf/4.1.0/../../../../arm-elf/lib/thumb/interwork/libc.a(strlen.o)
 .debug_info    0x0000620b       0xf2 /home/afrendy/projconto/atinom_lipi/atinom-lipi/TOOLCHAIN/bin/../lib/gcc/arm-elf/4.1.0/../../../../arm-elf/lib/thumb/interwork/libc.a(strncmp.o)
 .debug_info    0x000062fd      0x127 /home/afrendy/projconto/atinom_lipi/atinom-lipi/TOOLCHAIN/bin/../lib/gcc/arm-elf/4.1.0/../../../../arm-elf/lib/thumb/interwork/libc.a(strncpy.o)
 .debug_info    0x00006424       0xc7 /home/afrendy/projconto/atinom_lipi/atinom-lipi/TOOLCHAIN/bin/../lib/gcc/arm-elf/4.1.0/../../../../arm-elf/lib/thumb/interwork/libc.a(strrchr.o)
 .debug_info    0x000064eb       0xac /home/afrendy/projconto/atinom_lipi/atinom-lipi/TOOLCHAIN/bin/../lib/gcc/arm-elf/4.1.0/../../../../arm-elf/lib/thumb/interwork/libc.a(tzlock.o)
 .debug_info    0x00006597       0xc6 /home/afrendy/projconto/atinom_lipi/atinom-lipi/TOOLCHAIN/bin/../lib/gcc/arm-elf/4.1.0/../../../../arm-elf/lib/thumb/interwork/libc.a(tzvars.o)
 .debug_info    0x0000665d     0x10eb /home/afrendy/projconto/atinom_lipi/atinom-lipi/TOOLCHAIN/bin/../lib/gcc/arm-elf/4.1.0/../../../../arm-elf/lib/thumb/interwork/libc.a(vfprintf.o)
 .debug_info    0x00007748      0xe13 /home/afrendy/projconto/atinom_lipi/atinom-lipi/TOOLCHAIN/bin/../lib/gcc/arm-elf/4.1.0/../../../../arm-elf/lib/thumb/interwork/libc.a(vfscanf.o)
 .debug_info    0x0000855b      0x9f7 /home/afrendy/projconto/atinom_lipi/atinom-lipi/TOOLCHAIN/bin/../lib/gcc/arm-elf/4.1.0/../../../../arm-elf/lib/thumb/interwork/libc.a(vsprintf.o)
 .debug_info    0x00008f52      0x9ef /home/afrendy/projconto/atinom_lipi/atinom-lipi/TOOLCHAIN/bin/../lib/gcc/arm-elf/4.1.0/../../../../arm-elf/lib/thumb/interwork/libc.a(wcrtomb.o)
 .debug_info    0x00009941      0xa84 /home/afrendy/projconto/atinom_lipi/atinom-lipi/TOOLCHAIN/bin/../lib/gcc/arm-elf/4.1.0/../../../../arm-elf/lib/thumb/interwork/libc.a(wcsrtombs.o)
 .debug_info    0x0000a3c5      0x9f7 /home/afrendy/projconto/atinom_lipi/atinom-lipi/TOOLCHAIN/bin/../lib/gcc/arm-elf/4.1.0/../../../../arm-elf/lib/thumb/interwork/libc.a(wctomb_r.o)
 .debug_info    0x0000adbc      0x93a /home/afrendy/projconto/atinom_lipi/atinom-lipi/TOOLCHAIN/bin/../lib/gcc/arm-elf/4.1.0/../../../../arm-elf/lib/thumb/interwork/libc.a(wsetup.o)
 .debug_info    0x0000b6f6      0x9bf /home/afrendy/projconto/atinom_lipi/atinom-lipi/TOOLCHAIN/bin/../lib/gcc/arm-elf/4.1.0/../../../../arm-elf/lib/thumb/interwork/libc.a(asctime.o)
 .debug_info    0x0000c0b5      0x1a9 /home/afrendy/projconto/atinom_lipi/atinom-lipi/TOOLCHAIN/bin/../lib/gcc/arm-elf/4.1.0/../../../../arm-elf/lib/thumb/interwork/libc.a(asctime_r.o)
 .debug_info    0x0000c25e       0x79 /home/afrendy/projconto/atinom_lipi/atinom-lipi/TOOLCHAIN/bin/../lib/gcc/arm-elf/4.1.0/../../../../arm-elf/lib/thumb/interwork/libc.a(ctype_.o)
 .debug_info    0x0000c2d7      0xd65 /home/afrendy/projconto/atinom_lipi/atinom-lipi/TOOLCHAIN/bin/../lib/gcc/arm-elf/4.1.0/../../../../arm-elf/lib/thumb/interwork/libc.a(dtoa.o)
 .debug_info    0x0000d03c      0x974 /home/afrendy/projconto/atinom_lipi/atinom-lipi/TOOLCHAIN/bin/../lib/gcc/arm-elf/4.1.0/../../../../arm-elf/lib/thumb/interwork/libc.a(fflush.o)
 .debug_info    0x0000d9b0      0xb67 /home/afrendy/projconto/atinom_lipi/atinom-lipi/TOOLCHAIN/bin/../lib/gcc/arm-elf/4.1.0/../../../../arm-elf/lib/thumb/interwork/libc.a(findfp.o)
 .debug_info    0x0000e517      0x9fc /home/afrendy/projconto/atinom_lipi/atinom-lipi/TOOLCHAIN/bin/../lib/gcc/arm-elf/4.1.0/../../../../arm-elf/lib/thumb/interwork/libc.a(fread.o)
 .debug_info    0x0000ef13      0xbb5 /home/afrendy/projconto/atinom_lipi/atinom-lipi/TOOLCHAIN/bin/../lib/gcc/arm-elf/4.1.0/../../../../arm-elf/lib/thumb/interwork/libc.a(freer.o)
 .debug_info    0x0000fac8      0xa5f /home/afrendy/projconto/atinom_lipi/atinom-lipi/TOOLCHAIN/bin/../lib/gcc/arm-elf/4.1.0/../../../../arm-elf/lib/thumb/interwork/libc.a(fvwrite.o)
 .debug_info    0x00010527      0xad9 /home/afrendy/projconto/atinom_lipi/atinom-lipi/TOOLCHAIN/bin/../lib/gcc/arm-elf/4.1.0/../../../../arm-elf/lib/thumb/interwork/libc.a(fwalk.o)
 .debug_info    0x00011000      0x176 /home/afrendy/projconto/atinom_lipi/atinom-lipi/TOOLCHAIN/bin/../lib/gcc/arm-elf/4.1.0/../../../../arm-elf/lib/thumb/interwork/libc.a(gettzinfo.o)
 .debug_info    0x00011176      0x922 /home/afrendy/projconto/atinom_lipi/atinom-lipi/TOOLCHAIN/bin/../lib/gcc/arm-elf/4.1.0/../../../../arm-elf/lib/thumb/interwork/libc.a(impure.o)
 .debug_info    0x00011a98       0xe8 /home/afrendy/projconto/atinom_lipi/atinom-lipi/TOOLCHAIN/bin/../lib/gcc/arm-elf/4.1.0/../../../../arm-elf/lib/thumb/interwork/libc.a(iswspace.o)
 .debug_info    0x00011b80      0xb82 /home/afrendy/projconto/atinom_lipi/atinom-lipi/TOOLCHAIN/bin/../lib/gcc/arm-elf/4.1.0/../../../../arm-elf/lib/thumb/interwork/libc.a(locale.o)
 .debug_info    0x00012702      0xad9 /home/afrendy/projconto/atinom_lipi/atinom-lipi/TOOLCHAIN/bin/../lib/gcc/arm-elf/4.1.0/../../../../arm-elf/lib/thumb/interwork/libc.a(makebuf.o)
 .debug_info    0x000131db      0x9f3 /home/afrendy/projconto/atinom_lipi/atinom-lipi/TOOLCHAIN/bin/../lib/gcc/arm-elf/4.1.0/../../../../arm-elf/lib/thumb/interwork/libc.a(mbrtowc.o)
 .debug_info    0x00013bce      0x98d /home/afrendy/projconto/atinom_lipi/atinom-lipi/TOOLCHAIN/bin/../lib/gcc/arm-elf/4.1.0/../../../../arm-elf/lib/thumb/interwork/libc.a(mbtowc_r.o)
 .debug_info    0x0001455b      0x133 /home/afrendy/projconto/atinom_lipi/atinom-lipi/TOOLCHAIN/bin/../lib/gcc/arm-elf/4.1.0/../../../../arm-elf/lib/thumb/interwork/libc.a(memchr.o)
 .debug_info    0x0001468e      0x13f /home/afrendy/projconto/atinom_lipi/atinom-lipi/TOOLCHAIN/bin/../lib/gcc/arm-elf/4.1.0/../../../../arm-elf/lib/thumb/interwork/libc.a(memmove.o)
 .debug_info    0x000147cd     0x1336 /home/afrendy/projconto/atinom_lipi/atinom-lipi/TOOLCHAIN/bin/../lib/gcc/arm-elf/4.1.0/../../../../arm-elf/lib/thumb/interwork/libc.a(mprec.o)
 .debug_info    0x00015b03      0xbc7 /home/afrendy/projconto/atinom_lipi/atinom-lipi/TOOLCHAIN/bin/../lib/gcc/arm-elf/4.1.0/../../../../arm-elf/lib/thumb/interwork/libc.a(reallocr.o)
 .debug_info    0x000166ca      0x978 /home/afrendy/projconto/atinom_lipi/atinom-lipi/TOOLCHAIN/bin/../lib/gcc/arm-elf/4.1.0/../../../../arm-elf/lib/thumb/interwork/libc.a(refill.o)
 .debug_info    0x00017042       0xd7 /home/afrendy/projconto/atinom_lipi/atinom-lipi/TOOLCHAIN/bin/../lib/gcc/arm-elf/4.1.0/../../../../arm-elf/lib/thumb/interwork/libc.a(s_isinf.o)
 .debug_info    0x00017119       0xd5 /home/afrendy/projconto/atinom_lipi/atinom-lipi/TOOLCHAIN/bin/../lib/gcc/arm-elf/4.1.0/../../../../arm-elf/lib/thumb/interwork/libc.a(s_isnan.o)
 .debug_info    0x000171ee       0xff /home/afrendy/projconto/atinom_lipi/atinom-lipi/TOOLCHAIN/bin/../lib/gcc/arm-elf/4.1.0/../../../../arm-elf/lib/thumb/interwork/libc.a(sccl.o)
 .debug_info    0x000172ed       0xca /home/afrendy/projconto/atinom_lipi/atinom-lipi/TOOLCHAIN/bin/../lib/gcc/arm-elf/4.1.0/../../../../arm-elf/lib/thumb/interwork/libc.a(sf_nan.o)
 .debug_info    0x000173b7      0xa74 /home/afrendy/projconto/atinom_lipi/atinom-lipi/TOOLCHAIN/bin/../lib/gcc/arm-elf/4.1.0/../../../../arm-elf/lib/thumb/interwork/libc.a(stdio.o)
 .debug_info    0x00017e2b      0xd28 /home/afrendy/projconto/atinom_lipi/atinom-lipi/TOOLCHAIN/bin/../lib/gcc/arm-elf/4.1.0/../../../../arm-elf/lib/thumb/interwork/libc.a(strtod.o)
 .debug_info    0x00018b53      0xa11 /home/afrendy/projconto/atinom_lipi/atinom-lipi/TOOLCHAIN/bin/../lib/gcc/arm-elf/4.1.0/../../../../arm-elf/lib/thumb/interwork/libc.a(strtol.o)
 .debug_info    0x00019564      0xa09 /home/afrendy/projconto/atinom_lipi/atinom-lipi/TOOLCHAIN/bin/../lib/gcc/arm-elf/4.1.0/../../../../arm-elf/lib/thumb/interwork/libc.a(strtoul.o)
 .debug_info    0x00019f6d     0x15d2 /home/afrendy/projconto/atinom_lipi/atinom-lipi/TOOLCHAIN/bin/../lib/gcc/arm-elf/4.1.0/../../../../arm-elf/lib/thumb/interwork/libc.a(syscalls.o)
 .debug_info    0x0001b53f      0x9e4 /home/afrendy/projconto/atinom_lipi/atinom-lipi/TOOLCHAIN/bin/../lib/gcc/arm-elf/4.1.0/../../../../arm-elf/lib/thumb/interwork/libc.a(ungetc.o)
 .debug_info    0x0001bf23      0xa03 /home/afrendy/projconto/atinom_lipi/atinom-lipi/TOOLCHAIN/bin/../lib/gcc/arm-elf/4.1.0/../../../../arm-elf/lib/thumb/interwork/libc.a(callocr.o)
 .debug_info    0x0001c926      0x913 /home/afrendy/projconto/atinom_lipi/atinom-lipi/TOOLCHAIN/bin/../lib/gcc/arm-elf/4.1.0/../../../../arm-elf/lib/thumb/interwork/libc.a(errno.o)
 .debug_info    0x0001d239      0x982 /home/afrendy/projconto/atinom_lipi/atinom-lipi/TOOLCHAIN/bin/../lib/gcc/arm-elf/4.1.0/../../../../arm-elf/lib/thumb/interwork/libc.a(fclose.o)
 .debug_info    0x0001dbbb      0x146 /home/afrendy/projconto/atinom_lipi/atinom-lipi/TOOLCHAIN/bin/../lib/gcc/arm-elf/4.1.0/../../../../arm-elf/lib/thumb/interwork/libc.a(s_nan.o)
 .debug_info    0x0001dd01       0x88 /home/afrendy/projconto/atinom_lipi/atinom-lipi/TOOLCHAIN/bin/../lib/gcc/arm-elf/4.1.0/thumb/interwork/libgcc.a(_udivsi3.o)
 .debug_info    0x0001dd89       0x88 /home/afrendy/projconto/atinom_lipi/atinom-lipi/TOOLCHAIN/bin/../lib/gcc/arm-elf/4.1.0/thumb/interwork/libgcc.a(_divsi3.o)
 .debug_info    0x0001de11       0x88 /home/afrendy/projconto/atinom_lipi/atinom-lipi/TOOLCHAIN/bin/../lib/gcc/arm-elf/4.1.0/thumb/interwork/libgcc.a(_umodsi3.o)
 .debug_info    0x0001de99       0x88 /home/afrendy/projconto/atinom_lipi/atinom-lipi/TOOLCHAIN/bin/../lib/gcc/arm-elf/4.1.0/thumb/interwork/libgcc.a(_modsi3.o)
 .debug_info    0x0001df21       0x88 /home/afrendy/projconto/atinom_lipi/atinom-lipi/TOOLCHAIN/bin/../lib/gcc/arm-elf/4.1.0/thumb/interwork/libgcc.a(_dvmd_tls.o)
 .debug_info    0x0001dfa9      0x207 /home/afrendy/projconto/atinom_lipi/atinom-lipi/TOOLCHAIN/bin/../lib/gcc/arm-elf/4.1.0/thumb/interwork/libgcc.a(_muldi3.o)
 .debug_info    0x0001e1b0       0xce /home/afrendy/projconto/atinom_lipi/atinom-lipi/TOOLCHAIN/bin/../lib/gcc/arm-elf/4.1.0/thumb/interwork/libgcc.a(_fixunsdfsi.o)
 .debug_info    0x0001e27e      0x46f /home/afrendy/projconto/atinom_lipi/atinom-lipi/TOOLCHAIN/bin/../lib/gcc/arm-elf/4.1.0/thumb/interwork/libgcc.a(_addsub_sf.o)
 .debug_info    0x0001e6ed      0x3a0 /home/afrendy/projconto/atinom_lipi/atinom-lipi/TOOLCHAIN/bin/../lib/gcc/arm-elf/4.1.0/thumb/interwork/libgcc.a(_div_sf.o)
 .debug_info    0x0001ea8d      0x29d /home/afrendy/projconto/atinom_lipi/atinom-lipi/TOOLCHAIN/bin/../lib/gcc/arm-elf/4.1.0/thumb/interwork/libgcc.a(_gt_sf.o)
 .debug_info    0x0001ed2a      0x245 /home/afrendy/projconto/atinom_lipi/atinom-lipi/TOOLCHAIN/bin/../lib/gcc/arm-elf/4.1.0/thumb/interwork/libgcc.a(_sf_to_df.o)
 .debug_info    0x0001ef6f      0x164 /home/afrendy/projconto/atinom_lipi/atinom-lipi/TOOLCHAIN/bin/../lib/gcc/arm-elf/4.1.0/thumb/interwork/libgcc.a(_thenan_sf.o)
 .debug_info    0x0001f0d3      0x47d /home/afrendy/projconto/atinom_lipi/atinom-lipi/TOOLCHAIN/bin/../lib/gcc/arm-elf/4.1.0/thumb/interwork/libgcc.a(_addsub_df.o)
 .debug_info    0x0001f550      0x473 /home/afrendy/projconto/atinom_lipi/atinom-lipi/TOOLCHAIN/bin/../lib/gcc/arm-elf/4.1.0/thumb/interwork/libgcc.a(_mul_df.o)
 .debug_info    0x0001f9c3      0x3ad /home/afrendy/projconto/atinom_lipi/atinom-lipi/TOOLCHAIN/bin/../lib/gcc/arm-elf/4.1.0/thumb/interwork/libgcc.a(_div_df.o)
 .debug_info    0x0001fd70      0x2aa /home/afrendy/projconto/atinom_lipi/atinom-lipi/TOOLCHAIN/bin/../lib/gcc/arm-elf/4.1.0/thumb/interwork/libgcc.a(_eq_df.o)
 .debug_info    0x0002001a      0x2aa /home/afrendy/projconto/atinom_lipi/atinom-lipi/TOOLCHAIN/bin/../lib/gcc/arm-elf/4.1.0/thumb/interwork/libgcc.a(_ne_df.o)
 .debug_info    0x000202c4      0x2aa /home/afrendy/projconto/atinom_lipi/atinom-lipi/TOOLCHAIN/bin/../lib/gcc/arm-elf/4.1.0/thumb/interwork/libgcc.a(_gt_df.o)
 .debug_info    0x0002056e      0x2aa /home/afrendy/projconto/atinom_lipi/atinom-lipi/TOOLCHAIN/bin/../lib/gcc/arm-elf/4.1.0/thumb/interwork/libgcc.a(_ge_df.o)
 .debug_info    0x00020818      0x2aa /home/afrendy/projconto/atinom_lipi/atinom-lipi/TOOLCHAIN/bin/../lib/gcc/arm-elf/4.1.0/thumb/interwork/libgcc.a(_lt_df.o)
 .debug_info    0x00020ac2      0x2aa /home/afrendy/projconto/atinom_lipi/atinom-lipi/TOOLCHAIN/bin/../lib/gcc/arm-elf/4.1.0/thumb/interwork/libgcc.a(_le_df.o)
 .debug_info    0x00020d6c      0x1bd /home/afrendy/projconto/atinom_lipi/atinom-lipi/TOOLCHAIN/bin/../lib/gcc/arm-elf/4.1.0/thumb/interwork/libgcc.a(_si_to_df.o)
 .debug_info    0x00020f29      0x2de /home/afrendy/projconto/atinom_lipi/atinom-lipi/TOOLCHAIN/bin/../lib/gcc/arm-elf/4.1.0/thumb/interwork/libgcc.a(_df_to_si.o)
 .debug_info    0x00021207      0x1d6 /home/afrendy/projconto/atinom_lipi/atinom-lipi/TOOLCHAIN/bin/../lib/gcc/arm-elf/4.1.0/thumb/interwork/libgcc.a(_make_df.o)
 .debug_info    0x000213dd      0x261 /home/afrendy/projconto/atinom_lipi/atinom-lipi/TOOLCHAIN/bin/../lib/gcc/arm-elf/4.1.0/thumb/interwork/libgcc.a(_df_to_sf.o)
 .debug_info    0x0002163e      0x164 /home/afrendy/projconto/atinom_lipi/atinom-lipi/TOOLCHAIN/bin/../lib/gcc/arm-elf/4.1.0/thumb/interwork/libgcc.a(_thenan_df.o)
 .debug_info    0x000217a2      0x301 /home/afrendy/projconto/atinom_lipi/atinom-lipi/TOOLCHAIN/bin/../lib/gcc/arm-elf/4.1.0/thumb/interwork/libgcc.a(_pack_sf.o)
 .debug_info    0x00021aa3      0x25a /home/afrendy/projconto/atinom_lipi/atinom-lipi/TOOLCHAIN/bin/../lib/gcc/arm-elf/4.1.0/thumb/interwork/libgcc.a(_unpack_sf.o)
 .debug_info    0x00021cfd      0x218 /home/afrendy/projconto/atinom_lipi/atinom-lipi/TOOLCHAIN/bin/../lib/gcc/arm-elf/4.1.0/thumb/interwork/libgcc.a(_fpcmp_parts_sf.o)
 .debug_info    0x00021f15      0x1d7 /home/afrendy/projconto/atinom_lipi/atinom-lipi/TOOLCHAIN/bin/../lib/gcc/arm-elf/4.1.0/thumb/interwork/libgcc.a(_make_sf.o)
 .debug_info    0x000220ec      0x323 /home/afrendy/projconto/atinom_lipi/atinom-lipi/TOOLCHAIN/bin/../lib/gcc/arm-elf/4.1.0/thumb/interwork/libgcc.a(_pack_df.o)
 .debug_info    0x0002240f      0x27a /home/afrendy/projconto/atinom_lipi/atinom-lipi/TOOLCHAIN/bin/../lib/gcc/arm-elf/4.1.0/thumb/interwork/libgcc.a(_unpack_df.o)
 .debug_info    0x00022689      0x218 /home/afrendy/projconto/atinom_lipi/atinom-lipi/TOOLCHAIN/bin/../lib/gcc/arm-elf/4.1.0/thumb/interwork/libgcc.a(_fpcmp_parts_df.o)
 .debug_info    0x000228a1      0x188 /home/afrendy/projconto/atinom_lipi/atinom-lipi/TOOLCHAIN/bin/../lib/gcc/arm-elf/4.1.0/../../../../arm-elf/lib/thumb/interwork/libm.a(w_pow.o)
 .debug_info    0x00022a29      0x704 /home/afrendy/projconto/atinom_lipi/atinom-lipi/TOOLCHAIN/bin/../lib/gcc/arm-elf/4.1.0/../../../../arm-elf/lib/thumb/interwork/libm.a(e_pow.o)
 .debug_info    0x0002312d      0x22f /home/afrendy/projconto/atinom_lipi/atinom-lipi/TOOLCHAIN/bin/../lib/gcc/arm-elf/4.1.0/../../../../arm-elf/lib/thumb/interwork/libm.a(e_sqrt.o)
 .debug_info    0x0002335c      0x162 /home/afrendy/projconto/atinom_lipi/atinom-lipi/TOOLCHAIN/bin/../lib/gcc/arm-elf/4.1.0/../../../../arm-elf/lib/thumb/interwork/libm.a(s_fabs.o)
 .debug_info    0x000234be      0x148 /home/afrendy/projconto/atinom_lipi/atinom-lipi/TOOLCHAIN/bin/../lib/gcc/arm-elf/4.1.0/../../../../arm-elf/lib/thumb/interwork/libm.a(s_finite.o)
 .debug_info    0x00023606       0xcc /home/afrendy/projconto/atinom_lipi/atinom-lipi/TOOLCHAIN/bin/../lib/gcc/arm-elf/4.1.0/../../../../arm-elf/lib/thumb/interwork/libm.a(s_lib_ver.o)
 .debug_info    0x000236d2      0x135 /home/afrendy/projconto/atinom_lipi/atinom-lipi/TOOLCHAIN/bin/../lib/gcc/arm-elf/4.1.0/../../../../arm-elf/lib/thumb/interwork/libm.a(s_matherr.o)
 .debug_info    0x00023807      0x22e /home/afrendy/projconto/atinom_lipi/atinom-lipi/TOOLCHAIN/bin/../lib/gcc/arm-elf/4.1.0/../../../../arm-elf/lib/thumb/interwork/libm.a(s_rint.o)
 .debug_info    0x00023a35      0x1e2 /home/afrendy/projconto/atinom_lipi/atinom-lipi/TOOLCHAIN/bin/../lib/gcc/arm-elf/4.1.0/../../../../arm-elf/lib/thumb/interwork/libm.a(s_scalbn.o)
 .debug_info    0x00023c17      0x195 /home/afrendy/projconto/atinom_lipi/atinom-lipi/TOOLCHAIN/bin/../lib/gcc/arm-elf/4.1.0/../../../../arm-elf/lib/thumb/interwork/libm.a(s_copysign.o)

.debug_line     0x00000000     0x81f4
 .debug_line    0x00000000       0xc4 /home/afrendy/projconto/atinom_lipi/atinom-lipi/TOOLCHAIN/bin/../lib/gcc/arm-elf/4.1.0/../../../../arm-elf/lib/thumb/interwork/libc.a(ctime.o)
 .debug_line    0x000000c4       0xd3 /home/afrendy/projconto/atinom_lipi/atinom-lipi/TOOLCHAIN/bin/../lib/gcc/arm-elf/4.1.0/../../../../arm-elf/lib/thumb/interwork/libc.a(div.o)
 .debug_line    0x00000197      0x16e /home/afrendy/projconto/atinom_lipi/atinom-lipi/TOOLCHAIN/bin/../lib/gcc/arm-elf/4.1.0/../../../../arm-elf/lib/thumb/interwork/libc.a(lcltime.o)
 .debug_line    0x00000305      0x116 /home/afrendy/projconto/atinom_lipi/atinom-lipi/TOOLCHAIN/bin/../lib/gcc/arm-elf/4.1.0/../../../../arm-elf/lib/thumb/interwork/libc.a(lcltime_r.o)
 .debug_line    0x0000041b      0x120 /home/afrendy/projconto/atinom_lipi/atinom-lipi/TOOLCHAIN/bin/../lib/gcc/arm-elf/4.1.0/../../../../arm-elf/lib/thumb/interwork/libc.a(malloc.o)
 .debug_line    0x0000053b      0x255 /home/afrendy/projconto/atinom_lipi/atinom-lipi/TOOLCHAIN/bin/../lib/gcc/arm-elf/4.1.0/../../../../arm-elf/lib/thumb/interwork/libc.a(mallocr.o)
 .debug_line    0x00000790       0xc9 /home/afrendy/projconto/atinom_lipi/atinom-lipi/TOOLCHAIN/bin/../lib/gcc/arm-elf/4.1.0/../../../../arm-elf/lib/thumb/interwork/libc.a(memcpy.o)
 .debug_line    0x00000859       0xd5 /home/afrendy/projconto/atinom_lipi/atinom-lipi/TOOLCHAIN/bin/../lib/gcc/arm-elf/4.1.0/../../../../arm-elf/lib/thumb/interwork/libc.a(memset.o)
 .debug_line    0x0000092e      0x200 /home/afrendy/projconto/atinom_lipi/atinom-lipi/TOOLCHAIN/bin/../lib/gcc/arm-elf/4.1.0/../../../../arm-elf/lib/thumb/interwork/libc.a(mktime.o)
 .debug_line    0x00000b2e      0x211 /home/afrendy/projconto/atinom_lipi/atinom-lipi/TOOLCHAIN/bin/../lib/gcc/arm-elf/4.1.0/../../../../arm-elf/lib/thumb/interwork/libc.a(mktm_r.o)
 .debug_line    0x00000d3f      0x116 /home/afrendy/projconto/atinom_lipi/atinom-lipi/TOOLCHAIN/bin/../lib/gcc/arm-elf/4.1.0/../../../../arm-elf/lib/thumb/interwork/libc.a(mlock.o)
 .debug_line    0x00000e55      0x119 /home/afrendy/projconto/atinom_lipi/atinom-lipi/TOOLCHAIN/bin/../lib/gcc/arm-elf/4.1.0/../../../../arm-elf/lib/thumb/interwork/libc.a(rand.o)
 .debug_line    0x00000f6e      0x1a7 /home/afrendy/projconto/atinom_lipi/atinom-lipi/TOOLCHAIN/bin/../lib/gcc/arm-elf/4.1.0/../../../../arm-elf/lib/thumb/interwork/libc.a(snprintf.o)
 .debug_line    0x00001115      0x1a6 /home/afrendy/projconto/atinom_lipi/atinom-lipi/TOOLCHAIN/bin/../lib/gcc/arm-elf/4.1.0/../../../../arm-elf/lib/thumb/interwork/libc.a(sprintf.o)
 .debug_line    0x000012bb      0x1a2 /home/afrendy/projconto/atinom_lipi/atinom-lipi/TOOLCHAIN/bin/../lib/gcc/arm-elf/4.1.0/../../../../arm-elf/lib/thumb/interwork/libc.a(sscanf.o)
 .debug_line    0x0000145d       0x87 /home/afrendy/projconto/atinom_lipi/atinom-lipi/TOOLCHAIN/bin/../lib/gcc/arm-elf/4.1.0/../../../../arm-elf/lib/thumb/interwork/libc.a(strcat.o)
 .debug_line    0x000014e4       0x8f /home/afrendy/projconto/atinom_lipi/atinom-lipi/TOOLCHAIN/bin/../lib/gcc/arm-elf/4.1.0/../../../../arm-elf/lib/thumb/interwork/libc.a(strchr.o)
 .debug_line    0x00001573       0x8c /home/afrendy/projconto/atinom_lipi/atinom-lipi/TOOLCHAIN/bin/../lib/gcc/arm-elf/4.1.0/../../../../arm-elf/lib/thumb/interwork/libc.a(strcmp.o)
 .debug_line    0x000015ff       0x85 /home/afrendy/projconto/atinom_lipi/atinom-lipi/TOOLCHAIN/bin/../lib/gcc/arm-elf/4.1.0/../../../../arm-elf/lib/thumb/interwork/libc.a(strcpy.o)
 .debug_line    0x00001684       0xb8 /home/afrendy/projconto/atinom_lipi/atinom-lipi/TOOLCHAIN/bin/../lib/gcc/arm-elf/4.1.0/../../../../arm-elf/lib/thumb/interwork/libc.a(strlen.o)
 .debug_line    0x0000173c       0xd7 /home/afrendy/projconto/atinom_lipi/atinom-lipi/TOOLCHAIN/bin/../lib/gcc/arm-elf/4.1.0/../../../../arm-elf/lib/thumb/interwork/libc.a(strncmp.o)
 .debug_line    0x00001813       0xd0 /home/afrendy/projconto/atinom_lipi/atinom-lipi/TOOLCHAIN/bin/../lib/gcc/arm-elf/4.1.0/../../../../arm-elf/lib/thumb/interwork/libc.a(strncpy.o)
 .debug_line    0x000018e3       0x7b /home/afrendy/projconto/atinom_lipi/atinom-lipi/TOOLCHAIN/bin/../lib/gcc/arm-elf/4.1.0/../../../../arm-elf/lib/thumb/interwork/libc.a(strrchr.o)
 .debug_line    0x0000195e       0x71 /home/afrendy/projconto/atinom_lipi/atinom-lipi/TOOLCHAIN/bin/../lib/gcc/arm-elf/4.1.0/../../../../arm-elf/lib/thumb/interwork/libc.a(tzlock.o)
 .debug_line    0x000019cf       0x61 /home/afrendy/projconto/atinom_lipi/atinom-lipi/TOOLCHAIN/bin/../lib/gcc/arm-elf/4.1.0/../../../../arm-elf/lib/thumb/interwork/libc.a(tzvars.o)
 .debug_line    0x00001a30      0x5a4 /home/afrendy/projconto/atinom_lipi/atinom-lipi/TOOLCHAIN/bin/../lib/gcc/arm-elf/4.1.0/../../../../arm-elf/lib/thumb/interwork/libc.a(vfprintf.o)
 .debug_line    0x00001fd4      0x44d /home/afrendy/projconto/atinom_lipi/atinom-lipi/TOOLCHAIN/bin/../lib/gcc/arm-elf/4.1.0/../../../../arm-elf/lib/thumb/interwork/libc.a(vfscanf.o)
 .debug_line    0x00002421      0x18f /home/afrendy/projconto/atinom_lipi/atinom-lipi/TOOLCHAIN/bin/../lib/gcc/arm-elf/4.1.0/../../../../arm-elf/lib/thumb/interwork/libc.a(vsprintf.o)
 .debug_line    0x000025b0      0x178 /home/afrendy/projconto/atinom_lipi/atinom-lipi/TOOLCHAIN/bin/../lib/gcc/arm-elf/4.1.0/../../../../arm-elf/lib/thumb/interwork/libc.a(wcrtomb.o)
 .debug_line    0x00002728      0x1a5 /home/afrendy/projconto/atinom_lipi/atinom-lipi/TOOLCHAIN/bin/../lib/gcc/arm-elf/4.1.0/../../../../arm-elf/lib/thumb/interwork/libc.a(wcsrtombs.o)
 .debug_line    0x000028cd      0x1fb /home/afrendy/projconto/atinom_lipi/atinom-lipi/TOOLCHAIN/bin/../lib/gcc/arm-elf/4.1.0/../../../../arm-elf/lib/thumb/interwork/libc.a(wctomb_r.o)
 .debug_line    0x00002ac8      0x185 /home/afrendy/projconto/atinom_lipi/atinom-lipi/TOOLCHAIN/bin/../lib/gcc/arm-elf/4.1.0/../../../../arm-elf/lib/thumb/interwork/libc.a(wsetup.o)
 .debug_line    0x00002c4d      0x163 /home/afrendy/projconto/atinom_lipi/atinom-lipi/TOOLCHAIN/bin/../lib/gcc/arm-elf/4.1.0/../../../../arm-elf/lib/thumb/interwork/libc.a(asctime.o)
 .debug_line    0x00002db0       0xd1 /home/afrendy/projconto/atinom_lipi/atinom-lipi/TOOLCHAIN/bin/../lib/gcc/arm-elf/4.1.0/../../../../arm-elf/lib/thumb/interwork/libc.a(asctime_r.o)
 .debug_line    0x00002e81       0x62 /home/afrendy/projconto/atinom_lipi/atinom-lipi/TOOLCHAIN/bin/../lib/gcc/arm-elf/4.1.0/../../../../arm-elf/lib/thumb/interwork/libc.a(ctype_.o)
 .debug_line    0x00002ee3      0x453 /home/afrendy/projconto/atinom_lipi/atinom-lipi/TOOLCHAIN/bin/../lib/gcc/arm-elf/4.1.0/../../../../arm-elf/lib/thumb/interwork/libc.a(dtoa.o)
 .debug_line    0x00003336      0x183 /home/afrendy/projconto/atinom_lipi/atinom-lipi/TOOLCHAIN/bin/../lib/gcc/arm-elf/4.1.0/../../../../arm-elf/lib/thumb/interwork/libc.a(fflush.o)
 .debug_line    0x000034b9      0x1e4 /home/afrendy/projconto/atinom_lipi/atinom-lipi/TOOLCHAIN/bin/../lib/gcc/arm-elf/4.1.0/../../../../arm-elf/lib/thumb/interwork/libc.a(findfp.o)
 .debug_line    0x0000369d      0x1ba /home/afrendy/projconto/atinom_lipi/atinom-lipi/TOOLCHAIN/bin/../lib/gcc/arm-elf/4.1.0/../../../../arm-elf/lib/thumb/interwork/libc.a(fread.o)
 .debug_line    0x00003857      0x185 /home/afrendy/projconto/atinom_lipi/atinom-lipi/TOOLCHAIN/bin/../lib/gcc/arm-elf/4.1.0/../../../../arm-elf/lib/thumb/interwork/libc.a(freer.o)
 .debug_line    0x000039dc      0x205 /home/afrendy/projconto/atinom_lipi/atinom-lipi/TOOLCHAIN/bin/../lib/gcc/arm-elf/4.1.0/../../../../arm-elf/lib/thumb/interwork/libc.a(fvwrite.o)
 .debug_line    0x00003be1      0x198 /home/afrendy/projconto/atinom_lipi/atinom-lipi/TOOLCHAIN/bin/../lib/gcc/arm-elf/4.1.0/../../../../arm-elf/lib/thumb/interwork/libc.a(fwalk.o)
 .debug_line    0x00003d79      0x115 /home/afrendy/projconto/atinom_lipi/atinom-lipi/TOOLCHAIN/bin/../lib/gcc/arm-elf/4.1.0/../../../../arm-elf/lib/thumb/interwork/libc.a(gettzinfo.o)
 .debug_line    0x00003e8e      0x104 /home/afrendy/projconto/atinom_lipi/atinom-lipi/TOOLCHAIN/bin/../lib/gcc/arm-elf/4.1.0/../../../../arm-elf/lib/thumb/interwork/libc.a(impure.o)
 .debug_line    0x00003f92      0x109 /home/afrendy/projconto/atinom_lipi/atinom-lipi/TOOLCHAIN/bin/../lib/gcc/arm-elf/4.1.0/../../../../arm-elf/lib/thumb/interwork/libc.a(iswspace.o)
 .debug_line    0x0000409b      0x187 /home/afrendy/projconto/atinom_lipi/atinom-lipi/TOOLCHAIN/bin/../lib/gcc/arm-elf/4.1.0/../../../../arm-elf/lib/thumb/interwork/libc.a(locale.o)
 .debug_line    0x00004222      0x1a0 /home/afrendy/projconto/atinom_lipi/atinom-lipi/TOOLCHAIN/bin/../lib/gcc/arm-elf/4.1.0/../../../../arm-elf/lib/thumb/interwork/libc.a(makebuf.o)
 .debug_line    0x000043c2      0x178 /home/afrendy/projconto/atinom_lipi/atinom-lipi/TOOLCHAIN/bin/../lib/gcc/arm-elf/4.1.0/../../../../arm-elf/lib/thumb/interwork/libc.a(mbrtowc.o)
 .debug_line    0x0000453a      0x178 /home/afrendy/projconto/atinom_lipi/atinom-lipi/TOOLCHAIN/bin/../lib/gcc/arm-elf/4.1.0/../../../../arm-elf/lib/thumb/interwork/libc.a(mbtowc_r.o)
 .debug_line    0x000046b2       0xde /home/afrendy/projconto/atinom_lipi/atinom-lipi/TOOLCHAIN/bin/../lib/gcc/arm-elf/4.1.0/../../../../arm-elf/lib/thumb/interwork/libc.a(memchr.o)
 .debug_line    0x00004790       0xd0 /home/afrendy/projconto/atinom_lipi/atinom-lipi/TOOLCHAIN/bin/../lib/gcc/arm-elf/4.1.0/../../../../arm-elf/lib/thumb/interwork/libc.a(memmove.o)
 .debug_line    0x00004860      0x3dd /home/afrendy/projconto/atinom_lipi/atinom-lipi/TOOLCHAIN/bin/../lib/gcc/arm-elf/4.1.0/../../../../arm-elf/lib/thumb/interwork/libc.a(mprec.o)
 .debug_line    0x00004c3d      0x1be /home/afrendy/projconto/atinom_lipi/atinom-lipi/TOOLCHAIN/bin/../lib/gcc/arm-elf/4.1.0/../../../../arm-elf/lib/thumb/interwork/libc.a(reallocr.o)
 .debug_line    0x00004dfb      0x1a9 /home/afrendy/projconto/atinom_lipi/atinom-lipi/TOOLCHAIN/bin/../lib/gcc/arm-elf/4.1.0/../../../../arm-elf/lib/thumb/interwork/libc.a(refill.o)
 .debug_line    0x00004fa4       0xcb /home/afrendy/projconto/atinom_lipi/atinom-lipi/TOOLCHAIN/bin/../lib/gcc/arm-elf/4.1.0/../../../../arm-elf/lib/thumb/interwork/libc.a(s_isinf.o)
 .debug_line    0x0000506f       0xcb /home/afrendy/projconto/atinom_lipi/atinom-lipi/TOOLCHAIN/bin/../lib/gcc/arm-elf/4.1.0/../../../../arm-elf/lib/thumb/interwork/libc.a(s_isnan.o)
 .debug_line    0x0000513a       0xec /home/afrendy/projconto/atinom_lipi/atinom-lipi/TOOLCHAIN/bin/../lib/gcc/arm-elf/4.1.0/../../../../arm-elf/lib/thumb/interwork/libc.a(sccl.o)
 .debug_line    0x00005226       0x73 /home/afrendy/projconto/atinom_lipi/atinom-lipi/TOOLCHAIN/bin/../lib/gcc/arm-elf/4.1.0/../../../../arm-elf/lib/thumb/interwork/libc.a(sf_nan.o)
 .debug_line    0x00005299      0x196 /home/afrendy/projconto/atinom_lipi/atinom-lipi/TOOLCHAIN/bin/../lib/gcc/arm-elf/4.1.0/../../../../arm-elf/lib/thumb/interwork/libc.a(stdio.o)
 .debug_line    0x0000542f      0x398 /home/afrendy/projconto/atinom_lipi/atinom-lipi/TOOLCHAIN/bin/../lib/gcc/arm-elf/4.1.0/../../../../arm-elf/lib/thumb/interwork/libc.a(strtod.o)
 .debug_line    0x000057c7      0x1c3 /home/afrendy/projconto/atinom_lipi/atinom-lipi/TOOLCHAIN/bin/../lib/gcc/arm-elf/4.1.0/../../../../arm-elf/lib/thumb/interwork/libc.a(strtol.o)
 .debug_line    0x0000598a      0x1b7 /home/afrendy/projconto/atinom_lipi/atinom-lipi/TOOLCHAIN/bin/../lib/gcc/arm-elf/4.1.0/../../../../arm-elf/lib/thumb/interwork/libc.a(strtoul.o)
 .debug_line    0x00005b41      0x2e9 /home/afrendy/projconto/atinom_lipi/atinom-lipi/TOOLCHAIN/bin/../lib/gcc/arm-elf/4.1.0/../../../../arm-elf/lib/thumb/interwork/libc.a(syscalls.o)
 .debug_line    0x00005e2a      0x1be /home/afrendy/projconto/atinom_lipi/atinom-lipi/TOOLCHAIN/bin/../lib/gcc/arm-elf/4.1.0/../../../../arm-elf/lib/thumb/interwork/libc.a(ungetc.o)
 .debug_line    0x00005fe8      0x11f /home/afrendy/projconto/atinom_lipi/atinom-lipi/TOOLCHAIN/bin/../lib/gcc/arm-elf/4.1.0/../../../../arm-elf/lib/thumb/interwork/libc.a(callocr.o)
 .debug_line    0x00006107      0x113 /home/afrendy/projconto/atinom_lipi/atinom-lipi/TOOLCHAIN/bin/../lib/gcc/arm-elf/4.1.0/../../../../arm-elf/lib/thumb/interwork/libc.a(errno.o)
 .debug_line    0x0000621a      0x184 /home/afrendy/projconto/atinom_lipi/atinom-lipi/TOOLCHAIN/bin/../lib/gcc/arm-elf/4.1.0/../../../../arm-elf/lib/thumb/interwork/libc.a(fclose.o)
 .debug_line    0x0000639e       0xd7 /home/afrendy/projconto/atinom_lipi/atinom-lipi/TOOLCHAIN/bin/../lib/gcc/arm-elf/4.1.0/../../../../arm-elf/lib/thumb/interwork/libc.a(s_nan.o)
 .debug_line    0x00006475       0x77 /home/afrendy/projconto/atinom_lipi/atinom-lipi/TOOLCHAIN/bin/../lib/gcc/arm-elf/4.1.0/thumb/interwork/libgcc.a(_udivsi3.o)
 .debug_line    0x000064ec       0x83 /home/afrendy/projconto/atinom_lipi/atinom-lipi/TOOLCHAIN/bin/../lib/gcc/arm-elf/4.1.0/thumb/interwork/libgcc.a(_divsi3.o)
 .debug_line    0x0000656f       0x6f /home/afrendy/projconto/atinom_lipi/atinom-lipi/TOOLCHAIN/bin/../lib/gcc/arm-elf/4.1.0/thumb/interwork/libgcc.a(_umodsi3.o)
 .debug_line    0x000065de       0x78 /home/afrendy/projconto/atinom_lipi/atinom-lipi/TOOLCHAIN/bin/../lib/gcc/arm-elf/4.1.0/thumb/interwork/libgcc.a(_modsi3.o)
 .debug_line    0x00006656       0x61 /home/afrendy/projconto/atinom_lipi/atinom-lipi/TOOLCHAIN/bin/../lib/gcc/arm-elf/4.1.0/thumb/interwork/libgcc.a(_dvmd_tls.o)
 .debug_line    0x000066b7       0x67 /home/afrendy/projconto/atinom_lipi/atinom-lipi/TOOLCHAIN/bin/../lib/gcc/arm-elf/4.1.0/thumb/interwork/libgcc.a(_muldi3.o)
 .debug_line    0x0000671e       0x65 /home/afrendy/projconto/atinom_lipi/atinom-lipi/TOOLCHAIN/bin/../lib/gcc/arm-elf/4.1.0/thumb/interwork/libgcc.a(_fixunsdfsi.o)
 .debug_line    0x00006783      0x100 /home/afrendy/projconto/atinom_lipi/atinom-lipi/TOOLCHAIN/bin/../lib/gcc/arm-elf/4.1.0/thumb/interwork/libgcc.a(_addsub_sf.o)
 .debug_line    0x00006883       0xba /home/afrendy/projconto/atinom_lipi/atinom-lipi/TOOLCHAIN/bin/../lib/gcc/arm-elf/4.1.0/thumb/interwork/libgcc.a(_div_sf.o)
 .debug_line    0x0000693d       0x74 /home/afrendy/projconto/atinom_lipi/atinom-lipi/TOOLCHAIN/bin/../lib/gcc/arm-elf/4.1.0/thumb/interwork/libgcc.a(_gt_sf.o)
 .debug_line    0x000069b1       0x68 /home/afrendy/projconto/atinom_lipi/atinom-lipi/TOOLCHAIN/bin/../lib/gcc/arm-elf/4.1.0/thumb/interwork/libgcc.a(_sf_to_df.o)
 .debug_line    0x00006a19       0x54 /home/afrendy/projconto/atinom_lipi/atinom-lipi/TOOLCHAIN/bin/../lib/gcc/arm-elf/4.1.0/thumb/interwork/libgcc.a(_thenan_sf.o)
 .debug_line    0x00006a6d      0x10a /home/afrendy/projconto/atinom_lipi/atinom-lipi/TOOLCHAIN/bin/../lib/gcc/arm-elf/4.1.0/thumb/interwork/libgcc.a(_addsub_df.o)
 .debug_line    0x00006b77       0xe5 /home/afrendy/projconto/atinom_lipi/atinom-lipi/TOOLCHAIN/bin/../lib/gcc/arm-elf/4.1.0/thumb/interwork/libgcc.a(_mul_df.o)
 .debug_line    0x00006c5c       0xca /home/afrendy/projconto/atinom_lipi/atinom-lipi/TOOLCHAIN/bin/../lib/gcc/arm-elf/4.1.0/thumb/interwork/libgcc.a(_div_df.o)
 .debug_line    0x00006d26       0x75 /home/afrendy/projconto/atinom_lipi/atinom-lipi/TOOLCHAIN/bin/../lib/gcc/arm-elf/4.1.0/thumb/interwork/libgcc.a(_eq_df.o)
 .debug_line    0x00006d9b       0x75 /home/afrendy/projconto/atinom_lipi/atinom-lipi/TOOLCHAIN/bin/../lib/gcc/arm-elf/4.1.0/thumb/interwork/libgcc.a(_ne_df.o)
 .debug_line    0x00006e10       0x75 /home/afrendy/projconto/atinom_lipi/atinom-lipi/TOOLCHAIN/bin/../lib/gcc/arm-elf/4.1.0/thumb/interwork/libgcc.a(_gt_df.o)
 .debug_line    0x00006e85       0x75 /home/afrendy/projconto/atinom_lipi/atinom-lipi/TOOLCHAIN/bin/../lib/gcc/arm-elf/4.1.0/thumb/interwork/libgcc.a(_ge_df.o)
 .debug_line    0x00006efa       0x75 /home/afrendy/projconto/atinom_lipi/atinom-lipi/TOOLCHAIN/bin/../lib/gcc/arm-elf/4.1.0/thumb/interwork/libgcc.a(_lt_df.o)
 .debug_line    0x00006f6f       0x75 /home/afrendy/projconto/atinom_lipi/atinom-lipi/TOOLCHAIN/bin/../lib/gcc/arm-elf/4.1.0/thumb/interwork/libgcc.a(_le_df.o)
 .debug_line    0x00006fe4       0x7e /home/afrendy/projconto/atinom_lipi/atinom-lipi/TOOLCHAIN/bin/../lib/gcc/arm-elf/4.1.0/thumb/interwork/libgcc.a(_si_to_df.o)
 .debug_line    0x00007062       0x88 /home/afrendy/projconto/atinom_lipi/atinom-lipi/TOOLCHAIN/bin/../lib/gcc/arm-elf/4.1.0/thumb/interwork/libgcc.a(_df_to_si.o)
 .debug_line    0x000070ea       0x6d /home/afrendy/projconto/atinom_lipi/atinom-lipi/TOOLCHAIN/bin/../lib/gcc/arm-elf/4.1.0/thumb/interwork/libgcc.a(_make_df.o)
 .debug_line    0x00007157       0x6d /home/afrendy/projconto/atinom_lipi/atinom-lipi/TOOLCHAIN/bin/../lib/gcc/arm-elf/4.1.0/thumb/interwork/libgcc.a(_df_to_sf.o)
 .debug_line    0x000071c4       0x54 /home/afrendy/projconto/atinom_lipi/atinom-lipi/TOOLCHAIN/bin/../lib/gcc/arm-elf/4.1.0/thumb/interwork/libgcc.a(_thenan_df.o)
 .debug_line    0x00007218       0xb3 /home/afrendy/projconto/atinom_lipi/atinom-lipi/TOOLCHAIN/bin/../lib/gcc/arm-elf/4.1.0/thumb/interwork/libgcc.a(_pack_sf.o)
 .debug_line    0x000072cb       0x8f /home/afrendy/projconto/atinom_lipi/atinom-lipi/TOOLCHAIN/bin/../lib/gcc/arm-elf/4.1.0/thumb/interwork/libgcc.a(_unpack_sf.o)
 .debug_line    0x0000735a       0xa3 /home/afrendy/projconto/atinom_lipi/atinom-lipi/TOOLCHAIN/bin/../lib/gcc/arm-elf/4.1.0/thumb/interwork/libgcc.a(_fpcmp_parts_sf.o)
 .debug_line    0x000073fd       0x6b /home/afrendy/projconto/atinom_lipi/atinom-lipi/TOOLCHAIN/bin/../lib/gcc/arm-elf/4.1.0/thumb/interwork/libgcc.a(_make_sf.o)
 .debug_line    0x00007468       0xcc /home/afrendy/projconto/atinom_lipi/atinom-lipi/TOOLCHAIN/bin/../lib/gcc/arm-elf/4.1.0/thumb/interwork/libgcc.a(_pack_df.o)
 .debug_line    0x00007534       0x99 /home/afrendy/projconto/atinom_lipi/atinom-lipi/TOOLCHAIN/bin/../lib/gcc/arm-elf/4.1.0/thumb/interwork/libgcc.a(_unpack_df.o)
 .debug_line    0x000075cd       0xa6 /home/afrendy/projconto/atinom_lipi/atinom-lipi/TOOLCHAIN/bin/../lib/gcc/arm-elf/4.1.0/thumb/interwork/libgcc.a(_fpcmp_parts_df.o)
 .debug_line    0x00007673      0x15b /home/afrendy/projconto/atinom_lipi/atinom-lipi/TOOLCHAIN/bin/../lib/gcc/arm-elf/4.1.0/../../../../arm-elf/lib/thumb/interwork/libm.a(w_pow.o)
 .debug_line    0x000077ce      0x24b /home/afrendy/projconto/atinom_lipi/atinom-lipi/TOOLCHAIN/bin/../lib/gcc/arm-elf/4.1.0/../../../../arm-elf/lib/thumb/interwork/libm.a(e_pow.o)
 .debug_line    0x00007a19      0x18a /home/afrendy/projconto/atinom_lipi/atinom-lipi/TOOLCHAIN/bin/../lib/gcc/arm-elf/4.1.0/../../../../arm-elf/lib/thumb/interwork/libm.a(e_sqrt.o)
 .debug_line    0x00007ba3      0x11d /home/afrendy/projconto/atinom_lipi/atinom-lipi/TOOLCHAIN/bin/../lib/gcc/arm-elf/4.1.0/../../../../arm-elf/lib/thumb/interwork/libm.a(s_fabs.o)
 .debug_line    0x00007cc0       0xda /home/afrendy/projconto/atinom_lipi/atinom-lipi/TOOLCHAIN/bin/../lib/gcc/arm-elf/4.1.0/../../../../arm-elf/lib/thumb/interwork/libm.a(s_finite.o)
 .debug_line    0x00007d9a       0xb4 /home/afrendy/projconto/atinom_lipi/atinom-lipi/TOOLCHAIN/bin/../lib/gcc/arm-elf/4.1.0/../../../../arm-elf/lib/thumb/interwork/libm.a(s_lib_ver.o)
 .debug_line    0x00007e4e       0xc5 /home/afrendy/projconto/atinom_lipi/atinom-lipi/TOOLCHAIN/bin/../lib/gcc/arm-elf/4.1.0/../../../../arm-elf/lib/thumb/interwork/libm.a(s_matherr.o)
 .debug_line    0x00007f13      0x109 /home/afrendy/projconto/atinom_lipi/atinom-lipi/TOOLCHAIN/bin/../lib/gcc/arm-elf/4.1.0/../../../../arm-elf/lib/thumb/interwork/libm.a(s_rint.o)
 .debug_line    0x0000801c       0xf7 /home/afrendy/projconto/atinom_lipi/atinom-lipi/TOOLCHAIN/bin/../lib/gcc/arm-elf/4.1.0/../../../../arm-elf/lib/thumb/interwork/libm.a(s_scalbn.o)
 .debug_line    0x00008113       0xe1 /home/afrendy/projconto/atinom_lipi/atinom-lipi/TOOLCHAIN/bin/../lib/gcc/arm-elf/4.1.0/../../../../arm-elf/lib/thumb/interwork/libm.a(s_copysign.o)

.debug_frame    0x00000000     0x1fb4
 .debug_frame   0x00000000       0x28 /home/afrendy/projconto/atinom_lipi/atinom-lipi/TOOLCHAIN/bin/../lib/gcc/arm-elf/4.1.0/../../../../arm-elf/lib/thumb/interwork/libc.a(ctime.o)
 .debug_frame   0x00000028       0x30 /home/afrendy/projconto/atinom_lipi/atinom-lipi/TOOLCHAIN/bin/../lib/gcc/arm-elf/4.1.0/../../../../arm-elf/lib/thumb/interwork/libc.a(div.o)
 .debug_frame   0x00000058       0x28 /home/afrendy/projconto/atinom_lipi/atinom-lipi/TOOLCHAIN/bin/../lib/gcc/arm-elf/4.1.0/../../../../arm-elf/lib/thumb/interwork/libc.a(lcltime.o)
 .debug_frame   0x00000080       0x28 /home/afrendy/projconto/atinom_lipi/atinom-lipi/TOOLCHAIN/bin/../lib/gcc/arm-elf/4.1.0/../../../../arm-elf/lib/thumb/interwork/libc.a(lcltime_r.o)
 .debug_frame   0x000000a8       0x40 /home/afrendy/projconto/atinom_lipi/atinom-lipi/TOOLCHAIN/bin/../lib/gcc/arm-elf/4.1.0/../../../../arm-elf/lib/thumb/interwork/libc.a(malloc.o)
 .debug_frame   0x000000e8       0x3c /home/afrendy/projconto/atinom_lipi/atinom-lipi/TOOLCHAIN/bin/../lib/gcc/arm-elf/4.1.0/../../../../arm-elf/lib/thumb/interwork/libc.a(mallocr.o)
 .debug_frame   0x00000124       0x28 /home/afrendy/projconto/atinom_lipi/atinom-lipi/TOOLCHAIN/bin/../lib/gcc/arm-elf/4.1.0/../../../../arm-elf/lib/thumb/interwork/libc.a(memcpy.o)
 .debug_frame   0x0000014c       0x2c /home/afrendy/projconto/atinom_lipi/atinom-lipi/TOOLCHAIN/bin/../lib/gcc/arm-elf/4.1.0/../../../../arm-elf/lib/thumb/interwork/libc.a(memset.o)
 .debug_frame   0x00000178       0x60 /home/afrendy/projconto/atinom_lipi/atinom-lipi/TOOLCHAIN/bin/../lib/gcc/arm-elf/4.1.0/../../../../arm-elf/lib/thumb/interwork/libc.a(mktime.o)
 .debug_frame   0x000001d8       0x68 /home/afrendy/projconto/atinom_lipi/atinom-lipi/TOOLCHAIN/bin/../lib/gcc/arm-elf/4.1.0/../../../../arm-elf/lib/thumb/interwork/libc.a(mktm_r.o)
 .debug_frame   0x00000240       0x30 /home/afrendy/projconto/atinom_lipi/atinom-lipi/TOOLCHAIN/bin/../lib/gcc/arm-elf/4.1.0/../../../../arm-elf/lib/thumb/interwork/libc.a(mlock.o)
 .debug_frame   0x00000270       0x3c /home/afrendy/projconto/atinom_lipi/atinom-lipi/TOOLCHAIN/bin/../lib/gcc/arm-elf/4.1.0/../../../../arm-elf/lib/thumb/interwork/libc.a(rand.o)
 .debug_frame   0x000002ac       0x50 /home/afrendy/projconto/atinom_lipi/atinom-lipi/TOOLCHAIN/bin/../lib/gcc/arm-elf/4.1.0/../../../../arm-elf/lib/thumb/interwork/libc.a(snprintf.o)
 .debug_frame   0x000002fc       0x50 /home/afrendy/projconto/atinom_lipi/atinom-lipi/TOOLCHAIN/bin/../lib/gcc/arm-elf/4.1.0/../../../../arm-elf/lib/thumb/interwork/libc.a(sprintf.o)
 .debug_frame   0x0000034c       0x6c /home/afrendy/projconto/atinom_lipi/atinom-lipi/TOOLCHAIN/bin/../lib/gcc/arm-elf/4.1.0/../../../../arm-elf/lib/thumb/interwork/libc.a(sscanf.o)
 .debug_frame   0x000003b8       0x2c /home/afrendy/projconto/atinom_lipi/atinom-lipi/TOOLCHAIN/bin/../lib/gcc/arm-elf/4.1.0/../../../../arm-elf/lib/thumb/interwork/libc.a(strcat.o)
 .debug_frame   0x000003e4       0x2c /home/afrendy/projconto/atinom_lipi/atinom-lipi/TOOLCHAIN/bin/../lib/gcc/arm-elf/4.1.0/../../../../arm-elf/lib/thumb/interwork/libc.a(strchr.o)
 .debug_frame   0x00000410       0x2c /home/afrendy/projconto/atinom_lipi/atinom-lipi/TOOLCHAIN/bin/../lib/gcc/arm-elf/4.1.0/../../../../arm-elf/lib/thumb/interwork/libc.a(strcmp.o)
 .debug_frame   0x0000043c       0x2c /home/afrendy/projconto/atinom_lipi/atinom-lipi/TOOLCHAIN/bin/../lib/gcc/arm-elf/4.1.0/../../../../arm-elf/lib/thumb/interwork/libc.a(strcpy.o)
 .debug_frame   0x00000468       0x2c /home/afrendy/projconto/atinom_lipi/atinom-lipi/TOOLCHAIN/bin/../lib/gcc/arm-elf/4.1.0/../../../../arm-elf/lib/thumb/interwork/libc.a(strlen.o)
 .debug_frame   0x00000494       0x2c /home/afrendy/projconto/atinom_lipi/atinom-lipi/TOOLCHAIN/bin/../lib/gcc/arm-elf/4.1.0/../../../../arm-elf/lib/thumb/interwork/libc.a(strncmp.o)
 .debug_frame   0x000004c0       0x30 /home/afrendy/projconto/atinom_lipi/atinom-lipi/TOOLCHAIN/bin/../lib/gcc/arm-elf/4.1.0/../../../../arm-elf/lib/thumb/interwork/libc.a(strncpy.o)
 .debug_frame   0x000004f0       0x2c /home/afrendy/projconto/atinom_lipi/atinom-lipi/TOOLCHAIN/bin/../lib/gcc/arm-elf/4.1.0/../../../../arm-elf/lib/thumb/interwork/libc.a(strrchr.o)
 .debug_frame   0x0000051c       0x30 /home/afrendy/projconto/atinom_lipi/atinom-lipi/TOOLCHAIN/bin/../lib/gcc/arm-elf/4.1.0/../../../../arm-elf/lib/thumb/interwork/libc.a(tzlock.o)
 .debug_frame   0x0000054c       0x70 /home/afrendy/projconto/atinom_lipi/atinom-lipi/TOOLCHAIN/bin/../lib/gcc/arm-elf/4.1.0/../../../../arm-elf/lib/thumb/interwork/libc.a(vfprintf.o)
 .debug_frame   0x000005bc       0x98 /home/afrendy/projconto/atinom_lipi/atinom-lipi/TOOLCHAIN/bin/../lib/gcc/arm-elf/4.1.0/../../../../arm-elf/lib/thumb/interwork/libc.a(vfscanf.o)
 .debug_frame   0x00000654       0x48 /home/afrendy/projconto/atinom_lipi/atinom-lipi/TOOLCHAIN/bin/../lib/gcc/arm-elf/4.1.0/../../../../arm-elf/lib/thumb/interwork/libc.a(vsprintf.o)
 .debug_frame   0x0000069c       0x48 /home/afrendy/projconto/atinom_lipi/atinom-lipi/TOOLCHAIN/bin/../lib/gcc/arm-elf/4.1.0/../../../../arm-elf/lib/thumb/interwork/libc.a(wcrtomb.o)
 .debug_frame   0x000006e4       0x5c /home/afrendy/projconto/atinom_lipi/atinom-lipi/TOOLCHAIN/bin/../lib/gcc/arm-elf/4.1.0/../../../../arm-elf/lib/thumb/interwork/libc.a(wcsrtombs.o)
 .debug_frame   0x00000740       0x30 /home/afrendy/projconto/atinom_lipi/atinom-lipi/TOOLCHAIN/bin/../lib/gcc/arm-elf/4.1.0/../../../../arm-elf/lib/thumb/interwork/libc.a(wctomb_r.o)
 .debug_frame   0x00000770       0x2c /home/afrendy/projconto/atinom_lipi/atinom-lipi/TOOLCHAIN/bin/../lib/gcc/arm-elf/4.1.0/../../../../arm-elf/lib/thumb/interwork/libc.a(wsetup.o)
 .debug_frame   0x0000079c       0x28 /home/afrendy/projconto/atinom_lipi/atinom-lipi/TOOLCHAIN/bin/../lib/gcc/arm-elf/4.1.0/../../../../arm-elf/lib/thumb/interwork/libc.a(asctime.o)
 .debug_frame   0x000007c4       0x2c /home/afrendy/projconto/atinom_lipi/atinom-lipi/TOOLCHAIN/bin/../lib/gcc/arm-elf/4.1.0/../../../../arm-elf/lib/thumb/interwork/libc.a(asctime_r.o)
 .debug_frame   0x000007f0       0x68 /home/afrendy/projconto/atinom_lipi/atinom-lipi/TOOLCHAIN/bin/../lib/gcc/arm-elf/4.1.0/../../../../arm-elf/lib/thumb/interwork/libc.a(dtoa.o)
 .debug_frame   0x00000858       0x2c /home/afrendy/projconto/atinom_lipi/atinom-lipi/TOOLCHAIN/bin/../lib/gcc/arm-elf/4.1.0/../../../../arm-elf/lib/thumb/interwork/libc.a(fflush.o)
 .debug_frame   0x00000884      0x130 /home/afrendy/projconto/atinom_lipi/atinom-lipi/TOOLCHAIN/bin/../lib/gcc/arm-elf/4.1.0/../../../../arm-elf/lib/thumb/interwork/libc.a(findfp.o)
 .debug_frame   0x000009b4       0x3c /home/afrendy/projconto/atinom_lipi/atinom-lipi/TOOLCHAIN/bin/../lib/gcc/arm-elf/4.1.0/../../../../arm-elf/lib/thumb/interwork/libc.a(fread.o)
 .debug_frame   0x000009f0       0x54 /home/afrendy/projconto/atinom_lipi/atinom-lipi/TOOLCHAIN/bin/../lib/gcc/arm-elf/4.1.0/../../../../arm-elf/lib/thumb/interwork/libc.a(freer.o)
 .debug_frame   0x00000a44       0x3c /home/afrendy/projconto/atinom_lipi/atinom-lipi/TOOLCHAIN/bin/../lib/gcc/arm-elf/4.1.0/../../../../arm-elf/lib/thumb/interwork/libc.a(fvwrite.o)
 .debug_frame   0x00000a80       0x5c /home/afrendy/projconto/atinom_lipi/atinom-lipi/TOOLCHAIN/bin/../lib/gcc/arm-elf/4.1.0/../../../../arm-elf/lib/thumb/interwork/libc.a(fwalk.o)
 .debug_frame   0x00000adc       0x20 /home/afrendy/projconto/atinom_lipi/atinom-lipi/TOOLCHAIN/bin/../lib/gcc/arm-elf/4.1.0/../../../../arm-elf/lib/thumb/interwork/libc.a(gettzinfo.o)
 .debug_frame   0x00000afc       0x20 /home/afrendy/projconto/atinom_lipi/atinom-lipi/TOOLCHAIN/bin/../lib/gcc/arm-elf/4.1.0/../../../../arm-elf/lib/thumb/interwork/libc.a(iswspace.o)
 .debug_frame   0x00000b1c       0x80 /home/afrendy/projconto/atinom_lipi/atinom-lipi/TOOLCHAIN/bin/../lib/gcc/arm-elf/4.1.0/../../../../arm-elf/lib/thumb/interwork/libc.a(locale.o)
 .debug_frame   0x00000b9c       0x30 /home/afrendy/projconto/atinom_lipi/atinom-lipi/TOOLCHAIN/bin/../lib/gcc/arm-elf/4.1.0/../../../../arm-elf/lib/thumb/interwork/libc.a(makebuf.o)
 .debug_frame   0x00000bcc       0x4c /home/afrendy/projconto/atinom_lipi/atinom-lipi/TOOLCHAIN/bin/../lib/gcc/arm-elf/4.1.0/../../../../arm-elf/lib/thumb/interwork/libc.a(mbrtowc.o)
 .debug_frame   0x00000c18       0x24 /home/afrendy/projconto/atinom_lipi/atinom-lipi/TOOLCHAIN/bin/../lib/gcc/arm-elf/4.1.0/../../../../arm-elf/lib/thumb/interwork/libc.a(mbtowc_r.o)
 .debug_frame   0x00000c3c       0x38 /home/afrendy/projconto/atinom_lipi/atinom-lipi/TOOLCHAIN/bin/../lib/gcc/arm-elf/4.1.0/../../../../arm-elf/lib/thumb/interwork/libc.a(memchr.o)
 .debug_frame   0x00000c74       0x2c /home/afrendy/projconto/atinom_lipi/atinom-lipi/TOOLCHAIN/bin/../lib/gcc/arm-elf/4.1.0/../../../../arm-elf/lib/thumb/interwork/libc.a(memmove.o)
 .debug_frame   0x00000ca0      0x224 /home/afrendy/projconto/atinom_lipi/atinom-lipi/TOOLCHAIN/bin/../lib/gcc/arm-elf/4.1.0/../../../../arm-elf/lib/thumb/interwork/libc.a(mprec.o)
 .debug_frame   0x00000ec4       0x3c /home/afrendy/projconto/atinom_lipi/atinom-lipi/TOOLCHAIN/bin/../lib/gcc/arm-elf/4.1.0/../../../../arm-elf/lib/thumb/interwork/libc.a(reallocr.o)
 .debug_frame   0x00000f00       0x44 /home/afrendy/projconto/atinom_lipi/atinom-lipi/TOOLCHAIN/bin/../lib/gcc/arm-elf/4.1.0/../../../../arm-elf/lib/thumb/interwork/libc.a(refill.o)
 .debug_frame   0x00000f44       0x20 /home/afrendy/projconto/atinom_lipi/atinom-lipi/TOOLCHAIN/bin/../lib/gcc/arm-elf/4.1.0/../../../../arm-elf/lib/thumb/interwork/libc.a(s_isinf.o)
 .debug_frame   0x00000f64       0x20 /home/afrendy/projconto/atinom_lipi/atinom-lipi/TOOLCHAIN/bin/../lib/gcc/arm-elf/4.1.0/../../../../arm-elf/lib/thumb/interwork/libc.a(s_isnan.o)
 .debug_frame   0x00000f84       0x2c /home/afrendy/projconto/atinom_lipi/atinom-lipi/TOOLCHAIN/bin/../lib/gcc/arm-elf/4.1.0/../../../../arm-elf/lib/thumb/interwork/libc.a(sccl.o)
 .debug_frame   0x00000fb0       0x20 /home/afrendy/projconto/atinom_lipi/atinom-lipi/TOOLCHAIN/bin/../lib/gcc/arm-elf/4.1.0/../../../../arm-elf/lib/thumb/interwork/libc.a(sf_nan.o)
 .debug_frame   0x00000fd0       0x80 /home/afrendy/projconto/atinom_lipi/atinom-lipi/TOOLCHAIN/bin/../lib/gcc/arm-elf/4.1.0/../../../../arm-elf/lib/thumb/interwork/libc.a(stdio.o)
 .debug_frame   0x00001050       0x70 /home/afrendy/projconto/atinom_lipi/atinom-lipi/TOOLCHAIN/bin/../lib/gcc/arm-elf/4.1.0/../../../../arm-elf/lib/thumb/interwork/libc.a(strtod.o)
 .debug_frame   0x000010c0       0x58 /home/afrendy/projconto/atinom_lipi/atinom-lipi/TOOLCHAIN/bin/../lib/gcc/arm-elf/4.1.0/../../../../arm-elf/lib/thumb/interwork/libc.a(strtol.o)
 .debug_frame   0x00001118       0x58 /home/afrendy/projconto/atinom_lipi/atinom-lipi/TOOLCHAIN/bin/../lib/gcc/arm-elf/4.1.0/../../../../arm-elf/lib/thumb/interwork/libc.a(strtoul.o)
 .debug_frame   0x00001170      0x30c /home/afrendy/projconto/atinom_lipi/atinom-lipi/TOOLCHAIN/bin/../lib/gcc/arm-elf/4.1.0/../../../../arm-elf/lib/thumb/interwork/libc.a(syscalls.o)
 .debug_frame   0x0000147c       0x6c /home/afrendy/projconto/atinom_lipi/atinom-lipi/TOOLCHAIN/bin/../lib/gcc/arm-elf/4.1.0/../../../../arm-elf/lib/thumb/interwork/libc.a(ungetc.o)
 .debug_frame   0x000014e8       0x28 /home/afrendy/projconto/atinom_lipi/atinom-lipi/TOOLCHAIN/bin/../lib/gcc/arm-elf/4.1.0/../../../../arm-elf/lib/thumb/interwork/libc.a(callocr.o)
 .debug_frame   0x00001510       0x20 /home/afrendy/projconto/atinom_lipi/atinom-lipi/TOOLCHAIN/bin/../lib/gcc/arm-elf/4.1.0/../../../../arm-elf/lib/thumb/interwork/libc.a(errno.o)
 .debug_frame   0x00001530       0x44 /home/afrendy/projconto/atinom_lipi/atinom-lipi/TOOLCHAIN/bin/../lib/gcc/arm-elf/4.1.0/../../../../arm-elf/lib/thumb/interwork/libc.a(fclose.o)
 .debug_frame   0x00001574       0x28 /home/afrendy/projconto/atinom_lipi/atinom-lipi/TOOLCHAIN/bin/../lib/gcc/arm-elf/4.1.0/../../../../arm-elf/lib/thumb/interwork/libc.a(s_nan.o)
 .debug_frame   0x0000159c       0x28 /home/afrendy/projconto/atinom_lipi/atinom-lipi/TOOLCHAIN/bin/../lib/gcc/arm-elf/4.1.0/thumb/interwork/libgcc.a(_udivsi3.o)
 .debug_frame   0x000015c4       0x28 /home/afrendy/projconto/atinom_lipi/atinom-lipi/TOOLCHAIN/bin/../lib/gcc/arm-elf/4.1.0/thumb/interwork/libgcc.a(_divsi3.o)
 .debug_frame   0x000015ec       0x28 /home/afrendy/projconto/atinom_lipi/atinom-lipi/TOOLCHAIN/bin/../lib/gcc/arm-elf/4.1.0/thumb/interwork/libgcc.a(_umodsi3.o)
 .debug_frame   0x00001614       0x28 /home/afrendy/projconto/atinom_lipi/atinom-lipi/TOOLCHAIN/bin/../lib/gcc/arm-elf/4.1.0/thumb/interwork/libgcc.a(_modsi3.o)
 .debug_frame   0x0000163c       0x38 /home/afrendy/projconto/atinom_lipi/atinom-lipi/TOOLCHAIN/bin/../lib/gcc/arm-elf/4.1.0/thumb/interwork/libgcc.a(_muldi3.o)
 .debug_frame   0x00001674       0x2c /home/afrendy/projconto/atinom_lipi/atinom-lipi/TOOLCHAIN/bin/../lib/gcc/arm-elf/4.1.0/thumb/interwork/libgcc.a(_fixunsdfsi.o)
 .debug_frame   0x000016a0       0xb0 /home/afrendy/projconto/atinom_lipi/atinom-lipi/TOOLCHAIN/bin/../lib/gcc/arm-elf/4.1.0/thumb/interwork/libgcc.a(_addsub_sf.o)
 .debug_frame   0x00001750       0x70 /home/afrendy/projconto/atinom_lipi/atinom-lipi/TOOLCHAIN/bin/../lib/gcc/arm-elf/4.1.0/thumb/interwork/libgcc.a(_div_sf.o)
 .debug_frame   0x000017c0       0x3c /home/afrendy/projconto/atinom_lipi/atinom-lipi/TOOLCHAIN/bin/../lib/gcc/arm-elf/4.1.0/thumb/interwork/libgcc.a(_gt_sf.o)
 .debug_frame   0x000017fc       0x2c /home/afrendy/projconto/atinom_lipi/atinom-lipi/TOOLCHAIN/bin/../lib/gcc/arm-elf/4.1.0/thumb/interwork/libgcc.a(_sf_to_df.o)
 .debug_frame   0x00001828       0xb4 /home/afrendy/projconto/atinom_lipi/atinom-lipi/TOOLCHAIN/bin/../lib/gcc/arm-elf/4.1.0/thumb/interwork/libgcc.a(_addsub_df.o)
 .debug_frame   0x000018dc       0x74 /home/afrendy/projconto/atinom_lipi/atinom-lipi/TOOLCHAIN/bin/../lib/gcc/arm-elf/4.1.0/thumb/interwork/libgcc.a(_mul_df.o)
 .debug_frame   0x00001950       0x70 /home/afrendy/projconto/atinom_lipi/atinom-lipi/TOOLCHAIN/bin/../lib/gcc/arm-elf/4.1.0/thumb/interwork/libgcc.a(_div_df.o)
 .debug_frame   0x000019c0       0x3c /home/afrendy/projconto/atinom_lipi/atinom-lipi/TOOLCHAIN/bin/../lib/gcc/arm-elf/4.1.0/thumb/interwork/libgcc.a(_eq_df.o)
 .debug_frame   0x000019fc       0x3c /home/afrendy/projconto/atinom_lipi/atinom-lipi/TOOLCHAIN/bin/../lib/gcc/arm-elf/4.1.0/thumb/interwork/libgcc.a(_ne_df.o)
 .debug_frame   0x00001a38       0x3c /home/afrendy/projconto/atinom_lipi/atinom-lipi/TOOLCHAIN/bin/../lib/gcc/arm-elf/4.1.0/thumb/interwork/libgcc.a(_gt_df.o)
 .debug_frame   0x00001a74       0x3c /home/afrendy/projconto/atinom_lipi/atinom-lipi/TOOLCHAIN/bin/../lib/gcc/arm-elf/4.1.0/thumb/interwork/libgcc.a(_ge_df.o)
 .debug_frame   0x00001ab0       0x3c /home/afrendy/projconto/atinom_lipi/atinom-lipi/TOOLCHAIN/bin/../lib/gcc/arm-elf/4.1.0/thumb/interwork/libgcc.a(_lt_df.o)
 .debug_frame   0x00001aec       0x3c /home/afrendy/projconto/atinom_lipi/atinom-lipi/TOOLCHAIN/bin/../lib/gcc/arm-elf/4.1.0/thumb/interwork/libgcc.a(_le_df.o)
 .debug_frame   0x00001b28       0x2c /home/afrendy/projconto/atinom_lipi/atinom-lipi/TOOLCHAIN/bin/../lib/gcc/arm-elf/4.1.0/thumb/interwork/libgcc.a(_si_to_df.o)
 .debug_frame   0x00001b54       0x60 /home/afrendy/projconto/atinom_lipi/atinom-lipi/TOOLCHAIN/bin/../lib/gcc/arm-elf/4.1.0/thumb/interwork/libgcc.a(_df_to_si.o)
 .debug_frame   0x00001bb4       0x30 /home/afrendy/projconto/atinom_lipi/atinom-lipi/TOOLCHAIN/bin/../lib/gcc/arm-elf/4.1.0/thumb/interwork/libgcc.a(_make_df.o)
 .debug_frame   0x00001be4       0x2c /home/afrendy/projconto/atinom_lipi/atinom-lipi/TOOLCHAIN/bin/../lib/gcc/arm-elf/4.1.0/thumb/interwork/libgcc.a(_df_to_sf.o)
 .debug_frame   0x00001c10       0x5c /home/afrendy/projconto/atinom_lipi/atinom-lipi/TOOLCHAIN/bin/../lib/gcc/arm-elf/4.1.0/thumb/interwork/libgcc.a(_pack_sf.o)
 .debug_frame   0x00001c6c       0x20 /home/afrendy/projconto/atinom_lipi/atinom-lipi/TOOLCHAIN/bin/../lib/gcc/arm-elf/4.1.0/thumb/interwork/libgcc.a(_unpack_sf.o)
 .debug_frame   0x00001c8c       0x5c /home/afrendy/projconto/atinom_lipi/atinom-lipi/TOOLCHAIN/bin/../lib/gcc/arm-elf/4.1.0/thumb/interwork/libgcc.a(_fpcmp_parts_sf.o)
 .debug_frame   0x00001ce8       0x28 /home/afrendy/projconto/atinom_lipi/atinom-lipi/TOOLCHAIN/bin/../lib/gcc/arm-elf/4.1.0/thumb/interwork/libgcc.a(_make_sf.o)
 .debug_frame   0x00001d10       0x60 /home/afrendy/projconto/atinom_lipi/atinom-lipi/TOOLCHAIN/bin/../lib/gcc/arm-elf/4.1.0/thumb/interwork/libgcc.a(_pack_df.o)
 .debug_frame   0x00001d70       0x30 /home/afrendy/projconto/atinom_lipi/atinom-lipi/TOOLCHAIN/bin/../lib/gcc/arm-elf/4.1.0/thumb/interwork/libgcc.a(_unpack_df.o)
 .debug_frame   0x00001da0       0x5c /home/afrendy/projconto/atinom_lipi/atinom-lipi/TOOLCHAIN/bin/../lib/gcc/arm-elf/4.1.0/thumb/interwork/libgcc.a(_fpcmp_parts_df.o)
 .debug_frame   0x00001dfc       0x38 /home/afrendy/projconto/atinom_lipi/atinom-lipi/TOOLCHAIN/bin/../lib/gcc/arm-elf/4.1.0/../../../../arm-elf/lib/thumb/interwork/libm.a(w_pow.o)
 .debug_frame   0x00001e34       0x3c /home/afrendy/projconto/atinom_lipi/atinom-lipi/TOOLCHAIN/bin/../lib/gcc/arm-elf/4.1.0/../../../../arm-elf/lib/thumb/interwork/libm.a(e_pow.o)
 .debug_frame   0x00001e70       0x3c /home/afrendy/projconto/atinom_lipi/atinom-lipi/TOOLCHAIN/bin/../lib/gcc/arm-elf/4.1.0/../../../../arm-elf/lib/thumb/interwork/libm.a(e_sqrt.o)
 .debug_frame   0x00001eac       0x28 /home/afrendy/projconto/atinom_lipi/atinom-lipi/TOOLCHAIN/bin/../lib/gcc/arm-elf/4.1.0/../../../../arm-elf/lib/thumb/interwork/libm.a(s_fabs.o)
 .debug_frame   0x00001ed4       0x28 /home/afrendy/projconto/atinom_lipi/atinom-lipi/TOOLCHAIN/bin/../lib/gcc/arm-elf/4.1.0/../../../../arm-elf/lib/thumb/interwork/libm.a(s_finite.o)
 .debug_frame   0x00001efc       0x20 /home/afrendy/projconto/atinom_lipi/atinom-lipi/TOOLCHAIN/bin/../lib/gcc/arm-elf/4.1.0/../../../../arm-elf/lib/thumb/interwork/libm.a(s_matherr.o)
 .debug_frame   0x00001f1c       0x38 /home/afrendy/projconto/atinom_lipi/atinom-lipi/TOOLCHAIN/bin/../lib/gcc/arm-elf/4.1.0/../../../../arm-elf/lib/thumb/interwork/libm.a(s_rint.o)
 .debug_frame   0x00001f54       0x34 /home/afrendy/projconto/atinom_lipi/atinom-lipi/TOOLCHAIN/bin/../lib/gcc/arm-elf/4.1.0/../../../../arm-elf/lib/thumb/interwork/libm.a(s_scalbn.o)
 .debug_frame   0x00001f88       0x2c /home/afrendy/projconto/atinom_lipi/atinom-lipi/TOOLCHAIN/bin/../lib/gcc/arm-elf/4.1.0/../../../../arm-elf/lib/thumb/interwork/libm.a(s_copysign.o)

.debug_loc      0x00000000    0x1107d
 .debug_loc     0x00000000       0x32 /home/afrendy/projconto/atinom_lipi/atinom-lipi/TOOLCHAIN/bin/../lib/gcc/arm-elf/4.1.0/../../../../arm-elf/lib/thumb/interwork/libc.a(ctime.o)
 .debug_loc     0x00000032       0x7c /home/afrendy/projconto/atinom_lipi/atinom-lipi/TOOLCHAIN/bin/../lib/gcc/arm-elf/4.1.0/../../../../arm-elf/lib/thumb/interwork/libc.a(div.o)
 .debug_loc     0x000000ae       0x32 /home/afrendy/projconto/atinom_lipi/atinom-lipi/TOOLCHAIN/bin/../lib/gcc/arm-elf/4.1.0/../../../../arm-elf/lib/thumb/interwork/libc.a(lcltime.o)
 .debug_loc     0x000000e0       0x45 /home/afrendy/projconto/atinom_lipi/atinom-lipi/TOOLCHAIN/bin/../lib/gcc/arm-elf/4.1.0/../../../../arm-elf/lib/thumb/interwork/libc.a(lcltime_r.o)
 .debug_loc     0x00000125       0x7a /home/afrendy/projconto/atinom_lipi/atinom-lipi/TOOLCHAIN/bin/../lib/gcc/arm-elf/4.1.0/../../../../arm-elf/lib/thumb/interwork/libc.a(malloc.o)
 .debug_loc     0x0000019f      0xa5e /home/afrendy/projconto/atinom_lipi/atinom-lipi/TOOLCHAIN/bin/../lib/gcc/arm-elf/4.1.0/../../../../arm-elf/lib/thumb/interwork/libc.a(mallocr.o)
 .debug_loc     0x00000bfd      0x151 /home/afrendy/projconto/atinom_lipi/atinom-lipi/TOOLCHAIN/bin/../lib/gcc/arm-elf/4.1.0/../../../../arm-elf/lib/thumb/interwork/libc.a(memcpy.o)
 .debug_loc     0x00000d4e      0x15f /home/afrendy/projconto/atinom_lipi/atinom-lipi/TOOLCHAIN/bin/../lib/gcc/arm-elf/4.1.0/../../../../arm-elf/lib/thumb/interwork/libc.a(memset.o)
 .debug_loc     0x00000ead      0x3c4 /home/afrendy/projconto/atinom_lipi/atinom-lipi/TOOLCHAIN/bin/../lib/gcc/arm-elf/4.1.0/../../../../arm-elf/lib/thumb/interwork/libc.a(mktime.o)
 .debug_loc     0x00001271      0x3f0 /home/afrendy/projconto/atinom_lipi/atinom-lipi/TOOLCHAIN/bin/../lib/gcc/arm-elf/4.1.0/../../../../arm-elf/lib/thumb/interwork/libc.a(mktm_r.o)
 .debug_loc     0x00001661       0x1f /home/afrendy/projconto/atinom_lipi/atinom-lipi/TOOLCHAIN/bin/../lib/gcc/arm-elf/4.1.0/../../../../arm-elf/lib/thumb/interwork/libc.a(rand.o)
 .debug_loc     0x00001680      0x1b2 /home/afrendy/projconto/atinom_lipi/atinom-lipi/TOOLCHAIN/bin/../lib/gcc/arm-elf/4.1.0/../../../../arm-elf/lib/thumb/interwork/libc.a(snprintf.o)
 .debug_loc     0x00001832       0xa9 /home/afrendy/projconto/atinom_lipi/atinom-lipi/TOOLCHAIN/bin/../lib/gcc/arm-elf/4.1.0/../../../../arm-elf/lib/thumb/interwork/libc.a(sprintf.o)
 .debug_loc     0x000018db      0x111 /home/afrendy/projconto/atinom_lipi/atinom-lipi/TOOLCHAIN/bin/../lib/gcc/arm-elf/4.1.0/../../../../arm-elf/lib/thumb/interwork/libc.a(sscanf.o)
 .debug_loc     0x000019ec       0x8f /home/afrendy/projconto/atinom_lipi/atinom-lipi/TOOLCHAIN/bin/../lib/gcc/arm-elf/4.1.0/../../../../arm-elf/lib/thumb/interwork/libc.a(strcat.o)
 .debug_loc     0x00001a7b       0xf4 /home/afrendy/projconto/atinom_lipi/atinom-lipi/TOOLCHAIN/bin/../lib/gcc/arm-elf/4.1.0/../../../../arm-elf/lib/thumb/interwork/libc.a(strchr.o)
 .debug_loc     0x00001b6f       0xb8 /home/afrendy/projconto/atinom_lipi/atinom-lipi/TOOLCHAIN/bin/../lib/gcc/arm-elf/4.1.0/../../../../arm-elf/lib/thumb/interwork/libc.a(strcmp.o)
 .debug_loc     0x00001c27       0xd3 /home/afrendy/projconto/atinom_lipi/atinom-lipi/TOOLCHAIN/bin/../lib/gcc/arm-elf/4.1.0/../../../../arm-elf/lib/thumb/interwork/libc.a(strcpy.o)
 .debug_loc     0x00001cfa       0x5b /home/afrendy/projconto/atinom_lipi/atinom-lipi/TOOLCHAIN/bin/../lib/gcc/arm-elf/4.1.0/../../../../arm-elf/lib/thumb/interwork/libc.a(strlen.o)
 .debug_loc     0x00001d55      0x144 /home/afrendy/projconto/atinom_lipi/atinom-lipi/TOOLCHAIN/bin/../lib/gcc/arm-elf/4.1.0/../../../../arm-elf/lib/thumb/interwork/libc.a(strncmp.o)
 .debug_loc     0x00001e99      0x1a1 /home/afrendy/projconto/atinom_lipi/atinom-lipi/TOOLCHAIN/bin/../lib/gcc/arm-elf/4.1.0/../../../../arm-elf/lib/thumb/interwork/libc.a(strncpy.o)
 .debug_loc     0x0000203a       0xbb /home/afrendy/projconto/atinom_lipi/atinom-lipi/TOOLCHAIN/bin/../lib/gcc/arm-elf/4.1.0/../../../../arm-elf/lib/thumb/interwork/libc.a(strrchr.o)
 .debug_loc     0x000020f5     0x1d2e /home/afrendy/projconto/atinom_lipi/atinom-lipi/TOOLCHAIN/bin/../lib/gcc/arm-elf/4.1.0/../../../../arm-elf/lib/thumb/interwork/libc.a(vfprintf.o)
 .debug_loc     0x00003e23      0xc2f /home/afrendy/projconto/atinom_lipi/atinom-lipi/TOOLCHAIN/bin/../lib/gcc/arm-elf/4.1.0/../../../../arm-elf/lib/thumb/interwork/libc.a(vfscanf.o)
 .debug_loc     0x00004a52       0xf3 /home/afrendy/projconto/atinom_lipi/atinom-lipi/TOOLCHAIN/bin/../lib/gcc/arm-elf/4.1.0/../../../../arm-elf/lib/thumb/interwork/libc.a(vsprintf.o)
 .debug_loc     0x00004b45      0x15b /home/afrendy/projconto/atinom_lipi/atinom-lipi/TOOLCHAIN/bin/../lib/gcc/arm-elf/4.1.0/../../../../arm-elf/lib/thumb/interwork/libc.a(wcrtomb.o)
 .debug_loc     0x00004ca0      0x31c /home/afrendy/projconto/atinom_lipi/atinom-lipi/TOOLCHAIN/bin/../lib/gcc/arm-elf/4.1.0/../../../../arm-elf/lib/thumb/interwork/libc.a(wcsrtombs.o)
 .debug_loc     0x00004fbc      0x27f /home/afrendy/projconto/atinom_lipi/atinom-lipi/TOOLCHAIN/bin/../lib/gcc/arm-elf/4.1.0/../../../../arm-elf/lib/thumb/interwork/libc.a(wctomb_r.o)
 .debug_loc     0x0000523b       0x48 /home/afrendy/projconto/atinom_lipi/atinom-lipi/TOOLCHAIN/bin/../lib/gcc/arm-elf/4.1.0/../../../../arm-elf/lib/thumb/interwork/libc.a(wsetup.o)
 .debug_loc     0x00005283       0x32 /home/afrendy/projconto/atinom_lipi/atinom-lipi/TOOLCHAIN/bin/../lib/gcc/arm-elf/4.1.0/../../../../arm-elf/lib/thumb/interwork/libc.a(asctime.o)
 .debug_loc     0x000052b5       0x5c /home/afrendy/projconto/atinom_lipi/atinom-lipi/TOOLCHAIN/bin/../lib/gcc/arm-elf/4.1.0/../../../../arm-elf/lib/thumb/interwork/libc.a(asctime_r.o)
 .debug_loc     0x00005311     0x1e23 /home/afrendy/projconto/atinom_lipi/atinom-lipi/TOOLCHAIN/bin/../lib/gcc/arm-elf/4.1.0/../../../../arm-elf/lib/thumb/interwork/libc.a(dtoa.o)
 .debug_loc     0x00007134       0xe4 /home/afrendy/projconto/atinom_lipi/atinom-lipi/TOOLCHAIN/bin/../lib/gcc/arm-elf/4.1.0/../../../../arm-elf/lib/thumb/interwork/libc.a(fflush.o)
 .debug_loc     0x00007218      0x26a /home/afrendy/projconto/atinom_lipi/atinom-lipi/TOOLCHAIN/bin/../lib/gcc/arm-elf/4.1.0/../../../../arm-elf/lib/thumb/interwork/libc.a(findfp.o)
 .debug_loc     0x00007482      0x211 /home/afrendy/projconto/atinom_lipi/atinom-lipi/TOOLCHAIN/bin/../lib/gcc/arm-elf/4.1.0/../../../../arm-elf/lib/thumb/interwork/libc.a(fread.o)
 .debug_loc     0x00007693      0x419 /home/afrendy/projconto/atinom_lipi/atinom-lipi/TOOLCHAIN/bin/../lib/gcc/arm-elf/4.1.0/../../../../arm-elf/lib/thumb/interwork/libc.a(freer.o)
 .debug_loc     0x00007aac      0x38f /home/afrendy/projconto/atinom_lipi/atinom-lipi/TOOLCHAIN/bin/../lib/gcc/arm-elf/4.1.0/../../../../arm-elf/lib/thumb/interwork/libc.a(fvwrite.o)
 .debug_loc     0x00007e3b      0x263 /home/afrendy/projconto/atinom_lipi/atinom-lipi/TOOLCHAIN/bin/../lib/gcc/arm-elf/4.1.0/../../../../arm-elf/lib/thumb/interwork/libc.a(fwalk.o)
 .debug_loc     0x0000809e       0x1e /home/afrendy/projconto/atinom_lipi/atinom-lipi/TOOLCHAIN/bin/../lib/gcc/arm-elf/4.1.0/../../../../arm-elf/lib/thumb/interwork/libc.a(iswspace.o)
 .debug_loc     0x000080bc      0x13d /home/afrendy/projconto/atinom_lipi/atinom-lipi/TOOLCHAIN/bin/../lib/gcc/arm-elf/4.1.0/../../../../arm-elf/lib/thumb/interwork/libc.a(locale.o)
 .debug_loc     0x000081f9       0xb2 /home/afrendy/projconto/atinom_lipi/atinom-lipi/TOOLCHAIN/bin/../lib/gcc/arm-elf/4.1.0/../../../../arm-elf/lib/thumb/interwork/libc.a(makebuf.o)
 .debug_loc     0x000082ab      0x1a5 /home/afrendy/projconto/atinom_lipi/atinom-lipi/TOOLCHAIN/bin/../lib/gcc/arm-elf/4.1.0/../../../../arm-elf/lib/thumb/interwork/libc.a(mbrtowc.o)
 .debug_loc     0x00008450       0x84 /home/afrendy/projconto/atinom_lipi/atinom-lipi/TOOLCHAIN/bin/../lib/gcc/arm-elf/4.1.0/../../../../arm-elf/lib/thumb/interwork/libc.a(mbtowc_r.o)
 .debug_loc     0x000084d4      0x1b5 /home/afrendy/projconto/atinom_lipi/atinom-lipi/TOOLCHAIN/bin/../lib/gcc/arm-elf/4.1.0/../../../../arm-elf/lib/thumb/interwork/libc.a(memchr.o)
 .debug_loc     0x00008689      0x1ca /home/afrendy/projconto/atinom_lipi/atinom-lipi/TOOLCHAIN/bin/../lib/gcc/arm-elf/4.1.0/../../../../arm-elf/lib/thumb/interwork/libc.a(memmove.o)
 .debug_loc     0x00008853     0x1418 /home/afrendy/projconto/atinom_lipi/atinom-lipi/TOOLCHAIN/bin/../lib/gcc/arm-elf/4.1.0/../../../../arm-elf/lib/thumb/interwork/libc.a(mprec.o)
 .debug_loc     0x00009c6b      0xad5 /home/afrendy/projconto/atinom_lipi/atinom-lipi/TOOLCHAIN/bin/../lib/gcc/arm-elf/4.1.0/../../../../arm-elf/lib/thumb/interwork/libc.a(reallocr.o)
 .debug_loc     0x0000a740       0x85 /home/afrendy/projconto/atinom_lipi/atinom-lipi/TOOLCHAIN/bin/../lib/gcc/arm-elf/4.1.0/../../../../arm-elf/lib/thumb/interwork/libc.a(refill.o)
 .debug_loc     0x0000a7c5       0x36 /home/afrendy/projconto/atinom_lipi/atinom-lipi/TOOLCHAIN/bin/../lib/gcc/arm-elf/4.1.0/../../../../arm-elf/lib/thumb/interwork/libc.a(s_isinf.o)
 .debug_loc     0x0000a7fb       0x18 /home/afrendy/projconto/atinom_lipi/atinom-lipi/TOOLCHAIN/bin/../lib/gcc/arm-elf/4.1.0/../../../../arm-elf/lib/thumb/interwork/libc.a(s_isnan.o)
 .debug_loc     0x0000a813       0xf7 /home/afrendy/projconto/atinom_lipi/atinom-lipi/TOOLCHAIN/bin/../lib/gcc/arm-elf/4.1.0/../../../../arm-elf/lib/thumb/interwork/libc.a(sccl.o)
 .debug_loc     0x0000a90a       0x13 /home/afrendy/projconto/atinom_lipi/atinom-lipi/TOOLCHAIN/bin/../lib/gcc/arm-elf/4.1.0/../../../../arm-elf/lib/thumb/interwork/libc.a(sf_nan.o)
 .debug_loc     0x0000a91d      0x231 /home/afrendy/projconto/atinom_lipi/atinom-lipi/TOOLCHAIN/bin/../lib/gcc/arm-elf/4.1.0/../../../../arm-elf/lib/thumb/interwork/libc.a(stdio.o)
 .debug_loc     0x0000ab4e     0x1a03 /home/afrendy/projconto/atinom_lipi/atinom-lipi/TOOLCHAIN/bin/../lib/gcc/arm-elf/4.1.0/../../../../arm-elf/lib/thumb/interwork/libc.a(strtod.o)
 .debug_loc     0x0000c551      0x31d /home/afrendy/projconto/atinom_lipi/atinom-lipi/TOOLCHAIN/bin/../lib/gcc/arm-elf/4.1.0/../../../../arm-elf/lib/thumb/interwork/libc.a(strtol.o)
 .debug_loc     0x0000c86e      0x29e /home/afrendy/projconto/atinom_lipi/atinom-lipi/TOOLCHAIN/bin/../lib/gcc/arm-elf/4.1.0/../../../../arm-elf/lib/thumb/interwork/libc.a(strtoul.o)
 .debug_loc     0x0000cb0c      0xb5e /home/afrendy/projconto/atinom_lipi/atinom-lipi/TOOLCHAIN/bin/../lib/gcc/arm-elf/4.1.0/../../../../arm-elf/lib/thumb/interwork/libc.a(syscalls.o)
 .debug_loc     0x0000d66a      0x1da /home/afrendy/projconto/atinom_lipi/atinom-lipi/TOOLCHAIN/bin/../lib/gcc/arm-elf/4.1.0/../../../../arm-elf/lib/thumb/interwork/libc.a(ungetc.o)
 .debug_loc     0x0000d844       0xff /home/afrendy/projconto/atinom_lipi/atinom-lipi/TOOLCHAIN/bin/../lib/gcc/arm-elf/4.1.0/../../../../arm-elf/lib/thumb/interwork/libc.a(callocr.o)
 .debug_loc     0x0000d943       0xe2 /home/afrendy/projconto/atinom_lipi/atinom-lipi/TOOLCHAIN/bin/../lib/gcc/arm-elf/4.1.0/../../../../arm-elf/lib/thumb/interwork/libc.a(fclose.o)
 .debug_loc     0x0000da25       0x4a /home/afrendy/projconto/atinom_lipi/atinom-lipi/TOOLCHAIN/bin/../lib/gcc/arm-elf/4.1.0/../../../../arm-elf/lib/thumb/interwork/libc.a(s_nan.o)
 .debug_loc     0x0000da6f      0x161 /home/afrendy/projconto/atinom_lipi/atinom-lipi/TOOLCHAIN/bin/../lib/gcc/arm-elf/4.1.0/thumb/interwork/libgcc.a(_muldi3.o)
 .debug_loc     0x0000dbd0       0x67 /home/afrendy/projconto/atinom_lipi/atinom-lipi/TOOLCHAIN/bin/../lib/gcc/arm-elf/4.1.0/thumb/interwork/libgcc.a(_fixunsdfsi.o)
 .debug_loc     0x0000dc37      0x33f /home/afrendy/projconto/atinom_lipi/atinom-lipi/TOOLCHAIN/bin/../lib/gcc/arm-elf/4.1.0/thumb/interwork/libgcc.a(_addsub_sf.o)
 .debug_loc     0x0000df76      0x157 /home/afrendy/projconto/atinom_lipi/atinom-lipi/TOOLCHAIN/bin/../lib/gcc/arm-elf/4.1.0/thumb/interwork/libgcc.a(_div_sf.o)
 .debug_loc     0x0000e0cd       0x64 /home/afrendy/projconto/atinom_lipi/atinom-lipi/TOOLCHAIN/bin/../lib/gcc/arm-elf/4.1.0/thumb/interwork/libgcc.a(_gt_sf.o)
 .debug_loc     0x0000e131       0x3e /home/afrendy/projconto/atinom_lipi/atinom-lipi/TOOLCHAIN/bin/../lib/gcc/arm-elf/4.1.0/thumb/interwork/libgcc.a(_sf_to_df.o)
 .debug_loc     0x0000e16f      0x42a /home/afrendy/projconto/atinom_lipi/atinom-lipi/TOOLCHAIN/bin/../lib/gcc/arm-elf/4.1.0/thumb/interwork/libgcc.a(_addsub_df.o)
 .debug_loc     0x0000e599      0x250 /home/afrendy/projconto/atinom_lipi/atinom-lipi/TOOLCHAIN/bin/../lib/gcc/arm-elf/4.1.0/thumb/interwork/libgcc.a(_mul_df.o)
 .debug_loc     0x0000e7e9      0x191 /home/afrendy/projconto/atinom_lipi/atinom-lipi/TOOLCHAIN/bin/../lib/gcc/arm-elf/4.1.0/thumb/interwork/libgcc.a(_div_df.o)
 .debug_loc     0x0000e97a       0x6f /home/afrendy/projconto/atinom_lipi/atinom-lipi/TOOLCHAIN/bin/../lib/gcc/arm-elf/4.1.0/thumb/interwork/libgcc.a(_eq_df.o)
 .debug_loc     0x0000e9e9       0x6f /home/afrendy/projconto/atinom_lipi/atinom-lipi/TOOLCHAIN/bin/../lib/gcc/arm-elf/4.1.0/thumb/interwork/libgcc.a(_ne_df.o)
 .debug_loc     0x0000ea58       0x6f /home/afrendy/projconto/atinom_lipi/atinom-lipi/TOOLCHAIN/bin/../lib/gcc/arm-elf/4.1.0/thumb/interwork/libgcc.a(_gt_df.o)
 .debug_loc     0x0000eac7       0x6f /home/afrendy/projconto/atinom_lipi/atinom-lipi/TOOLCHAIN/bin/../lib/gcc/arm-elf/4.1.0/thumb/interwork/libgcc.a(_ge_df.o)
 .debug_loc     0x0000eb36       0x6f /home/afrendy/projconto/atinom_lipi/atinom-lipi/TOOLCHAIN/bin/../lib/gcc/arm-elf/4.1.0/thumb/interwork/libgcc.a(_lt_df.o)
 .debug_loc     0x0000eba5       0x6f /home/afrendy/projconto/atinom_lipi/atinom-lipi/TOOLCHAIN/bin/../lib/gcc/arm-elf/4.1.0/thumb/interwork/libgcc.a(_le_df.o)
 .debug_loc     0x0000ec14       0x54 /home/afrendy/projconto/atinom_lipi/atinom-lipi/TOOLCHAIN/bin/../lib/gcc/arm-elf/4.1.0/thumb/interwork/libgcc.a(_si_to_df.o)
 .debug_loc     0x0000ec68       0xd1 /home/afrendy/projconto/atinom_lipi/atinom-lipi/TOOLCHAIN/bin/../lib/gcc/arm-elf/4.1.0/thumb/interwork/libgcc.a(_df_to_si.o)
 .debug_loc     0x0000ed39       0x70 /home/afrendy/projconto/atinom_lipi/atinom-lipi/TOOLCHAIN/bin/../lib/gcc/arm-elf/4.1.0/thumb/interwork/libgcc.a(_make_df.o)
 .debug_loc     0x0000eda9       0x56 /home/afrendy/projconto/atinom_lipi/atinom-lipi/TOOLCHAIN/bin/../lib/gcc/arm-elf/4.1.0/thumb/interwork/libgcc.a(_df_to_sf.o)
 .debug_loc     0x0000edff      0x130 /home/afrendy/projconto/atinom_lipi/atinom-lipi/TOOLCHAIN/bin/../lib/gcc/arm-elf/4.1.0/thumb/interwork/libgcc.a(_pack_sf.o)
 .debug_loc     0x0000ef2f       0x3c /home/afrendy/projconto/atinom_lipi/atinom-lipi/TOOLCHAIN/bin/../lib/gcc/arm-elf/4.1.0/thumb/interwork/libgcc.a(_unpack_sf.o)
 .debug_loc     0x0000ef6b       0xc0 /home/afrendy/projconto/atinom_lipi/atinom-lipi/TOOLCHAIN/bin/../lib/gcc/arm-elf/4.1.0/thumb/interwork/libgcc.a(_fpcmp_parts_sf.o)
 .debug_loc     0x0000f02b       0x77 /home/afrendy/projconto/atinom_lipi/atinom-lipi/TOOLCHAIN/bin/../lib/gcc/arm-elf/4.1.0/thumb/interwork/libgcc.a(_make_sf.o)
 .debug_loc     0x0000f0a2      0x1f7 /home/afrendy/projconto/atinom_lipi/atinom-lipi/TOOLCHAIN/bin/../lib/gcc/arm-elf/4.1.0/thumb/interwork/libgcc.a(_pack_df.o)
 .debug_loc     0x0000f299       0xab /home/afrendy/projconto/atinom_lipi/atinom-lipi/TOOLCHAIN/bin/../lib/gcc/arm-elf/4.1.0/thumb/interwork/libgcc.a(_unpack_df.o)
 .debug_loc     0x0000f344       0xcb /home/afrendy/projconto/atinom_lipi/atinom-lipi/TOOLCHAIN/bin/../lib/gcc/arm-elf/4.1.0/thumb/interwork/libgcc.a(_fpcmp_parts_df.o)
 .debug_loc     0x0000f40f       0xc4 /home/afrendy/projconto/atinom_lipi/atinom-lipi/TOOLCHAIN/bin/../lib/gcc/arm-elf/4.1.0/../../../../arm-elf/lib/thumb/interwork/libm.a(w_pow.o)
 .debug_loc     0x0000f4d3     0x1273 /home/afrendy/projconto/atinom_lipi/atinom-lipi/TOOLCHAIN/bin/../lib/gcc/arm-elf/4.1.0/../../../../arm-elf/lib/thumb/interwork/libm.a(e_pow.o)
 .debug_loc     0x00010746      0x3fc /home/afrendy/projconto/atinom_lipi/atinom-lipi/TOOLCHAIN/bin/../lib/gcc/arm-elf/4.1.0/../../../../arm-elf/lib/thumb/interwork/libm.a(e_sqrt.o)
 .debug_loc     0x00010b42       0x4a /home/afrendy/projconto/atinom_lipi/atinom-lipi/TOOLCHAIN/bin/../lib/gcc/arm-elf/4.1.0/../../../../arm-elf/lib/thumb/interwork/libm.a(s_fabs.o)
 .debug_loc     0x00010b8c       0x37 /home/afrendy/projconto/atinom_lipi/atinom-lipi/TOOLCHAIN/bin/../lib/gcc/arm-elf/4.1.0/../../../../arm-elf/lib/thumb/interwork/libm.a(s_finite.o)
 .debug_loc     0x00010bc3       0x13 /home/afrendy/projconto/atinom_lipi/atinom-lipi/TOOLCHAIN/bin/../lib/gcc/arm-elf/4.1.0/../../../../arm-elf/lib/thumb/interwork/libm.a(s_matherr.o)
 .debug_loc     0x00010bd6      0x27b /home/afrendy/projconto/atinom_lipi/atinom-lipi/TOOLCHAIN/bin/../lib/gcc/arm-elf/4.1.0/../../../../arm-elf/lib/thumb/interwork/libm.a(s_rint.o)
 .debug_loc     0x00010e51      0x19f /home/afrendy/projconto/atinom_lipi/atinom-lipi/TOOLCHAIN/bin/../lib/gcc/arm-elf/4.1.0/../../../../arm-elf/lib/thumb/interwork/libm.a(s_scalbn.o)
 .debug_loc     0x00010ff0       0x8d /home/afrendy/projconto/atinom_lipi/atinom-lipi/TOOLCHAIN/bin/../lib/gcc/arm-elf/4.1.0/../../../../arm-elf/lib/thumb/interwork/libm.a(s_copysign.o)

.debug_pubnames
                0x00000000     0x12fc
 .debug_pubnames
                0x00000000       0x1c /home/afrendy/projconto/atinom_lipi/atinom-lipi/TOOLCHAIN/bin/../lib/gcc/arm-elf/4.1.0/../../../../arm-elf/lib/thumb/interwork/libc.a(ctime.o)
 .debug_pubnames
                0x0000001c       0x1a /home/afrendy/projconto/atinom_lipi/atinom-lipi/TOOLCHAIN/bin/../lib/gcc/arm-elf/4.1.0/../../../../arm-elf/lib/thumb/interwork/libc.a(div.o)
 .debug_pubnames
                0x00000036       0x20 /home/afrendy/projconto/atinom_lipi/atinom-lipi/TOOLCHAIN/bin/../lib/gcc/arm-elf/4.1.0/../../../../arm-elf/lib/thumb/interwork/libc.a(lcltime.o)
 .debug_pubnames
                0x00000056       0x22 /home/afrendy/projconto/atinom_lipi/atinom-lipi/TOOLCHAIN/bin/../lib/gcc/arm-elf/4.1.0/../../../../arm-elf/lib/thumb/interwork/libc.a(lcltime_r.o)
 .debug_pubnames
                0x00000078       0x26 /home/afrendy/projconto/atinom_lipi/atinom-lipi/TOOLCHAIN/bin/../lib/gcc/arm-elf/4.1.0/../../../../arm-elf/lib/thumb/interwork/libc.a(malloc.o)
 .debug_pubnames
                0x0000009e       0xce /home/afrendy/projconto/atinom_lipi/atinom-lipi/TOOLCHAIN/bin/../lib/gcc/arm-elf/4.1.0/../../../../arm-elf/lib/thumb/interwork/libc.a(mallocr.o)
 .debug_pubnames
                0x0000016c       0x1d /home/afrendy/projconto/atinom_lipi/atinom-lipi/TOOLCHAIN/bin/../lib/gcc/arm-elf/4.1.0/../../../../arm-elf/lib/thumb/interwork/libc.a(memcpy.o)
 .debug_pubnames
                0x00000189       0x1d /home/afrendy/projconto/atinom_lipi/atinom-lipi/TOOLCHAIN/bin/../lib/gcc/arm-elf/4.1.0/../../../../arm-elf/lib/thumb/interwork/libc.a(memset.o)
 .debug_pubnames
                0x000001a6       0x1d /home/afrendy/projconto/atinom_lipi/atinom-lipi/TOOLCHAIN/bin/../lib/gcc/arm-elf/4.1.0/../../../../arm-elf/lib/thumb/interwork/libc.a(mktime.o)
 .debug_pubnames
                0x000001c3       0x32 /home/afrendy/projconto/atinom_lipi/atinom-lipi/TOOLCHAIN/bin/../lib/gcc/arm-elf/4.1.0/../../../../arm-elf/lib/thumb/interwork/libc.a(mktm_r.o)
 .debug_pubnames
                0x000001f5       0x38 /home/afrendy/projconto/atinom_lipi/atinom-lipi/TOOLCHAIN/bin/../lib/gcc/arm-elf/4.1.0/../../../../arm-elf/lib/thumb/interwork/libc.a(mlock.o)
 .debug_pubnames
                0x0000022d       0x25 /home/afrendy/projconto/atinom_lipi/atinom-lipi/TOOLCHAIN/bin/../lib/gcc/arm-elf/4.1.0/../../../../arm-elf/lib/thumb/interwork/libc.a(rand.o)
 .debug_pubnames
                0x00000252       0x2f /home/afrendy/projconto/atinom_lipi/atinom-lipi/TOOLCHAIN/bin/../lib/gcc/arm-elf/4.1.0/../../../../arm-elf/lib/thumb/interwork/libc.a(snprintf.o)
 .debug_pubnames
                0x00000281       0x2d /home/afrendy/projconto/atinom_lipi/atinom-lipi/TOOLCHAIN/bin/../lib/gcc/arm-elf/4.1.0/../../../../arm-elf/lib/thumb/interwork/libc.a(sprintf.o)
 .debug_pubnames
                0x000002ae       0x2b /home/afrendy/projconto/atinom_lipi/atinom-lipi/TOOLCHAIN/bin/../lib/gcc/arm-elf/4.1.0/../../../../arm-elf/lib/thumb/interwork/libc.a(sscanf.o)
 .debug_pubnames
                0x000002d9       0x1d /home/afrendy/projconto/atinom_lipi/atinom-lipi/TOOLCHAIN/bin/../lib/gcc/arm-elf/4.1.0/../../../../arm-elf/lib/thumb/interwork/libc.a(strcat.o)
 .debug_pubnames
                0x000002f6       0x1d /home/afrendy/projconto/atinom_lipi/atinom-lipi/TOOLCHAIN/bin/../lib/gcc/arm-elf/4.1.0/../../../../arm-elf/lib/thumb/interwork/libc.a(strchr.o)
 .debug_pubnames
                0x00000313       0x1d /home/afrendy/projconto/atinom_lipi/atinom-lipi/TOOLCHAIN/bin/../lib/gcc/arm-elf/4.1.0/../../../../arm-elf/lib/thumb/interwork/libc.a(strcmp.o)
 .debug_pubnames
                0x00000330       0x1d /home/afrendy/projconto/atinom_lipi/atinom-lipi/TOOLCHAIN/bin/../lib/gcc/arm-elf/4.1.0/../../../../arm-elf/lib/thumb/interwork/libc.a(strcpy.o)
 .debug_pubnames
                0x0000034d       0x1d /home/afrendy/projconto/atinom_lipi/atinom-lipi/TOOLCHAIN/bin/../lib/gcc/arm-elf/4.1.0/../../../../arm-elf/lib/thumb/interwork/libc.a(strlen.o)
 .debug_pubnames
                0x0000036a       0x1e /home/afrendy/projconto/atinom_lipi/atinom-lipi/TOOLCHAIN/bin/../lib/gcc/arm-elf/4.1.0/../../../../arm-elf/lib/thumb/interwork/libc.a(strncmp.o)
 .debug_pubnames
                0x00000388       0x1e /home/afrendy/projconto/atinom_lipi/atinom-lipi/TOOLCHAIN/bin/../lib/gcc/arm-elf/4.1.0/../../../../arm-elf/lib/thumb/interwork/libc.a(strncpy.o)
 .debug_pubnames
                0x000003a6       0x1e /home/afrendy/projconto/atinom_lipi/atinom-lipi/TOOLCHAIN/bin/../lib/gcc/arm-elf/4.1.0/../../../../arm-elf/lib/thumb/interwork/libc.a(strrchr.o)
 .debug_pubnames
                0x000003c4       0x30 /home/afrendy/projconto/atinom_lipi/atinom-lipi/TOOLCHAIN/bin/../lib/gcc/arm-elf/4.1.0/../../../../arm-elf/lib/thumb/interwork/libc.a(tzlock.o)
 .debug_pubnames
                0x000003f4       0x3a /home/afrendy/projconto/atinom_lipi/atinom-lipi/TOOLCHAIN/bin/../lib/gcc/arm-elf/4.1.0/../../../../arm-elf/lib/thumb/interwork/libc.a(tzvars.o)
 .debug_pubnames
                0x0000042e       0x2f /home/afrendy/projconto/atinom_lipi/atinom-lipi/TOOLCHAIN/bin/../lib/gcc/arm-elf/4.1.0/../../../../arm-elf/lib/thumb/interwork/libc.a(vfprintf.o)
 .debug_pubnames
                0x0000045d       0x4d /home/afrendy/projconto/atinom_lipi/atinom-lipi/TOOLCHAIN/bin/../lib/gcc/arm-elf/4.1.0/../../../../arm-elf/lib/thumb/interwork/libc.a(vfscanf.o)
 .debug_pubnames
                0x000004aa       0x2f /home/afrendy/projconto/atinom_lipi/atinom-lipi/TOOLCHAIN/bin/../lib/gcc/arm-elf/4.1.0/../../../../arm-elf/lib/thumb/interwork/libc.a(vsprintf.o)
 .debug_pubnames
                0x000004d9       0x2d /home/afrendy/projconto/atinom_lipi/atinom-lipi/TOOLCHAIN/bin/../lib/gcc/arm-elf/4.1.0/../../../../arm-elf/lib/thumb/interwork/libc.a(wcrtomb.o)
 .debug_pubnames
                0x00000506       0x31 /home/afrendy/projconto/atinom_lipi/atinom-lipi/TOOLCHAIN/bin/../lib/gcc/arm-elf/4.1.0/../../../../arm-elf/lib/thumb/interwork/libc.a(wcsrtombs.o)
 .debug_pubnames
                0x00000537       0x20 /home/afrendy/projconto/atinom_lipi/atinom-lipi/TOOLCHAIN/bin/../lib/gcc/arm-elf/4.1.0/../../../../arm-elf/lib/thumb/interwork/libc.a(wctomb_r.o)
 .debug_pubnames
                0x00000557       0x20 /home/afrendy/projconto/atinom_lipi/atinom-lipi/TOOLCHAIN/bin/../lib/gcc/arm-elf/4.1.0/../../../../arm-elf/lib/thumb/interwork/libc.a(wsetup.o)
 .debug_pubnames
                0x00000577       0x1e /home/afrendy/projconto/atinom_lipi/atinom-lipi/TOOLCHAIN/bin/../lib/gcc/arm-elf/4.1.0/../../../../arm-elf/lib/thumb/interwork/libc.a(asctime.o)
 .debug_pubnames
                0x00000595       0x20 /home/afrendy/projconto/atinom_lipi/atinom-lipi/TOOLCHAIN/bin/../lib/gcc/arm-elf/4.1.0/../../../../arm-elf/lib/thumb/interwork/libc.a(asctime_r.o)
 .debug_pubnames
                0x000005b5       0x2e /home/afrendy/projconto/atinom_lipi/atinom-lipi/TOOLCHAIN/bin/../lib/gcc/arm-elf/4.1.0/../../../../arm-elf/lib/thumb/interwork/libc.a(ctype_.o)
 .debug_pubnames
                0x000005e3       0x1e /home/afrendy/projconto/atinom_lipi/atinom-lipi/TOOLCHAIN/bin/../lib/gcc/arm-elf/4.1.0/../../../../arm-elf/lib/thumb/interwork/libc.a(dtoa.o)
 .debug_pubnames
                0x00000601       0x1d /home/afrendy/projconto/atinom_lipi/atinom-lipi/TOOLCHAIN/bin/../lib/gcc/arm-elf/4.1.0/../../../../arm-elf/lib/thumb/interwork/libc.a(fflush.o)
 .debug_pubnames
                0x0000061e       0xdb /home/afrendy/projconto/atinom_lipi/atinom-lipi/TOOLCHAIN/bin/../lib/gcc/arm-elf/4.1.0/../../../../arm-elf/lib/thumb/interwork/libc.a(findfp.o)
 .debug_pubnames
                0x000006f9       0x1c /home/afrendy/projconto/atinom_lipi/atinom-lipi/TOOLCHAIN/bin/../lib/gcc/arm-elf/4.1.0/../../../../arm-elf/lib/thumb/interwork/libc.a(fread.o)
 .debug_pubnames
                0x00000715       0x31 /home/afrendy/projconto/atinom_lipi/atinom-lipi/TOOLCHAIN/bin/../lib/gcc/arm-elf/4.1.0/../../../../arm-elf/lib/thumb/interwork/libc.a(freer.o)
 .debug_pubnames
                0x00000746       0x21 /home/afrendy/projconto/atinom_lipi/atinom-lipi/TOOLCHAIN/bin/../lib/gcc/arm-elf/4.1.0/../../../../arm-elf/lib/thumb/interwork/libc.a(fvwrite.o)
 .debug_pubnames
                0x00000767       0x2e /home/afrendy/projconto/atinom_lipi/atinom-lipi/TOOLCHAIN/bin/../lib/gcc/arm-elf/4.1.0/../../../../arm-elf/lib/thumb/interwork/libc.a(fwalk.o)
 .debug_pubnames
                0x00000795       0x22 /home/afrendy/projconto/atinom_lipi/atinom-lipi/TOOLCHAIN/bin/../lib/gcc/arm-elf/4.1.0/../../../../arm-elf/lib/thumb/interwork/libc.a(gettzinfo.o)
 .debug_pubnames
                0x000007b7       0x39 /home/afrendy/projconto/atinom_lipi/atinom-lipi/TOOLCHAIN/bin/../lib/gcc/arm-elf/4.1.0/../../../../arm-elf/lib/thumb/interwork/libc.a(impure.o)
 .debug_pubnames
                0x000007f0       0x1f /home/afrendy/projconto/atinom_lipi/atinom-lipi/TOOLCHAIN/bin/../lib/gcc/arm-elf/4.1.0/../../../../arm-elf/lib/thumb/interwork/libc.a(iswspace.o)
 .debug_pubnames
                0x0000080f       0xc3 /home/afrendy/projconto/atinom_lipi/atinom-lipi/TOOLCHAIN/bin/../lib/gcc/arm-elf/4.1.0/../../../../arm-elf/lib/thumb/interwork/libc.a(locale.o)
 .debug_pubnames
                0x000008d2       0x21 /home/afrendy/projconto/atinom_lipi/atinom-lipi/TOOLCHAIN/bin/../lib/gcc/arm-elf/4.1.0/../../../../arm-elf/lib/thumb/interwork/libc.a(makebuf.o)
 .debug_pubnames
                0x000008f3       0x2d /home/afrendy/projconto/atinom_lipi/atinom-lipi/TOOLCHAIN/bin/../lib/gcc/arm-elf/4.1.0/../../../../arm-elf/lib/thumb/interwork/libc.a(mbrtowc.o)
 .debug_pubnames
                0x00000920       0x20 /home/afrendy/projconto/atinom_lipi/atinom-lipi/TOOLCHAIN/bin/../lib/gcc/arm-elf/4.1.0/../../../../arm-elf/lib/thumb/interwork/libc.a(mbtowc_r.o)
 .debug_pubnames
                0x00000940       0x1d /home/afrendy/projconto/atinom_lipi/atinom-lipi/TOOLCHAIN/bin/../lib/gcc/arm-elf/4.1.0/../../../../arm-elf/lib/thumb/interwork/libc.a(memchr.o)
 .debug_pubnames
                0x0000095d       0x1e /home/afrendy/projconto/atinom_lipi/atinom-lipi/TOOLCHAIN/bin/../lib/gcc/arm-elf/4.1.0/../../../../arm-elf/lib/thumb/interwork/libc.a(memmove.o)
 .debug_pubnames
                0x0000097b      0x112 /home/afrendy/projconto/atinom_lipi/atinom-lipi/TOOLCHAIN/bin/../lib/gcc/arm-elf/4.1.0/../../../../arm-elf/lib/thumb/interwork/libc.a(mprec.o)
 .debug_pubnames
                0x00000a8d       0x21 /home/afrendy/projconto/atinom_lipi/atinom-lipi/TOOLCHAIN/bin/../lib/gcc/arm-elf/4.1.0/../../../../arm-elf/lib/thumb/interwork/libc.a(reallocr.o)
 .debug_pubnames
                0x00000aae       0x20 /home/afrendy/projconto/atinom_lipi/atinom-lipi/TOOLCHAIN/bin/../lib/gcc/arm-elf/4.1.0/../../../../arm-elf/lib/thumb/interwork/libc.a(refill.o)
 .debug_pubnames
                0x00000ace       0x1c /home/afrendy/projconto/atinom_lipi/atinom-lipi/TOOLCHAIN/bin/../lib/gcc/arm-elf/4.1.0/../../../../arm-elf/lib/thumb/interwork/libc.a(s_isinf.o)
 .debug_pubnames
                0x00000aea       0x1c /home/afrendy/projconto/atinom_lipi/atinom-lipi/TOOLCHAIN/bin/../lib/gcc/arm-elf/4.1.0/../../../../arm-elf/lib/thumb/interwork/libc.a(s_isnan.o)
 .debug_pubnames
                0x00000b06       0x1d /home/afrendy/projconto/atinom_lipi/atinom-lipi/TOOLCHAIN/bin/../lib/gcc/arm-elf/4.1.0/../../../../arm-elf/lib/thumb/interwork/libc.a(sccl.o)
 .debug_pubnames
                0x00000b23       0x1b /home/afrendy/projconto/atinom_lipi/atinom-lipi/TOOLCHAIN/bin/../lib/gcc/arm-elf/4.1.0/../../../../arm-elf/lib/thumb/interwork/libc.a(sf_nan.o)
 .debug_pubnames
                0x00000b3e       0x44 /home/afrendy/projconto/atinom_lipi/atinom-lipi/TOOLCHAIN/bin/../lib/gcc/arm-elf/4.1.0/../../../../arm-elf/lib/thumb/interwork/libc.a(stdio.o)
 .debug_pubnames
                0x00000b82       0x36 /home/afrendy/projconto/atinom_lipi/atinom-lipi/TOOLCHAIN/bin/../lib/gcc/arm-elf/4.1.0/../../../../arm-elf/lib/thumb/interwork/libc.a(strtod.o)
 .debug_pubnames
                0x00000bb8       0x2b /home/afrendy/projconto/atinom_lipi/atinom-lipi/TOOLCHAIN/bin/../lib/gcc/arm-elf/4.1.0/../../../../arm-elf/lib/thumb/interwork/libc.a(strtol.o)
 .debug_pubnames
                0x00000be3       0x2d /home/afrendy/projconto/atinom_lipi/atinom-lipi/TOOLCHAIN/bin/../lib/gcc/arm-elf/4.1.0/../../../../arm-elf/lib/thumb/interwork/libc.a(strtoul.o)
 .debug_pubnames
                0x00000c10      0x158 /home/afrendy/projconto/atinom_lipi/atinom-lipi/TOOLCHAIN/bin/../lib/gcc/arm-elf/4.1.0/../../../../arm-elf/lib/thumb/interwork/libc.a(syscalls.o)
 .debug_pubnames
                0x00000d68       0x39 /home/afrendy/projconto/atinom_lipi/atinom-lipi/TOOLCHAIN/bin/../lib/gcc/arm-elf/4.1.0/../../../../arm-elf/lib/thumb/interwork/libc.a(ungetc.o)
 .debug_pubnames
                0x00000da1       0x20 /home/afrendy/projconto/atinom_lipi/atinom-lipi/TOOLCHAIN/bin/../lib/gcc/arm-elf/4.1.0/../../../../arm-elf/lib/thumb/interwork/libc.a(callocr.o)
 .debug_pubnames
                0x00000dc1       0x1e /home/afrendy/projconto/atinom_lipi/atinom-lipi/TOOLCHAIN/bin/../lib/gcc/arm-elf/4.1.0/../../../../arm-elf/lib/thumb/interwork/libc.a(errno.o)
 .debug_pubnames
                0x00000ddf       0x2b /home/afrendy/projconto/atinom_lipi/atinom-lipi/TOOLCHAIN/bin/../lib/gcc/arm-elf/4.1.0/../../../../arm-elf/lib/thumb/interwork/libc.a(fclose.o)
 .debug_pubnames
                0x00000e0a       0x1a /home/afrendy/projconto/atinom_lipi/atinom-lipi/TOOLCHAIN/bin/../lib/gcc/arm-elf/4.1.0/../../../../arm-elf/lib/thumb/interwork/libc.a(s_nan.o)
 .debug_pubnames
                0x00000e24       0x1f /home/afrendy/projconto/atinom_lipi/atinom-lipi/TOOLCHAIN/bin/../lib/gcc/arm-elf/4.1.0/thumb/interwork/libgcc.a(_muldi3.o)
 .debug_pubnames
                0x00000e43       0x23 /home/afrendy/projconto/atinom_lipi/atinom-lipi/TOOLCHAIN/bin/../lib/gcc/arm-elf/4.1.0/thumb/interwork/libgcc.a(_fixunsdfsi.o)
 .debug_pubnames
                0x00000e66       0x2c /home/afrendy/projconto/atinom_lipi/atinom-lipi/TOOLCHAIN/bin/../lib/gcc/arm-elf/4.1.0/thumb/interwork/libgcc.a(_addsub_sf.o)
 .debug_pubnames
                0x00000e92       0x1f /home/afrendy/projconto/atinom_lipi/atinom-lipi/TOOLCHAIN/bin/../lib/gcc/arm-elf/4.1.0/thumb/interwork/libgcc.a(_div_sf.o)
 .debug_pubnames
                0x00000eb1       0x1e /home/afrendy/projconto/atinom_lipi/atinom-lipi/TOOLCHAIN/bin/../lib/gcc/arm-elf/4.1.0/thumb/interwork/libgcc.a(_gt_sf.o)
 .debug_pubnames
                0x00000ecf       0x24 /home/afrendy/projconto/atinom_lipi/atinom-lipi/TOOLCHAIN/bin/../lib/gcc/arm-elf/4.1.0/thumb/interwork/libgcc.a(_sf_to_df.o)
 .debug_pubnames
                0x00000ef3       0x22 /home/afrendy/projconto/atinom_lipi/atinom-lipi/TOOLCHAIN/bin/../lib/gcc/arm-elf/4.1.0/thumb/interwork/libgcc.a(_thenan_sf.o)
 .debug_pubnames
                0x00000f15       0x2c /home/afrendy/projconto/atinom_lipi/atinom-lipi/TOOLCHAIN/bin/../lib/gcc/arm-elf/4.1.0/thumb/interwork/libgcc.a(_addsub_df.o)
 .debug_pubnames
                0x00000f41       0x1f /home/afrendy/projconto/atinom_lipi/atinom-lipi/TOOLCHAIN/bin/../lib/gcc/arm-elf/4.1.0/thumb/interwork/libgcc.a(_mul_df.o)
 .debug_pubnames
                0x00000f60       0x1f /home/afrendy/projconto/atinom_lipi/atinom-lipi/TOOLCHAIN/bin/../lib/gcc/arm-elf/4.1.0/thumb/interwork/libgcc.a(_div_df.o)
 .debug_pubnames
                0x00000f7f       0x1e /home/afrendy/projconto/atinom_lipi/atinom-lipi/TOOLCHAIN/bin/../lib/gcc/arm-elf/4.1.0/thumb/interwork/libgcc.a(_eq_df.o)
 .debug_pubnames
                0x00000f9d       0x1e /home/afrendy/projconto/atinom_lipi/atinom-lipi/TOOLCHAIN/bin/../lib/gcc/arm-elf/4.1.0/thumb/interwork/libgcc.a(_ne_df.o)
 .debug_pubnames
                0x00000fbb       0x1e /home/afrendy/projconto/atinom_lipi/atinom-lipi/TOOLCHAIN/bin/../lib/gcc/arm-elf/4.1.0/thumb/interwork/libgcc.a(_gt_df.o)
 .debug_pubnames
                0x00000fd9       0x1e /home/afrendy/projconto/atinom_lipi/atinom-lipi/TOOLCHAIN/bin/../lib/gcc/arm-elf/4.1.0/thumb/interwork/libgcc.a(_ge_df.o)
 .debug_pubnames
                0x00000ff7       0x1e /home/afrendy/projconto/atinom_lipi/atinom-lipi/TOOLCHAIN/bin/../lib/gcc/arm-elf/4.1.0/thumb/interwork/libgcc.a(_lt_df.o)
 .debug_pubnames
                0x00001015       0x1e /home/afrendy/projconto/atinom_lipi/atinom-lipi/TOOLCHAIN/bin/../lib/gcc/arm-elf/4.1.0/thumb/interwork/libgcc.a(_le_df.o)
 .debug_pubnames
                0x00001033       0x22 /home/afrendy/projconto/atinom_lipi/atinom-lipi/TOOLCHAIN/bin/../lib/gcc/arm-elf/4.1.0/thumb/interwork/libgcc.a(_si_to_df.o)
 .debug_pubnames
                0x00001055       0x20 /home/afrendy/projconto/atinom_lipi/atinom-lipi/TOOLCHAIN/bin/../lib/gcc/arm-elf/4.1.0/thumb/interwork/libgcc.a(_df_to_si.o)
 .debug_pubnames
                0x00001075       0x20 /home/afrendy/projconto/atinom_lipi/atinom-lipi/TOOLCHAIN/bin/../lib/gcc/arm-elf/4.1.0/thumb/interwork/libgcc.a(_make_df.o)
 .debug_pubnames
                0x00001095       0x23 /home/afrendy/projconto/atinom_lipi/atinom-lipi/TOOLCHAIN/bin/../lib/gcc/arm-elf/4.1.0/thumb/interwork/libgcc.a(_df_to_sf.o)
 .debug_pubnames
                0x000010b8       0x22 /home/afrendy/projconto/atinom_lipi/atinom-lipi/TOOLCHAIN/bin/../lib/gcc/arm-elf/4.1.0/thumb/interwork/libgcc.a(_thenan_df.o)
 .debug_pubnames
                0x000010da       0x1f /home/afrendy/projconto/atinom_lipi/atinom-lipi/TOOLCHAIN/bin/../lib/gcc/arm-elf/4.1.0/thumb/interwork/libgcc.a(_pack_sf.o)
 .debug_pubnames
                0x000010f9       0x21 /home/afrendy/projconto/atinom_lipi/atinom-lipi/TOOLCHAIN/bin/../lib/gcc/arm-elf/4.1.0/thumb/interwork/libgcc.a(_unpack_sf.o)
 .debug_pubnames
                0x0000111a       0x26 /home/afrendy/projconto/atinom_lipi/atinom-lipi/TOOLCHAIN/bin/../lib/gcc/arm-elf/4.1.0/thumb/interwork/libgcc.a(_fpcmp_parts_sf.o)
 .debug_pubnames
                0x00001140       0x20 /home/afrendy/projconto/atinom_lipi/atinom-lipi/TOOLCHAIN/bin/../lib/gcc/arm-elf/4.1.0/thumb/interwork/libgcc.a(_make_sf.o)
 .debug_pubnames
                0x00001160       0x1f /home/afrendy/projconto/atinom_lipi/atinom-lipi/TOOLCHAIN/bin/../lib/gcc/arm-elf/4.1.0/thumb/interwork/libgcc.a(_pack_df.o)
 .debug_pubnames
                0x0000117f       0x21 /home/afrendy/projconto/atinom_lipi/atinom-lipi/TOOLCHAIN/bin/../lib/gcc/arm-elf/4.1.0/thumb/interwork/libgcc.a(_unpack_df.o)
 .debug_pubnames
                0x000011a0       0x26 /home/afrendy/projconto/atinom_lipi/atinom-lipi/TOOLCHAIN/bin/../lib/gcc/arm-elf/4.1.0/thumb/interwork/libgcc.a(_fpcmp_parts_df.o)
 .debug_pubnames
                0x000011c6       0x1a /home/afrendy/projconto/atinom_lipi/atinom-lipi/TOOLCHAIN/bin/../lib/gcc/arm-elf/4.1.0/../../../../arm-elf/lib/thumb/interwork/libm.a(w_pow.o)
 .debug_pubnames
                0x000011e0       0x24 /home/afrendy/projconto/atinom_lipi/atinom-lipi/TOOLCHAIN/bin/../lib/gcc/arm-elf/4.1.0/../../../../arm-elf/lib/thumb/interwork/libm.a(e_pow.o)
 .debug_pubnames
                0x00001204       0x25 /home/afrendy/projconto/atinom_lipi/atinom-lipi/TOOLCHAIN/bin/../lib/gcc/arm-elf/4.1.0/../../../../arm-elf/lib/thumb/interwork/libm.a(e_sqrt.o)
 .debug_pubnames
                0x00001229       0x1b /home/afrendy/projconto/atinom_lipi/atinom-lipi/TOOLCHAIN/bin/../lib/gcc/arm-elf/4.1.0/../../../../arm-elf/lib/thumb/interwork/libm.a(s_fabs.o)
 .debug_pubnames
                0x00001244       0x1d /home/afrendy/projconto/atinom_lipi/atinom-lipi/TOOLCHAIN/bin/../lib/gcc/arm-elf/4.1.0/../../../../arm-elf/lib/thumb/interwork/libm.a(s_finite.o)
 .debug_pubnames
                0x00001261       0x26 /home/afrendy/projconto/atinom_lipi/atinom-lipi/TOOLCHAIN/bin/../lib/gcc/arm-elf/4.1.0/../../../../arm-elf/lib/thumb/interwork/libm.a(s_lib_ver.o)
 .debug_pubnames
                0x00001287       0x1e /home/afrendy/projconto/atinom_lipi/atinom-lipi/TOOLCHAIN/bin/../lib/gcc/arm-elf/4.1.0/../../../../arm-elf/lib/thumb/interwork/libm.a(s_matherr.o)
 .debug_pubnames
                0x000012a5       0x1b /home/afrendy/projconto/atinom_lipi/atinom-lipi/TOOLCHAIN/bin/../lib/gcc/arm-elf/4.1.0/../../../../arm-elf/lib/thumb/interwork/libm.a(s_rint.o)
 .debug_pubnames
                0x000012c0       0x1d /home/afrendy/projconto/atinom_lipi/atinom-lipi/TOOLCHAIN/bin/../lib/gcc/arm-elf/4.1.0/../../../../arm-elf/lib/thumb/interwork/libm.a(s_scalbn.o)
 .debug_pubnames
                0x000012dd       0x1f /home/afrendy/projconto/atinom_lipi/atinom-lipi/TOOLCHAIN/bin/../lib/gcc/arm-elf/4.1.0/../../../../arm-elf/lib/thumb/interwork/libm.a(s_copysign.o)

.debug_aranges  0x00000000      0xd20
 .debug_aranges
                0x00000000       0x20 /home/afrendy/projconto/atinom_lipi/atinom-lipi/TOOLCHAIN/bin/../lib/gcc/arm-elf/4.1.0/../../../../arm-elf/lib/thumb/interwork/libc.a(ctime.o)
 .debug_aranges
                0x00000020       0x20 /home/afrendy/projconto/atinom_lipi/atinom-lipi/TOOLCHAIN/bin/../lib/gcc/arm-elf/4.1.0/../../../../arm-elf/lib/thumb/interwork/libc.a(div.o)
 .debug_aranges
                0x00000040       0x20 /home/afrendy/projconto/atinom_lipi/atinom-lipi/TOOLCHAIN/bin/../lib/gcc/arm-elf/4.1.0/../../../../arm-elf/lib/thumb/interwork/libc.a(lcltime.o)
 .debug_aranges
                0x00000060       0x20 /home/afrendy/projconto/atinom_lipi/atinom-lipi/TOOLCHAIN/bin/../lib/gcc/arm-elf/4.1.0/../../../../arm-elf/lib/thumb/interwork/libc.a(lcltime_r.o)
 .debug_aranges
                0x00000080       0x20 /home/afrendy/projconto/atinom_lipi/atinom-lipi/TOOLCHAIN/bin/../lib/gcc/arm-elf/4.1.0/../../../../arm-elf/lib/thumb/interwork/libc.a(malloc.o)
 .debug_aranges
                0x000000a0       0x20 /home/afrendy/projconto/atinom_lipi/atinom-lipi/TOOLCHAIN/bin/../lib/gcc/arm-elf/4.1.0/../../../../arm-elf/lib/thumb/interwork/libc.a(mallocr.o)
 .debug_aranges
                0x000000c0       0x20 /home/afrendy/projconto/atinom_lipi/atinom-lipi/TOOLCHAIN/bin/../lib/gcc/arm-elf/4.1.0/../../../../arm-elf/lib/thumb/interwork/libc.a(memcpy.o)
 .debug_aranges
                0x000000e0       0x20 /home/afrendy/projconto/atinom_lipi/atinom-lipi/TOOLCHAIN/bin/../lib/gcc/arm-elf/4.1.0/../../../../arm-elf/lib/thumb/interwork/libc.a(memset.o)
 .debug_aranges
                0x00000100       0x20 /home/afrendy/projconto/atinom_lipi/atinom-lipi/TOOLCHAIN/bin/../lib/gcc/arm-elf/4.1.0/../../../../arm-elf/lib/thumb/interwork/libc.a(mktime.o)
 .debug_aranges
                0x00000120       0x20 /home/afrendy/projconto/atinom_lipi/atinom-lipi/TOOLCHAIN/bin/../lib/gcc/arm-elf/4.1.0/../../../../arm-elf/lib/thumb/interwork/libc.a(mktm_r.o)
 .debug_aranges
                0x00000140       0x20 /home/afrendy/projconto/atinom_lipi/atinom-lipi/TOOLCHAIN/bin/../lib/gcc/arm-elf/4.1.0/../../../../arm-elf/lib/thumb/interwork/libc.a(mlock.o)
 .debug_aranges
                0x00000160       0x20 /home/afrendy/projconto/atinom_lipi/atinom-lipi/TOOLCHAIN/bin/../lib/gcc/arm-elf/4.1.0/../../../../arm-elf/lib/thumb/interwork/libc.a(rand.o)
 .debug_aranges
                0x00000180       0x20 /home/afrendy/projconto/atinom_lipi/atinom-lipi/TOOLCHAIN/bin/../lib/gcc/arm-elf/4.1.0/../../../../arm-elf/lib/thumb/interwork/libc.a(snprintf.o)
 .debug_aranges
                0x000001a0       0x20 /home/afrendy/projconto/atinom_lipi/atinom-lipi/TOOLCHAIN/bin/../lib/gcc/arm-elf/4.1.0/../../../../arm-elf/lib/thumb/interwork/libc.a(sprintf.o)
 .debug_aranges
                0x000001c0       0x20 /home/afrendy/projconto/atinom_lipi/atinom-lipi/TOOLCHAIN/bin/../lib/gcc/arm-elf/4.1.0/../../../../arm-elf/lib/thumb/interwork/libc.a(sscanf.o)
 .debug_aranges
                0x000001e0       0x20 /home/afrendy/projconto/atinom_lipi/atinom-lipi/TOOLCHAIN/bin/../lib/gcc/arm-elf/4.1.0/../../../../arm-elf/lib/thumb/interwork/libc.a(strcat.o)
 .debug_aranges
                0x00000200       0x20 /home/afrendy/projconto/atinom_lipi/atinom-lipi/TOOLCHAIN/bin/../lib/gcc/arm-elf/4.1.0/../../../../arm-elf/lib/thumb/interwork/libc.a(strchr.o)
 .debug_aranges
                0x00000220       0x20 /home/afrendy/projconto/atinom_lipi/atinom-lipi/TOOLCHAIN/bin/../lib/gcc/arm-elf/4.1.0/../../../../arm-elf/lib/thumb/interwork/libc.a(strcmp.o)
 .debug_aranges
                0x00000240       0x20 /home/afrendy/projconto/atinom_lipi/atinom-lipi/TOOLCHAIN/bin/../lib/gcc/arm-elf/4.1.0/../../../../arm-elf/lib/thumb/interwork/libc.a(strcpy.o)
 .debug_aranges
                0x00000260       0x20 /home/afrendy/projconto/atinom_lipi/atinom-lipi/TOOLCHAIN/bin/../lib/gcc/arm-elf/4.1.0/../../../../arm-elf/lib/thumb/interwork/libc.a(strlen.o)
 .debug_aranges
                0x00000280       0x20 /home/afrendy/projconto/atinom_lipi/atinom-lipi/TOOLCHAIN/bin/../lib/gcc/arm-elf/4.1.0/../../../../arm-elf/lib/thumb/interwork/libc.a(strncmp.o)
 .debug_aranges
                0x000002a0       0x20 /home/afrendy/projconto/atinom_lipi/atinom-lipi/TOOLCHAIN/bin/../lib/gcc/arm-elf/4.1.0/../../../../arm-elf/lib/thumb/interwork/libc.a(strncpy.o)
 .debug_aranges
                0x000002c0       0x20 /home/afrendy/projconto/atinom_lipi/atinom-lipi/TOOLCHAIN/bin/../lib/gcc/arm-elf/4.1.0/../../../../arm-elf/lib/thumb/interwork/libc.a(strrchr.o)
 .debug_aranges
                0x000002e0       0x20 /home/afrendy/projconto/atinom_lipi/atinom-lipi/TOOLCHAIN/bin/../lib/gcc/arm-elf/4.1.0/../../../../arm-elf/lib/thumb/interwork/libc.a(tzlock.o)
 .debug_aranges
                0x00000300       0x20 /home/afrendy/projconto/atinom_lipi/atinom-lipi/TOOLCHAIN/bin/../lib/gcc/arm-elf/4.1.0/../../../../arm-elf/lib/thumb/interwork/libc.a(vfprintf.o)
 .debug_aranges
                0x00000320       0x20 /home/afrendy/projconto/atinom_lipi/atinom-lipi/TOOLCHAIN/bin/../lib/gcc/arm-elf/4.1.0/../../../../arm-elf/lib/thumb/interwork/libc.a(vfscanf.o)
 .debug_aranges
                0x00000340       0x20 /home/afrendy/projconto/atinom_lipi/atinom-lipi/TOOLCHAIN/bin/../lib/gcc/arm-elf/4.1.0/../../../../arm-elf/lib/thumb/interwork/libc.a(vsprintf.o)
 .debug_aranges
                0x00000360       0x20 /home/afrendy/projconto/atinom_lipi/atinom-lipi/TOOLCHAIN/bin/../lib/gcc/arm-elf/4.1.0/../../../../arm-elf/lib/thumb/interwork/libc.a(wcrtomb.o)
 .debug_aranges
                0x00000380       0x20 /home/afrendy/projconto/atinom_lipi/atinom-lipi/TOOLCHAIN/bin/../lib/gcc/arm-elf/4.1.0/../../../../arm-elf/lib/thumb/interwork/libc.a(wcsrtombs.o)
 .debug_aranges
                0x000003a0       0x20 /home/afrendy/projconto/atinom_lipi/atinom-lipi/TOOLCHAIN/bin/../lib/gcc/arm-elf/4.1.0/../../../../arm-elf/lib/thumb/interwork/libc.a(wctomb_r.o)
 .debug_aranges
                0x000003c0       0x20 /home/afrendy/projconto/atinom_lipi/atinom-lipi/TOOLCHAIN/bin/../lib/gcc/arm-elf/4.1.0/../../../../arm-elf/lib/thumb/interwork/libc.a(wsetup.o)
 .debug_aranges
                0x000003e0       0x20 /home/afrendy/projconto/atinom_lipi/atinom-lipi/TOOLCHAIN/bin/../lib/gcc/arm-elf/4.1.0/../../../../arm-elf/lib/thumb/interwork/libc.a(asctime.o)
 .debug_aranges
                0x00000400       0x20 /home/afrendy/projconto/atinom_lipi/atinom-lipi/TOOLCHAIN/bin/../lib/gcc/arm-elf/4.1.0/../../../../arm-elf/lib/thumb/interwork/libc.a(asctime_r.o)
 .debug_aranges
                0x00000420       0x20 /home/afrendy/projconto/atinom_lipi/atinom-lipi/TOOLCHAIN/bin/../lib/gcc/arm-elf/4.1.0/../../../../arm-elf/lib/thumb/interwork/libc.a(dtoa.o)
 .debug_aranges
                0x00000440       0x20 /home/afrendy/projconto/atinom_lipi/atinom-lipi/TOOLCHAIN/bin/../lib/gcc/arm-elf/4.1.0/../../../../arm-elf/lib/thumb/interwork/libc.a(fflush.o)
 .debug_aranges
                0x00000460       0x20 /home/afrendy/projconto/atinom_lipi/atinom-lipi/TOOLCHAIN/bin/../lib/gcc/arm-elf/4.1.0/../../../../arm-elf/lib/thumb/interwork/libc.a(findfp.o)
 .debug_aranges
                0x00000480       0x20 /home/afrendy/projconto/atinom_lipi/atinom-lipi/TOOLCHAIN/bin/../lib/gcc/arm-elf/4.1.0/../../../../arm-elf/lib/thumb/interwork/libc.a(fread.o)
 .debug_aranges
                0x000004a0       0x20 /home/afrendy/projconto/atinom_lipi/atinom-lipi/TOOLCHAIN/bin/../lib/gcc/arm-elf/4.1.0/../../../../arm-elf/lib/thumb/interwork/libc.a(freer.o)
 .debug_aranges
                0x000004c0       0x20 /home/afrendy/projconto/atinom_lipi/atinom-lipi/TOOLCHAIN/bin/../lib/gcc/arm-elf/4.1.0/../../../../arm-elf/lib/thumb/interwork/libc.a(fvwrite.o)
 .debug_aranges
                0x000004e0       0x20 /home/afrendy/projconto/atinom_lipi/atinom-lipi/TOOLCHAIN/bin/../lib/gcc/arm-elf/4.1.0/../../../../arm-elf/lib/thumb/interwork/libc.a(fwalk.o)
 .debug_aranges
                0x00000500       0x20 /home/afrendy/projconto/atinom_lipi/atinom-lipi/TOOLCHAIN/bin/../lib/gcc/arm-elf/4.1.0/../../../../arm-elf/lib/thumb/interwork/libc.a(gettzinfo.o)
 .debug_aranges
                0x00000520       0x20 /home/afrendy/projconto/atinom_lipi/atinom-lipi/TOOLCHAIN/bin/../lib/gcc/arm-elf/4.1.0/../../../../arm-elf/lib/thumb/interwork/libc.a(iswspace.o)
 .debug_aranges
                0x00000540       0x20 /home/afrendy/projconto/atinom_lipi/atinom-lipi/TOOLCHAIN/bin/../lib/gcc/arm-elf/4.1.0/../../../../arm-elf/lib/thumb/interwork/libc.a(locale.o)
 .debug_aranges
                0x00000560       0x20 /home/afrendy/projconto/atinom_lipi/atinom-lipi/TOOLCHAIN/bin/../lib/gcc/arm-elf/4.1.0/../../../../arm-elf/lib/thumb/interwork/libc.a(makebuf.o)
 .debug_aranges
                0x00000580       0x20 /home/afrendy/projconto/atinom_lipi/atinom-lipi/TOOLCHAIN/bin/../lib/gcc/arm-elf/4.1.0/../../../../arm-elf/lib/thumb/interwork/libc.a(mbrtowc.o)
 .debug_aranges
                0x000005a0       0x20 /home/afrendy/projconto/atinom_lipi/atinom-lipi/TOOLCHAIN/bin/../lib/gcc/arm-elf/4.1.0/../../../../arm-elf/lib/thumb/interwork/libc.a(mbtowc_r.o)
 .debug_aranges
                0x000005c0       0x20 /home/afrendy/projconto/atinom_lipi/atinom-lipi/TOOLCHAIN/bin/../lib/gcc/arm-elf/4.1.0/../../../../arm-elf/lib/thumb/interwork/libc.a(memchr.o)
 .debug_aranges
                0x000005e0       0x20 /home/afrendy/projconto/atinom_lipi/atinom-lipi/TOOLCHAIN/bin/../lib/gcc/arm-elf/4.1.0/../../../../arm-elf/lib/thumb/interwork/libc.a(memmove.o)
 .debug_aranges
                0x00000600       0x20 /home/afrendy/projconto/atinom_lipi/atinom-lipi/TOOLCHAIN/bin/../lib/gcc/arm-elf/4.1.0/../../../../arm-elf/lib/thumb/interwork/libc.a(mprec.o)
 .debug_aranges
                0x00000620       0x20 /home/afrendy/projconto/atinom_lipi/atinom-lipi/TOOLCHAIN/bin/../lib/gcc/arm-elf/4.1.0/../../../../arm-elf/lib/thumb/interwork/libc.a(reallocr.o)
 .debug_aranges
                0x00000640       0x20 /home/afrendy/projconto/atinom_lipi/atinom-lipi/TOOLCHAIN/bin/../lib/gcc/arm-elf/4.1.0/../../../../arm-elf/lib/thumb/interwork/libc.a(refill.o)
 .debug_aranges
                0x00000660       0x20 /home/afrendy/projconto/atinom_lipi/atinom-lipi/TOOLCHAIN/bin/../lib/gcc/arm-elf/4.1.0/../../../../arm-elf/lib/thumb/interwork/libc.a(s_isinf.o)
 .debug_aranges
                0x00000680       0x20 /home/afrendy/projconto/atinom_lipi/atinom-lipi/TOOLCHAIN/bin/../lib/gcc/arm-elf/4.1.0/../../../../arm-elf/lib/thumb/interwork/libc.a(s_isnan.o)
 .debug_aranges
                0x000006a0       0x20 /home/afrendy/projconto/atinom_lipi/atinom-lipi/TOOLCHAIN/bin/../lib/gcc/arm-elf/4.1.0/../../../../arm-elf/lib/thumb/interwork/libc.a(sccl.o)
 .debug_aranges
                0x000006c0       0x20 /home/afrendy/projconto/atinom_lipi/atinom-lipi/TOOLCHAIN/bin/../lib/gcc/arm-elf/4.1.0/../../../../arm-elf/lib/thumb/interwork/libc.a(sf_nan.o)
 .debug_aranges
                0x000006e0       0x20 /home/afrendy/projconto/atinom_lipi/atinom-lipi/TOOLCHAIN/bin/../lib/gcc/arm-elf/4.1.0/../../../../arm-elf/lib/thumb/interwork/libc.a(stdio.o)
 .debug_aranges
                0x00000700       0x20 /home/afrendy/projconto/atinom_lipi/atinom-lipi/TOOLCHAIN/bin/../lib/gcc/arm-elf/4.1.0/../../../../arm-elf/lib/thumb/interwork/libc.a(strtod.o)
 .debug_aranges
                0x00000720       0x20 /home/afrendy/projconto/atinom_lipi/atinom-lipi/TOOLCHAIN/bin/../lib/gcc/arm-elf/4.1.0/../../../../arm-elf/lib/thumb/interwork/libc.a(strtol.o)
 .debug_aranges
                0x00000740       0x20 /home/afrendy/projconto/atinom_lipi/atinom-lipi/TOOLCHAIN/bin/../lib/gcc/arm-elf/4.1.0/../../../../arm-elf/lib/thumb/interwork/libc.a(strtoul.o)
 .debug_aranges
                0x00000760       0x20 /home/afrendy/projconto/atinom_lipi/atinom-lipi/TOOLCHAIN/bin/../lib/gcc/arm-elf/4.1.0/../../../../arm-elf/lib/thumb/interwork/libc.a(syscalls.o)
 .debug_aranges
                0x00000780       0x20 /home/afrendy/projconto/atinom_lipi/atinom-lipi/TOOLCHAIN/bin/../lib/gcc/arm-elf/4.1.0/../../../../arm-elf/lib/thumb/interwork/libc.a(ungetc.o)
 .debug_aranges
                0x000007a0       0x20 /home/afrendy/projconto/atinom_lipi/atinom-lipi/TOOLCHAIN/bin/../lib/gcc/arm-elf/4.1.0/../../../../arm-elf/lib/thumb/interwork/libc.a(callocr.o)
 .debug_aranges
                0x000007c0       0x20 /home/afrendy/projconto/atinom_lipi/atinom-lipi/TOOLCHAIN/bin/../lib/gcc/arm-elf/4.1.0/../../../../arm-elf/lib/thumb/interwork/libc.a(errno.o)
 .debug_aranges
                0x000007e0       0x20 /home/afrendy/projconto/atinom_lipi/atinom-lipi/TOOLCHAIN/bin/../lib/gcc/arm-elf/4.1.0/../../../../arm-elf/lib/thumb/interwork/libc.a(fclose.o)
 .debug_aranges
                0x00000800       0x20 /home/afrendy/projconto/atinom_lipi/atinom-lipi/TOOLCHAIN/bin/../lib/gcc/arm-elf/4.1.0/../../../../arm-elf/lib/thumb/interwork/libc.a(s_nan.o)
 .debug_aranges
                0x00000820       0x20 /home/afrendy/projconto/atinom_lipi/atinom-lipi/TOOLCHAIN/bin/../lib/gcc/arm-elf/4.1.0/thumb/interwork/libgcc.a(_udivsi3.o)
 .debug_aranges
                0x00000840       0x20 /home/afrendy/projconto/atinom_lipi/atinom-lipi/TOOLCHAIN/bin/../lib/gcc/arm-elf/4.1.0/thumb/interwork/libgcc.a(_divsi3.o)
 .debug_aranges
                0x00000860       0x20 /home/afrendy/projconto/atinom_lipi/atinom-lipi/TOOLCHAIN/bin/../lib/gcc/arm-elf/4.1.0/thumb/interwork/libgcc.a(_umodsi3.o)
 .debug_aranges
                0x00000880       0x20 /home/afrendy/projconto/atinom_lipi/atinom-lipi/TOOLCHAIN/bin/../lib/gcc/arm-elf/4.1.0/thumb/interwork/libgcc.a(_modsi3.o)
 .debug_aranges
                0x000008a0       0x20 /home/afrendy/projconto/atinom_lipi/atinom-lipi/TOOLCHAIN/bin/../lib/gcc/arm-elf/4.1.0/thumb/interwork/libgcc.a(_dvmd_tls.o)
 .debug_aranges
                0x000008c0       0x20 /home/afrendy/projconto/atinom_lipi/atinom-lipi/TOOLCHAIN/bin/../lib/gcc/arm-elf/4.1.0/thumb/interwork/libgcc.a(_muldi3.o)
 .debug_aranges
                0x000008e0       0x20 /home/afrendy/projconto/atinom_lipi/atinom-lipi/TOOLCHAIN/bin/../lib/gcc/arm-elf/4.1.0/thumb/interwork/libgcc.a(_fixunsdfsi.o)
 .debug_aranges
                0x00000900       0x20 /home/afrendy/projconto/atinom_lipi/atinom-lipi/TOOLCHAIN/bin/../lib/gcc/arm-elf/4.1.0/thumb/interwork/libgcc.a(_addsub_sf.o)
 .debug_aranges
                0x00000920       0x20 /home/afrendy/projconto/atinom_lipi/atinom-lipi/TOOLCHAIN/bin/../lib/gcc/arm-elf/4.1.0/thumb/interwork/libgcc.a(_div_sf.o)
 .debug_aranges
                0x00000940       0x20 /home/afrendy/projconto/atinom_lipi/atinom-lipi/TOOLCHAIN/bin/../lib/gcc/arm-elf/4.1.0/thumb/interwork/libgcc.a(_gt_sf.o)
 .debug_aranges
                0x00000960       0x20 /home/afrendy/projconto/atinom_lipi/atinom-lipi/TOOLCHAIN/bin/../lib/gcc/arm-elf/4.1.0/thumb/interwork/libgcc.a(_sf_to_df.o)
 .debug_aranges
                0x00000980       0x20 /home/afrendy/projconto/atinom_lipi/atinom-lipi/TOOLCHAIN/bin/../lib/gcc/arm-elf/4.1.0/thumb/interwork/libgcc.a(_addsub_df.o)
 .debug_aranges
                0x000009a0       0x20 /home/afrendy/projconto/atinom_lipi/atinom-lipi/TOOLCHAIN/bin/../lib/gcc/arm-elf/4.1.0/thumb/interwork/libgcc.a(_mul_df.o)
 .debug_aranges
                0x000009c0       0x20 /home/afrendy/projconto/atinom_lipi/atinom-lipi/TOOLCHAIN/bin/../lib/gcc/arm-elf/4.1.0/thumb/interwork/libgcc.a(_div_df.o)
 .debug_aranges
                0x000009e0       0x20 /home/afrendy/projconto/atinom_lipi/atinom-lipi/TOOLCHAIN/bin/../lib/gcc/arm-elf/4.1.0/thumb/interwork/libgcc.a(_eq_df.o)
 .debug_aranges
                0x00000a00       0x20 /home/afrendy/projconto/atinom_lipi/atinom-lipi/TOOLCHAIN/bin/../lib/gcc/arm-elf/4.1.0/thumb/interwork/libgcc.a(_ne_df.o)
 .debug_aranges
                0x00000a20       0x20 /home/afrendy/projconto/atinom_lipi/atinom-lipi/TOOLCHAIN/bin/../lib/gcc/arm-elf/4.1.0/thumb/interwork/libgcc.a(_gt_df.o)
 .debug_aranges
                0x00000a40       0x20 /home/afrendy/projconto/atinom_lipi/atinom-lipi/TOOLCHAIN/bin/../lib/gcc/arm-elf/4.1.0/thumb/interwork/libgcc.a(_ge_df.o)
 .debug_aranges
                0x00000a60       0x20 /home/afrendy/projconto/atinom_lipi/atinom-lipi/TOOLCHAIN/bin/../lib/gcc/arm-elf/4.1.0/thumb/interwork/libgcc.a(_lt_df.o)
 .debug_aranges
                0x00000a80       0x20 /home/afrendy/projconto/atinom_lipi/atinom-lipi/TOOLCHAIN/bin/../lib/gcc/arm-elf/4.1.0/thumb/interwork/libgcc.a(_le_df.o)
 .debug_aranges
                0x00000aa0       0x20 /home/afrendy/projconto/atinom_lipi/atinom-lipi/TOOLCHAIN/bin/../lib/gcc/arm-elf/4.1.0/thumb/interwork/libgcc.a(_si_to_df.o)
 .debug_aranges
                0x00000ac0       0x20 /home/afrendy/projconto/atinom_lipi/atinom-lipi/TOOLCHAIN/bin/../lib/gcc/arm-elf/4.1.0/thumb/interwork/libgcc.a(_df_to_si.o)
 .debug_aranges
                0x00000ae0       0x20 /home/afrendy/projconto/atinom_lipi/atinom-lipi/TOOLCHAIN/bin/../lib/gcc/arm-elf/4.1.0/thumb/interwork/libgcc.a(_make_df.o)
 .debug_aranges
                0x00000b00       0x20 /home/afrendy/projconto/atinom_lipi/atinom-lipi/TOOLCHAIN/bin/../lib/gcc/arm-elf/4.1.0/thumb/interwork/libgcc.a(_df_to_sf.o)
 .debug_aranges
                0x00000b20       0x20 /home/afrendy/projconto/atinom_lipi/atinom-lipi/TOOLCHAIN/bin/../lib/gcc/arm-elf/4.1.0/thumb/interwork/libgcc.a(_pack_sf.o)
 .debug_aranges
                0x00000b40       0x20 /home/afrendy/projconto/atinom_lipi/atinom-lipi/TOOLCHAIN/bin/../lib/gcc/arm-elf/4.1.0/thumb/interwork/libgcc.a(_unpack_sf.o)
 .debug_aranges
                0x00000b60       0x20 /home/afrendy/projconto/atinom_lipi/atinom-lipi/TOOLCHAIN/bin/../lib/gcc/arm-elf/4.1.0/thumb/interwork/libgcc.a(_fpcmp_parts_sf.o)
 .debug_aranges
                0x00000b80       0x20 /home/afrendy/projconto/atinom_lipi/atinom-lipi/TOOLCHAIN/bin/../lib/gcc/arm-elf/4.1.0/thumb/interwork/libgcc.a(_make_sf.o)
 .debug_aranges
                0x00000ba0       0x20 /home/afrendy/projconto/atinom_lipi/atinom-lipi/TOOLCHAIN/bin/../lib/gcc/arm-elf/4.1.0/thumb/interwork/libgcc.a(_pack_df.o)
 .debug_aranges
                0x00000bc0       0x20 /home/afrendy/projconto/atinom_lipi/atinom-lipi/TOOLCHAIN/bin/../lib/gcc/arm-elf/4.1.0/thumb/interwork/libgcc.a(_unpack_df.o)
 .debug_aranges
                0x00000be0       0x20 /home/afrendy/projconto/atinom_lipi/atinom-lipi/TOOLCHAIN/bin/../lib/gcc/arm-elf/4.1.0/thumb/interwork/libgcc.a(_fpcmp_parts_df.o)
 .debug_aranges
                0x00000c00       0x20 /home/afrendy/projconto/atinom_lipi/atinom-lipi/TOOLCHAIN/bin/../lib/gcc/arm-elf/4.1.0/../../../../arm-elf/lib/thumb/interwork/libm.a(w_pow.o)
 .debug_aranges
                0x00000c20       0x20 /home/afrendy/projconto/atinom_lipi/atinom-lipi/TOOLCHAIN/bin/../lib/gcc/arm-elf/4.1.0/../../../../arm-elf/lib/thumb/interwork/libm.a(e_pow.o)
 .debug_aranges
                0x00000c40       0x20 /home/afrendy/projconto/atinom_lipi/atinom-lipi/TOOLCHAIN/bin/../lib/gcc/arm-elf/4.1.0/../../../../arm-elf/lib/thumb/interwork/libm.a(e_sqrt.o)
 .debug_aranges
                0x00000c60       0x20 /home/afrendy/projconto/atinom_lipi/atinom-lipi/TOOLCHAIN/bin/../lib/gcc/arm-elf/4.1.0/../../../../arm-elf/lib/thumb/interwork/libm.a(s_fabs.o)
 .debug_aranges
                0x00000c80       0x20 /home/afrendy/projconto/atinom_lipi/atinom-lipi/TOOLCHAIN/bin/../lib/gcc/arm-elf/4.1.0/../../../../arm-elf/lib/thumb/interwork/libm.a(s_finite.o)
 .debug_aranges
                0x00000ca0       0x20 /home/afrendy/projconto/atinom_lipi/atinom-lipi/TOOLCHAIN/bin/../lib/gcc/arm-elf/4.1.0/../../../../arm-elf/lib/thumb/interwork/libm.a(s_matherr.o)
 .debug_aranges
                0x00000cc0       0x20 /home/afrendy/projconto/atinom_lipi/atinom-lipi/TOOLCHAIN/bin/../lib/gcc/arm-elf/4.1.0/../../../../arm-elf/lib/thumb/interwork/libm.a(s_rint.o)
 .debug_aranges
                0x00000ce0       0x20 /home/afrendy/projconto/atinom_lipi/atinom-lipi/TOOLCHAIN/bin/../lib/gcc/arm-elf/4.1.0/../../../../arm-elf/lib/thumb/interwork/libm.a(s_scalbn.o)
 .debug_aranges
                0x00000d00       0x20 /home/afrendy/projconto/atinom_lipi/atinom-lipi/TOOLCHAIN/bin/../lib/gcc/arm-elf/4.1.0/../../../../arm-elf/lib/thumb/interwork/libm.a(s_copysign.o)

.debug_str      0x00000000     0x316b
 .debug_str     0x00000000      0x100 /home/afrendy/projconto/atinom_lipi/atinom-lipi/TOOLCHAIN/bin/../lib/gcc/arm-elf/4.1.0/../../../../arm-elf/lib/thumb/interwork/libc.a(ctime.o)
                                0x13f (size before relaxing)
 .debug_str     0x00000100       0xaa /home/afrendy/projconto/atinom_lipi/atinom-lipi/TOOLCHAIN/bin/../lib/gcc/arm-elf/4.1.0/../../../../arm-elf/lib/thumb/interwork/libc.a(div.o)
                                0x133 (size before relaxing)
 .debug_str     0x000001aa      0x392 /home/afrendy/projconto/atinom_lipi/atinom-lipi/TOOLCHAIN/bin/../lib/gcc/arm-elf/4.1.0/../../../../arm-elf/lib/thumb/interwork/libc.a(lcltime.o)
                                0x52c (size before relaxing)
 .debug_str     0x0000053c       0x53 /home/afrendy/projconto/atinom_lipi/atinom-lipi/TOOLCHAIN/bin/../lib/gcc/arm-elf/4.1.0/../../../../arm-elf/lib/thumb/interwork/libc.a(lcltime_r.o)
                                0x18f (size before relaxing)
 .debug_str     0x0000058f       0x59 /home/afrendy/projconto/atinom_lipi/atinom-lipi/TOOLCHAIN/bin/../lib/gcc/arm-elf/4.1.0/../../../../arm-elf/lib/thumb/interwork/libc.a(malloc.o)
                                0x4e5 (size before relaxing)
 .debug_str     0x000005e8      0x213 /home/afrendy/projconto/atinom_lipi/atinom-lipi/TOOLCHAIN/bin/../lib/gcc/arm-elf/4.1.0/../../../../arm-elf/lib/thumb/interwork/libc.a(mallocr.o)
                                0x6c6 (size before relaxing)
 .debug_str     0x000007fb       0xca /home/afrendy/projconto/atinom_lipi/atinom-lipi/TOOLCHAIN/bin/../lib/gcc/arm-elf/4.1.0/../../../../arm-elf/lib/thumb/interwork/libc.a(memcpy.o)
                                 0xfd (size before relaxing)
 .debug_str     0x000008c5       0x61 /home/afrendy/projconto/atinom_lipi/atinom-lipi/TOOLCHAIN/bin/../lib/gcc/arm-elf/4.1.0/../../../../arm-elf/lib/thumb/interwork/libc.a(memset.o)
                                0x147 (size before relaxing)
 .debug_str     0x00000926      0x11b /home/afrendy/projconto/atinom_lipi/atinom-lipi/TOOLCHAIN/bin/../lib/gcc/arm-elf/4.1.0/../../../../arm-elf/lib/thumb/interwork/libc.a(mktime.o)
                                0x27e (size before relaxing)
 .debug_str     0x00000a41       0xbd /home/afrendy/projconto/atinom_lipi/atinom-lipi/TOOLCHAIN/bin/../lib/gcc/arm-elf/4.1.0/../../../../arm-elf/lib/thumb/interwork/libc.a(mktm_r.o)
                                0x27a (size before relaxing)
 .debug_str     0x00000afe       0x78 /home/afrendy/projconto/atinom_lipi/atinom-lipi/TOOLCHAIN/bin/../lib/gcc/arm-elf/4.1.0/../../../../arm-elf/lib/thumb/interwork/libc.a(mlock.o)
                                0x4ec (size before relaxing)
 .debug_str     0x00000b76       0x4a /home/afrendy/projconto/atinom_lipi/atinom-lipi/TOOLCHAIN/bin/../lib/gcc/arm-elf/4.1.0/../../../../arm-elf/lib/thumb/interwork/libc.a(rand.o)
                                0x4d4 (size before relaxing)
 .debug_str     0x00000bc0       0xc0 /home/afrendy/projconto/atinom_lipi/atinom-lipi/TOOLCHAIN/bin/../lib/gcc/arm-elf/4.1.0/../../../../arm-elf/lib/thumb/interwork/libc.a(snprintf.o)
                                0x50f (size before relaxing)
 .debug_str     0x00000c80       0x51 /home/afrendy/projconto/atinom_lipi/atinom-lipi/TOOLCHAIN/bin/../lib/gcc/arm-elf/4.1.0/../../../../arm-elf/lib/thumb/interwork/libc.a(sprintf.o)
                                0x500 (size before relaxing)
 .debug_str     0x00000cd1       0x5e /home/afrendy/projconto/atinom_lipi/atinom-lipi/TOOLCHAIN/bin/../lib/gcc/arm-elf/4.1.0/../../../../arm-elf/lib/thumb/interwork/libc.a(sscanf.o)
                                0x50c (size before relaxing)
 .debug_str     0x00000d2f       0x58 /home/afrendy/projconto/atinom_lipi/atinom-lipi/TOOLCHAIN/bin/../lib/gcc/arm-elf/4.1.0/../../../../arm-elf/lib/thumb/interwork/libc.a(strcat.o)
                                0x137 (size before relaxing)
 .debug_str     0x00000d87       0x52 /home/afrendy/projconto/atinom_lipi/atinom-lipi/TOOLCHAIN/bin/../lib/gcc/arm-elf/4.1.0/../../../../arm-elf/lib/thumb/interwork/libc.a(strchr.o)
                                0x13e (size before relaxing)
 .debug_str     0x00000dd9       0x4d /home/afrendy/projconto/atinom_lipi/atinom-lipi/TOOLCHAIN/bin/../lib/gcc/arm-elf/4.1.0/../../../../arm-elf/lib/thumb/interwork/libc.a(strcmp.o)
                                0x12c (size before relaxing)
 .debug_str     0x00000e26       0x4d /home/afrendy/projconto/atinom_lipi/atinom-lipi/TOOLCHAIN/bin/../lib/gcc/arm-elf/4.1.0/../../../../arm-elf/lib/thumb/interwork/libc.a(strcpy.o)
                                0x14e (size before relaxing)
 .debug_str     0x00000e73       0x4d /home/afrendy/projconto/atinom_lipi/atinom-lipi/TOOLCHAIN/bin/../lib/gcc/arm-elf/4.1.0/../../../../arm-elf/lib/thumb/interwork/libc.a(strlen.o)
                                0x146 (size before relaxing)
 .debug_str     0x00000ec0       0x4f /home/afrendy/projconto/atinom_lipi/atinom-lipi/TOOLCHAIN/bin/../lib/gcc/arm-elf/4.1.0/../../../../arm-elf/lib/thumb/interwork/libc.a(strncmp.o)
                                0x135 (size before relaxing)
 .debug_str     0x00000f0f       0x4f /home/afrendy/projconto/atinom_lipi/atinom-lipi/TOOLCHAIN/bin/../lib/gcc/arm-elf/4.1.0/../../../../arm-elf/lib/thumb/interwork/libc.a(strncpy.o)
                                0x15d (size before relaxing)
 .debug_str     0x00000f5e       0x4f /home/afrendy/projconto/atinom_lipi/atinom-lipi/TOOLCHAIN/bin/../lib/gcc/arm-elf/4.1.0/../../../../arm-elf/lib/thumb/interwork/libc.a(strrchr.o)
                                0x133 (size before relaxing)
 .debug_str     0x00000fad       0x6b /home/afrendy/projconto/atinom_lipi/atinom-lipi/TOOLCHAIN/bin/../lib/gcc/arm-elf/4.1.0/../../../../arm-elf/lib/thumb/interwork/libc.a(tzlock.o)
                                0x154 (size before relaxing)
 .debug_str     0x00001018       0x56 /home/afrendy/projconto/atinom_lipi/atinom-lipi/TOOLCHAIN/bin/../lib/gcc/arm-elf/4.1.0/../../../../arm-elf/lib/thumb/interwork/libc.a(tzvars.o)
                                0x149 (size before relaxing)
 .debug_str     0x0000106e      0x1ba /home/afrendy/projconto/atinom_lipi/atinom-lipi/TOOLCHAIN/bin/../lib/gcc/arm-elf/4.1.0/../../../../arm-elf/lib/thumb/interwork/libc.a(vfprintf.o)
                                0x6d1 (size before relaxing)
 .debug_str     0x00001228      0x131 /home/afrendy/projconto/atinom_lipi/atinom-lipi/TOOLCHAIN/bin/../lib/gcc/arm-elf/4.1.0/../../../../arm-elf/lib/thumb/interwork/libc.a(vfscanf.o)
                                0x64b (size before relaxing)
 .debug_str     0x00001359       0x5c /home/afrendy/projconto/atinom_lipi/atinom-lipi/TOOLCHAIN/bin/../lib/gcc/arm-elf/4.1.0/../../../../arm-elf/lib/thumb/interwork/libc.a(vsprintf.o)
                                0x503 (size before relaxing)
 .debug_str     0x000013b5       0x61 /home/afrendy/projconto/atinom_lipi/atinom-lipi/TOOLCHAIN/bin/../lib/gcc/arm-elf/4.1.0/../../../../arm-elf/lib/thumb/interwork/libc.a(wcrtomb.o)
                                0x506 (size before relaxing)
 .debug_str     0x00001416       0x6a /home/afrendy/projconto/atinom_lipi/atinom-lipi/TOOLCHAIN/bin/../lib/gcc/arm-elf/4.1.0/../../../../arm-elf/lib/thumb/interwork/libc.a(wcsrtombs.o)
                                0x51b (size before relaxing)
 .debug_str     0x00001480       0x6f /home/afrendy/projconto/atinom_lipi/atinom-lipi/TOOLCHAIN/bin/../lib/gcc/arm-elf/4.1.0/../../../../arm-elf/lib/thumb/interwork/libc.a(wctomb_r.o)
                                0x4fb (size before relaxing)
 .debug_str     0x000014ef       0x4f /home/afrendy/projconto/atinom_lipi/atinom-lipi/TOOLCHAIN/bin/../lib/gcc/arm-elf/4.1.0/../../../../arm-elf/lib/thumb/interwork/libc.a(wsetup.o)
                                0x4df (size before relaxing)
 .debug_str     0x0000153e       0x4d /home/afrendy/projconto/atinom_lipi/atinom-lipi/TOOLCHAIN/bin/../lib/gcc/arm-elf/4.1.0/../../../../arm-elf/lib/thumb/interwork/libc.a(asctime.o)
                                0x523 (size before relaxing)
 .debug_str     0x0000158b       0x63 /home/afrendy/projconto/atinom_lipi/atinom-lipi/TOOLCHAIN/bin/../lib/gcc/arm-elf/4.1.0/../../../../arm-elf/lib/thumb/interwork/libc.a(asctime_r.o)
                                0x19f (size before relaxing)
 .debug_str     0x000015ee       0xa2 /home/afrendy/projconto/atinom_lipi/atinom-lipi/TOOLCHAIN/bin/../lib/gcc/arm-elf/4.1.0/../../../../arm-elf/lib/thumb/interwork/libc.a(ctype_.o)
                                 0xd1 (size before relaxing)
 .debug_str     0x00001690      0x107 /home/afrendy/projconto/atinom_lipi/atinom-lipi/TOOLCHAIN/bin/../lib/gcc/arm-elf/4.1.0/../../../../arm-elf/lib/thumb/interwork/libc.a(dtoa.o)
                                0x5d6 (size before relaxing)
 .debug_str     0x00001797       0x5f /home/afrendy/projconto/atinom_lipi/atinom-lipi/TOOLCHAIN/bin/../lib/gcc/arm-elf/4.1.0/../../../../arm-elf/lib/thumb/interwork/libc.a(fflush.o)
                                0x4ef (size before relaxing)
 .debug_str     0x000017f6      0x10d /home/afrendy/projconto/atinom_lipi/atinom-lipi/TOOLCHAIN/bin/../lib/gcc/arm-elf/4.1.0/../../../../arm-elf/lib/thumb/interwork/libc.a(findfp.o)
                                0x5c9 (size before relaxing)
 .debug_str     0x00001903       0x6c /home/afrendy/projconto/atinom_lipi/atinom-lipi/TOOLCHAIN/bin/../lib/gcc/arm-elf/4.1.0/../../../../arm-elf/lib/thumb/interwork/libc.a(fread.o)
                                0x51a (size before relaxing)
 .debug_str     0x0000196f       0x3c /home/afrendy/projconto/atinom_lipi/atinom-lipi/TOOLCHAIN/bin/../lib/gcc/arm-elf/4.1.0/../../../../arm-elf/lib/thumb/interwork/libc.a(freer.o)
                                0x618 (size before relaxing)
 .debug_str     0x000019ab       0x67 /home/afrendy/projconto/atinom_lipi/atinom-lipi/TOOLCHAIN/bin/../lib/gcc/arm-elf/4.1.0/../../../../arm-elf/lib/thumb/interwork/libc.a(fvwrite.o)
                                0x53a (size before relaxing)
 .debug_str     0x00001a12       0x69 /home/afrendy/projconto/atinom_lipi/atinom-lipi/TOOLCHAIN/bin/../lib/gcc/arm-elf/4.1.0/../../../../arm-elf/lib/thumb/interwork/libc.a(fwalk.o)
                                0x50a (size before relaxing)
 .debug_str     0x00001a7b       0x53 /home/afrendy/projconto/atinom_lipi/atinom-lipi/TOOLCHAIN/bin/../lib/gcc/arm-elf/4.1.0/../../../../arm-elf/lib/thumb/interwork/libc.a(gettzinfo.o)
                                0x1b0 (size before relaxing)
 .debug_str     0x00001ace       0xa6 /home/afrendy/projconto/atinom_lipi/atinom-lipi/TOOLCHAIN/bin/../lib/gcc/arm-elf/4.1.0/../../../../arm-elf/lib/thumb/interwork/libc.a(impure.o)
                                0x4e3 (size before relaxing)
 .debug_str     0x00001b74       0x58 /home/afrendy/projconto/atinom_lipi/atinom-lipi/TOOLCHAIN/bin/../lib/gcc/arm-elf/4.1.0/../../../../arm-elf/lib/thumb/interwork/libc.a(iswspace.o)
                                0x154 (size before relaxing)
 .debug_str     0x00001bcc      0x1e2 /home/afrendy/projconto/atinom_lipi/atinom-lipi/TOOLCHAIN/bin/../lib/gcc/arm-elf/4.1.0/../../../../arm-elf/lib/thumb/interwork/libc.a(locale.o)
                                0x672 (size before relaxing)
 .debug_str     0x00001dae      0x118 /home/afrendy/projconto/atinom_lipi/atinom-lipi/TOOLCHAIN/bin/../lib/gcc/arm-elf/4.1.0/../../../../arm-elf/lib/thumb/interwork/libc.a(makebuf.o)
                                0x5c6 (size before relaxing)
 .debug_str     0x00001ec6       0x5a /home/afrendy/projconto/atinom_lipi/atinom-lipi/TOOLCHAIN/bin/../lib/gcc/arm-elf/4.1.0/../../../../arm-elf/lib/thumb/interwork/libc.a(mbrtowc.o)
                                0x506 (size before relaxing)
 .debug_str     0x00001f20       0x58 /home/afrendy/projconto/atinom_lipi/atinom-lipi/TOOLCHAIN/bin/../lib/gcc/arm-elf/4.1.0/../../../../arm-elf/lib/thumb/interwork/libc.a(mbtowc_r.o)
                                0x4eb (size before relaxing)
 .debug_str     0x00001f78       0x5b /home/afrendy/projconto/atinom_lipi/atinom-lipi/TOOLCHAIN/bin/../lib/gcc/arm-elf/4.1.0/../../../../arm-elf/lib/thumb/interwork/libc.a(memchr.o)
                                0x154 (size before relaxing)
 .debug_str     0x00001fd3       0x58 /home/afrendy/projconto/atinom_lipi/atinom-lipi/TOOLCHAIN/bin/../lib/gcc/arm-elf/4.1.0/../../../../arm-elf/lib/thumb/interwork/libc.a(memmove.o)
                                0x166 (size before relaxing)
 .debug_str     0x0000202b       0xde /home/afrendy/projconto/atinom_lipi/atinom-lipi/TOOLCHAIN/bin/../lib/gcc/arm-elf/4.1.0/../../../../arm-elf/lib/thumb/interwork/libc.a(mprec.o)
                                0x5be (size before relaxing)
 .debug_str     0x00002109       0x61 /home/afrendy/projconto/atinom_lipi/atinom-lipi/TOOLCHAIN/bin/../lib/gcc/arm-elf/4.1.0/../../../../arm-elf/lib/thumb/interwork/libc.a(reallocr.o)
                                0x598 (size before relaxing)
 .debug_str     0x0000216a       0x56 /home/afrendy/projconto/atinom_lipi/atinom-lipi/TOOLCHAIN/bin/../lib/gcc/arm-elf/4.1.0/../../../../arm-elf/lib/thumb/interwork/libc.a(refill.o)
                                0x4f9 (size before relaxing)
 .debug_str     0x000021c0       0xa9 /home/afrendy/projconto/atinom_lipi/atinom-lipi/TOOLCHAIN/bin/../lib/gcc/arm-elf/4.1.0/../../../../arm-elf/lib/thumb/interwork/libc.a(s_isinf.o)
                                0x157 (size before relaxing)
 .debug_str     0x00002269       0x4b /home/afrendy/projconto/atinom_lipi/atinom-lipi/TOOLCHAIN/bin/../lib/gcc/arm-elf/4.1.0/../../../../arm-elf/lib/thumb/interwork/libc.a(s_isnan.o)
                                0x157 (size before relaxing)
 .debug_str     0x000022b4       0x5a /home/afrendy/projconto/atinom_lipi/atinom-lipi/TOOLCHAIN/bin/../lib/gcc/arm-elf/4.1.0/../../../../arm-elf/lib/thumb/interwork/libc.a(sccl.o)
                                0x144 (size before relaxing)
 .debug_str     0x0000230e       0xa1 /home/afrendy/projconto/atinom_lipi/atinom-lipi/TOOLCHAIN/bin/../lib/gcc/arm-elf/4.1.0/../../../../arm-elf/lib/thumb/interwork/libc.a(sf_nan.o)
                                0x156 (size before relaxing)
 .debug_str     0x000023af       0x74 /home/afrendy/projconto/atinom_lipi/atinom-lipi/TOOLCHAIN/bin/../lib/gcc/arm-elf/4.1.0/../../../../arm-elf/lib/thumb/interwork/libc.a(stdio.o)
                                0x512 (size before relaxing)
 .debug_str     0x00002423       0xbf /home/afrendy/projconto/atinom_lipi/atinom-lipi/TOOLCHAIN/bin/../lib/gcc/arm-elf/4.1.0/../../../../arm-elf/lib/thumb/interwork/libc.a(strtod.o)
                                0x5bc (size before relaxing)
 .debug_str     0x000024e2       0x6c /home/afrendy/projconto/atinom_lipi/atinom-lipi/TOOLCHAIN/bin/../lib/gcc/arm-elf/4.1.0/../../../../arm-elf/lib/thumb/interwork/libc.a(strtol.o)
                                0x507 (size before relaxing)
 .debug_str     0x0000254e       0x5a /home/afrendy/projconto/atinom_lipi/atinom-lipi/TOOLCHAIN/bin/../lib/gcc/arm-elf/4.1.0/../../../../arm-elf/lib/thumb/interwork/libc.a(strtoul.o)
                                0x50a (size before relaxing)
 .debug_str     0x000025a8      0x288 /home/afrendy/projconto/atinom_lipi/atinom-lipi/TOOLCHAIN/bin/../lib/gcc/arm-elf/4.1.0/../../../../arm-elf/lib/thumb/interwork/libc.a(syscalls.o)
                                0x7d3 (size before relaxing)
 .debug_str     0x00002830       0x60 /home/afrendy/projconto/atinom_lipi/atinom-lipi/TOOLCHAIN/bin/../lib/gcc/arm-elf/4.1.0/../../../../arm-elf/lib/thumb/interwork/libc.a(ungetc.o)
                                0x4f5 (size before relaxing)
 .debug_str     0x00002890       0x19 /home/afrendy/projconto/atinom_lipi/atinom-lipi/TOOLCHAIN/bin/../lib/gcc/arm-elf/4.1.0/../../../../arm-elf/lib/thumb/interwork/libc.a(callocr.o)
                                0x517 (size before relaxing)
 .debug_str     0x000028a9       0xa1 /home/afrendy/projconto/atinom_lipi/atinom-lipi/TOOLCHAIN/bin/../lib/gcc/arm-elf/4.1.0/../../../../arm-elf/lib/thumb/interwork/libc.a(errno.o)
                                0x4cb (size before relaxing)
 .debug_str     0x0000294a       0x56 /home/afrendy/projconto/atinom_lipi/atinom-lipi/TOOLCHAIN/bin/../lib/gcc/arm-elf/4.1.0/../../../../arm-elf/lib/thumb/interwork/libc.a(fclose.o)
                                0x4eb (size before relaxing)
 .debug_str     0x000029a0       0x61 /home/afrendy/projconto/atinom_lipi/atinom-lipi/TOOLCHAIN/bin/../lib/gcc/arm-elf/4.1.0/../../../../arm-elf/lib/thumb/interwork/libc.a(s_nan.o)
                                0x183 (size before relaxing)
 .debug_str     0x00002a01       0xbd /home/afrendy/projconto/atinom_lipi/atinom-lipi/TOOLCHAIN/bin/../lib/gcc/arm-elf/4.1.0/thumb/interwork/libgcc.a(_muldi3.o)
                                0x168 (size before relaxing)
 .debug_str     0x00002abe       0x14 /home/afrendy/projconto/atinom_lipi/atinom-lipi/TOOLCHAIN/bin/../lib/gcc/arm-elf/4.1.0/thumb/interwork/libgcc.a(_fixunsdfsi.o)
                                0x127 (size before relaxing)
 .debug_str     0x00002ad2      0x127 /home/afrendy/projconto/atinom_lipi/atinom-lipi/TOOLCHAIN/bin/../lib/gcc/arm-elf/4.1.0/thumb/interwork/libgcc.a(_addsub_sf.o)
                                0x21a (size before relaxing)
 .debug_str     0x00002bf9       0x35 /home/afrendy/projconto/atinom_lipi/atinom-lipi/TOOLCHAIN/bin/../lib/gcc/arm-elf/4.1.0/thumb/interwork/libgcc.a(_div_sf.o)
                                0x1e2 (size before relaxing)
 .debug_str     0x00002c2e        0x8 /home/afrendy/projconto/atinom_lipi/atinom-lipi/TOOLCHAIN/bin/../lib/gcc/arm-elf/4.1.0/thumb/interwork/libgcc.a(_gt_sf.o)
                                0x1af (size before relaxing)
 .debug_str     0x00002c36        0xe /home/afrendy/projconto/atinom_lipi/atinom-lipi/TOOLCHAIN/bin/../lib/gcc/arm-elf/4.1.0/thumb/interwork/libgcc.a(_sf_to_df.o)
                                0x1a9 (size before relaxing)
 .debug_str     0x00002c44        0x0 /home/afrendy/projconto/atinom_lipi/atinom-lipi/TOOLCHAIN/bin/../lib/gcc/arm-elf/4.1.0/thumb/interwork/libgcc.a(_thenan_sf.o)
                                0x15a (size before relaxing)
 .debug_str     0x00002c44       0x35 /home/afrendy/projconto/atinom_lipi/atinom-lipi/TOOLCHAIN/bin/../lib/gcc/arm-elf/4.1.0/thumb/interwork/libgcc.a(_addsub_df.o)
                                0x220 (size before relaxing)
 .debug_str     0x00002c79       0x40 /home/afrendy/projconto/atinom_lipi/atinom-lipi/TOOLCHAIN/bin/../lib/gcc/arm-elf/4.1.0/thumb/interwork/libgcc.a(_mul_df.o)
                                0x1f8 (size before relaxing)
 .debug_str     0x00002cb9        0x9 /home/afrendy/projconto/atinom_lipi/atinom-lipi/TOOLCHAIN/bin/../lib/gcc/arm-elf/4.1.0/thumb/interwork/libgcc.a(_div_df.o)
                                0x1e8 (size before relaxing)
 .debug_str     0x00002cc2        0x8 /home/afrendy/projconto/atinom_lipi/atinom-lipi/TOOLCHAIN/bin/../lib/gcc/arm-elf/4.1.0/thumb/interwork/libgcc.a(_eq_df.o)
                                0x1b5 (size before relaxing)
 .debug_str     0x00002cca        0x8 /home/afrendy/projconto/atinom_lipi/atinom-lipi/TOOLCHAIN/bin/../lib/gcc/arm-elf/4.1.0/thumb/interwork/libgcc.a(_ne_df.o)
                                0x1b5 (size before relaxing)
 .debug_str     0x00002cd2        0x8 /home/afrendy/projconto/atinom_lipi/atinom-lipi/TOOLCHAIN/bin/../lib/gcc/arm-elf/4.1.0/thumb/interwork/libgcc.a(_gt_df.o)
                                0x1b5 (size before relaxing)
 .debug_str     0x00002cda        0x8 /home/afrendy/projconto/atinom_lipi/atinom-lipi/TOOLCHAIN/bin/../lib/gcc/arm-elf/4.1.0/thumb/interwork/libgcc.a(_ge_df.o)
                                0x1b5 (size before relaxing)
 .debug_str     0x00002ce2        0x8 /home/afrendy/projconto/atinom_lipi/atinom-lipi/TOOLCHAIN/bin/../lib/gcc/arm-elf/4.1.0/thumb/interwork/libgcc.a(_lt_df.o)
                                0x1b5 (size before relaxing)
 .debug_str     0x00002cea        0x8 /home/afrendy/projconto/atinom_lipi/atinom-lipi/TOOLCHAIN/bin/../lib/gcc/arm-elf/4.1.0/thumb/interwork/libgcc.a(_le_df.o)
                                0x1b5 (size before relaxing)
 .debug_str     0x00002cf2        0xc /home/afrendy/projconto/atinom_lipi/atinom-lipi/TOOLCHAIN/bin/../lib/gcc/arm-elf/4.1.0/thumb/interwork/libgcc.a(_si_to_df.o)
                                0x183 (size before relaxing)
 .debug_str     0x00002cfe        0xa /home/afrendy/projconto/atinom_lipi/atinom-lipi/TOOLCHAIN/bin/../lib/gcc/arm-elf/4.1.0/thumb/interwork/libgcc.a(_df_to_si.o)
                                0x1be (size before relaxing)
 .debug_str     0x00002d08        0xa /home/afrendy/projconto/atinom_lipi/atinom-lipi/TOOLCHAIN/bin/../lib/gcc/arm-elf/4.1.0/thumb/interwork/libgcc.a(_make_df.o)
                                0x170 (size before relaxing)
 .debug_str     0x00002d12       0x14 /home/afrendy/projconto/atinom_lipi/atinom-lipi/TOOLCHAIN/bin/../lib/gcc/arm-elf/4.1.0/thumb/interwork/libgcc.a(_df_to_sf.o)
                                0x1b5 (size before relaxing)
 .debug_str     0x00002d26        0x0 /home/afrendy/projconto/atinom_lipi/atinom-lipi/TOOLCHAIN/bin/../lib/gcc/arm-elf/4.1.0/thumb/interwork/libgcc.a(_thenan_df.o)
                                0x15a (size before relaxing)
 .debug_str     0x00002d26       0x10 /home/afrendy/projconto/atinom_lipi/atinom-lipi/TOOLCHAIN/bin/../lib/gcc/arm-elf/4.1.0/thumb/interwork/libgcc.a(_pack_sf.o)
                                0x1b7 (size before relaxing)
 .debug_str     0x00002d36        0xb /home/afrendy/projconto/atinom_lipi/atinom-lipi/TOOLCHAIN/bin/../lib/gcc/arm-elf/4.1.0/thumb/interwork/libgcc.a(_unpack_sf.o)
                                0x199 (size before relaxing)
 .debug_str     0x00002d41       0x10 /home/afrendy/projconto/atinom_lipi/atinom-lipi/TOOLCHAIN/bin/../lib/gcc/arm-elf/4.1.0/thumb/interwork/libgcc.a(_fpcmp_parts_sf.o)
                                0x17d (size before relaxing)
 .debug_str     0x00002d51        0xa /home/afrendy/projconto/atinom_lipi/atinom-lipi/TOOLCHAIN/bin/../lib/gcc/arm-elf/4.1.0/thumb/interwork/libgcc.a(_make_sf.o)
                                0x170 (size before relaxing)
 .debug_str     0x00002d5b        0x9 /home/afrendy/projconto/atinom_lipi/atinom-lipi/TOOLCHAIN/bin/../lib/gcc/arm-elf/4.1.0/thumb/interwork/libgcc.a(_pack_df.o)
                                0x1bd (size before relaxing)
 .debug_str     0x00002d64       0x13 /home/afrendy/projconto/atinom_lipi/atinom-lipi/TOOLCHAIN/bin/../lib/gcc/arm-elf/4.1.0/thumb/interwork/libgcc.a(_unpack_df.o)
                                0x1a7 (size before relaxing)
 .debug_str     0x00002d77       0x10 /home/afrendy/projconto/atinom_lipi/atinom-lipi/TOOLCHAIN/bin/../lib/gcc/arm-elf/4.1.0/thumb/interwork/libgcc.a(_fpcmp_parts_df.o)
                                0x17d (size before relaxing)
 .debug_str     0x00002d87       0xb2 /home/afrendy/projconto/atinom_lipi/atinom-lipi/TOOLCHAIN/bin/../lib/gcc/arm-elf/4.1.0/../../../../arm-elf/lib/thumb/interwork/libm.a(w_pow.o)
                                0x1c5 (size before relaxing)
 .debug_str     0x00002e39       0xb2 /home/afrendy/projconto/atinom_lipi/atinom-lipi/TOOLCHAIN/bin/../lib/gcc/arm-elf/4.1.0/../../../../arm-elf/lib/thumb/interwork/libm.a(e_pow.o)
                                0x1f1 (size before relaxing)
 .debug_str     0x00002eeb       0x53 /home/afrendy/projconto/atinom_lipi/atinom-lipi/TOOLCHAIN/bin/../lib/gcc/arm-elf/4.1.0/../../../../arm-elf/lib/thumb/interwork/libm.a(e_sqrt.o)
                                0x1a1 (size before relaxing)
 .debug_str     0x00002f3e       0x49 /home/afrendy/projconto/atinom_lipi/atinom-lipi/TOOLCHAIN/bin/../lib/gcc/arm-elf/4.1.0/../../../../arm-elf/lib/thumb/interwork/libm.a(s_fabs.o)
                                0x188 (size before relaxing)
 .debug_str     0x00002f87       0x4f /home/afrendy/projconto/atinom_lipi/atinom-lipi/TOOLCHAIN/bin/../lib/gcc/arm-elf/4.1.0/../../../../arm-elf/lib/thumb/interwork/libm.a(s_finite.o)
                                0x190 (size before relaxing)
 .debug_str     0x00002fd6       0x49 /home/afrendy/projconto/atinom_lipi/atinom-lipi/TOOLCHAIN/bin/../lib/gcc/arm-elf/4.1.0/../../../../arm-elf/lib/thumb/interwork/libm.a(s_lib_ver.o)
                                0x1a8 (size before relaxing)
 .debug_str     0x0000301f       0x51 /home/afrendy/projconto/atinom_lipi/atinom-lipi/TOOLCHAIN/bin/../lib/gcc/arm-elf/4.1.0/../../../../arm-elf/lib/thumb/interwork/libm.a(s_matherr.o)
                                0x17a (size before relaxing)
 .debug_str     0x00003070       0x4c /home/afrendy/projconto/atinom_lipi/atinom-lipi/TOOLCHAIN/bin/../lib/gcc/arm-elf/4.1.0/../../../../arm-elf/lib/thumb/interwork/libm.a(s_rint.o)
                                0x1a1 (size before relaxing)
 .debug_str     0x000030bc       0x5c /home/afrendy/projconto/atinom_lipi/atinom-lipi/TOOLCHAIN/bin/../lib/gcc/arm-elf/4.1.0/../../../../arm-elf/lib/thumb/interwork/libm.a(s_scalbn.o)
                                0x1a7 (size before relaxing)
 .debug_str     0x00003118       0x53 /home/afrendy/projconto/atinom_lipi/atinom-lipi/TOOLCHAIN/bin/../lib/gcc/arm-elf/4.1.0/../../../../arm-elf/lib/thumb/interwork/libm.a(s_copysign.o)
                                0x18f (size before relaxing)

.debug_ranges   0x00000000      0x9b0
 .debug_ranges  0x00000000       0x80 /home/afrendy/projconto/atinom_lipi/atinom-lipi/TOOLCHAIN/bin/../lib/gcc/arm-elf/4.1.0/../../../../arm-elf/lib/thumb/interwork/libc.a(mallocr.o)
 .debug_ranges  0x00000080       0x48 /home/afrendy/projconto/atinom_lipi/atinom-lipi/TOOLCHAIN/bin/../lib/gcc/arm-elf/4.1.0/../../../../arm-elf/lib/thumb/interwork/libc.a(mktime.o)
 .debug_ranges  0x000000c8       0x50 /home/afrendy/projconto/atinom_lipi/atinom-lipi/TOOLCHAIN/bin/../lib/gcc/arm-elf/4.1.0/../../../../arm-elf/lib/thumb/interwork/libc.a(mktm_r.o)
 .debug_ranges  0x00000118      0x170 /home/afrendy/projconto/atinom_lipi/atinom-lipi/TOOLCHAIN/bin/../lib/gcc/arm-elf/4.1.0/../../../../arm-elf/lib/thumb/interwork/libc.a(vfprintf.o)
 .debug_ranges  0x00000288       0xb8 /home/afrendy/projconto/atinom_lipi/atinom-lipi/TOOLCHAIN/bin/../lib/gcc/arm-elf/4.1.0/../../../../arm-elf/lib/thumb/interwork/libc.a(vfscanf.o)
 .debug_ranges  0x00000340       0x20 /home/afrendy/projconto/atinom_lipi/atinom-lipi/TOOLCHAIN/bin/../lib/gcc/arm-elf/4.1.0/../../../../arm-elf/lib/thumb/interwork/libc.a(wcsrtombs.o)
 .debug_ranges  0x00000360       0x60 /home/afrendy/projconto/atinom_lipi/atinom-lipi/TOOLCHAIN/bin/../lib/gcc/arm-elf/4.1.0/../../../../arm-elf/lib/thumb/interwork/libc.a(wctomb_r.o)
 .debug_ranges  0x000003c0       0x18 /home/afrendy/projconto/atinom_lipi/atinom-lipi/TOOLCHAIN/bin/../lib/gcc/arm-elf/4.1.0/../../../../arm-elf/lib/thumb/interwork/libc.a(fread.o)
 .debug_ranges  0x000003d8       0x18 /home/afrendy/projconto/atinom_lipi/atinom-lipi/TOOLCHAIN/bin/../lib/gcc/arm-elf/4.1.0/../../../../arm-elf/lib/thumb/interwork/libc.a(fvwrite.o)
 .debug_ranges  0x000003f0       0x90 /home/afrendy/projconto/atinom_lipi/atinom-lipi/TOOLCHAIN/bin/../lib/gcc/arm-elf/4.1.0/../../../../arm-elf/lib/thumb/interwork/libc.a(fwalk.o)
 .debug_ranges  0x00000480      0x110 /home/afrendy/projconto/atinom_lipi/atinom-lipi/TOOLCHAIN/bin/../lib/gcc/arm-elf/4.1.0/../../../../arm-elf/lib/thumb/interwork/libc.a(reallocr.o)
 .debug_ranges  0x00000590       0xa8 /home/afrendy/projconto/atinom_lipi/atinom-lipi/TOOLCHAIN/bin/../lib/gcc/arm-elf/4.1.0/../../../../arm-elf/lib/thumb/interwork/libc.a(syscalls.o)
 .debug_ranges  0x00000638       0x30 /home/afrendy/projconto/atinom_lipi/atinom-lipi/TOOLCHAIN/bin/../lib/gcc/arm-elf/4.1.0/../../../../arm-elf/lib/thumb/interwork/libc.a(callocr.o)
 .debug_ranges  0x00000668       0x30 /home/afrendy/projconto/atinom_lipi/atinom-lipi/TOOLCHAIN/bin/../lib/gcc/arm-elf/4.1.0/thumb/interwork/libgcc.a(_muldi3.o)
 .debug_ranges  0x00000698       0x20 /home/afrendy/projconto/atinom_lipi/atinom-lipi/TOOLCHAIN/bin/../lib/gcc/arm-elf/4.1.0/thumb/interwork/libgcc.a(_addsub_sf.o)
 .debug_ranges  0x000006b8       0x48 /home/afrendy/projconto/atinom_lipi/atinom-lipi/TOOLCHAIN/bin/../lib/gcc/arm-elf/4.1.0/thumb/interwork/libgcc.a(_div_sf.o)
 .debug_ranges  0x00000700       0x20 /home/afrendy/projconto/atinom_lipi/atinom-lipi/TOOLCHAIN/bin/../lib/gcc/arm-elf/4.1.0/thumb/interwork/libgcc.a(_addsub_df.o)
 .debug_ranges  0x00000720       0x58 /home/afrendy/projconto/atinom_lipi/atinom-lipi/TOOLCHAIN/bin/../lib/gcc/arm-elf/4.1.0/thumb/interwork/libgcc.a(_mul_df.o)
 .debug_ranges  0x00000778       0x48 /home/afrendy/projconto/atinom_lipi/atinom-lipi/TOOLCHAIN/bin/../lib/gcc/arm-elf/4.1.0/thumb/interwork/libgcc.a(_div_df.o)
 .debug_ranges  0x000007c0       0x40 /home/afrendy/projconto/atinom_lipi/atinom-lipi/TOOLCHAIN/bin/../lib/gcc/arm-elf/4.1.0/thumb/interwork/libgcc.a(_pack_df.o)
 .debug_ranges  0x00000800       0xf8 /home/afrendy/projconto/atinom_lipi/atinom-lipi/TOOLCHAIN/bin/../lib/gcc/arm-elf/4.1.0/../../../../arm-elf/lib/thumb/interwork/libm.a(e_pow.o)
 .debug_ranges  0x000008f8       0x20 /home/afrendy/projconto/atinom_lipi/atinom-lipi/TOOLCHAIN/bin/../lib/gcc/arm-elf/4.1.0/../../../../arm-elf/lib/thumb/interwork/libm.a(e_sqrt.o)
 .debug_ranges  0x00000918       0x60 /home/afrendy/projconto/atinom_lipi/atinom-lipi/TOOLCHAIN/bin/../lib/gcc/arm-elf/4.1.0/../../../../arm-elf/lib/thumb/interwork/libm.a(s_rint.o)
 .debug_ranges  0x00000978       0x18 /home/afrendy/projconto/atinom_lipi/atinom-lipi/TOOLCHAIN/bin/../lib/gcc/arm-elf/4.1.0/../../../../arm-elf/lib/thumb/interwork/libm.a(s_scalbn.o)
 .debug_ranges  0x00000990       0x20 /home/afrendy/projconto/atinom_lipi/atinom-lipi/TOOLCHAIN/bin/../lib/gcc/arm-elf/4.1.0/../../../../arm-elf/lib/thumb/interwork/libm.a(s_copysign.o)
