
komon_420.elf:     file format elf32-littlearm

Disassembly of section startup:

00000000 <startup>:
   0:	ea004368 	b	10da8 <start>
   4:	e59ff014 	ldr	pc, [pc, #20]	; 20 <_undf>
   8:	e59ff014 	ldr	pc, [pc, #20]	; 24 <_swi>
   c:	e59ff014 	ldr	pc, [pc, #20]	; 28 <_pabt>
  10:	e59ff014 	ldr	pc, [pc, #20]	; 2c <_dabt>
  14:	e1a00000 	nop			(mov r0,r0)
  18:	e51ff120 	ldr	pc, [pc, #-288]	; ffffff00 <_end+0x801fec74>
  1c:	e59ff00c 	ldr	pc, [pc, #12]	; 30 <_fiq>
  20:	00000034 	andeq	r0, r0, r4, lsr r0
  24:	000001ec 	andeq	r0, r0, ip, ror #3
  28:	00000038 	andeq	r0, r0, r8, lsr r0
  2c:	0000003c 	andeq	r0, r0, ip, lsr r0
  30:	00000040 	andeq	r0, r0, r0, asr #32
  34:	eafffffe 	b	34 <__undf>
  38:	eafffffe 	b	38 <__pabt>
  3c:	eafffffe 	b	3c <__dabt>
  40:	eafffffe 	b	40 <F_BIT>
Disassembly of section prog:

00000044 <vPortISRStartFirstTask>:
      44:	e59f0244 	ldr	r0, [pc, #580]	; 290 <prog+0x24c>
      48:	e5900000 	ldr	r0, [r0]
      4c:	e590e000 	ldr	lr, [r0]
      50:	e59f023c 	ldr	r0, [pc, #572]	; 294 <prog+0x250>
      54:	e8be0002 	ldmia	lr!, {r1}
      58:	e5801000 	str	r1, [r0]
      5c:	e8be0001 	ldmia	lr!, {r0}
      60:	e169f000 	msr	SPSR_fc, r0
      64:	e8de7fff 	ldmia	lr, {r0, r1, r2, r3, r4, r5, r6, r7, r8, r9, sl, fp, ip, sp, lr}^
      68:	e1a00000 	nop			(mov r0,r0)
      6c:	e59ee03c 	ldr	lr, [lr, #60]
      70:	e25ef004 	subs	pc, lr, #4	; 0x4
      74:	e59f300c 	ldr	r3, [pc, #12]	; 88 <prog+0x44>
      78:	e5933000 	ldr	r3, [r3]
      7c:	e59f3008 	ldr	r3, [pc, #8]	; 8c <prog+0x48>
      80:	e5933000 	ldr	r3, [r3]
      84:	e12fff1e 	bx	lr
      88:	40000000 	andmi	r0, r0, r0
      8c:	40000ac8 	andmi	r0, r0, r8, asr #21

00000090 <vPortDisableInterruptsFromThumb>:
      90:	e92d0001 	stmdb	sp!, {r0}
      94:	e10f0000 	mrs	r0, CPSR
      98:	e38000c0 	orr	r0, r0, #192	; 0xc0
      9c:	e129f000 	msr	CPSR_fc, r0
      a0:	e8bd0001 	ldmia	sp!, {r0}
      a4:	e12fff1e 	bx	lr

000000a8 <vPortEnableInterruptsFromThumb>:
      a8:	e92d0001 	stmdb	sp!, {r0}
      ac:	e10f0000 	mrs	r0, CPSR
      b0:	e3c000c0 	bic	r0, r0, #192	; 0xc0
      b4:	e129f000 	msr	CPSR_fc, r0
      b8:	e8bd0001 	ldmia	sp!, {r0}
      bc:	e12fff1e 	bx	lr

000000c0 <vPortEnterCritical>:
      c0:	e92d0001 	stmdb	sp!, {r0}
      c4:	e10f0000 	mrs	r0, CPSR
      c8:	e38000c0 	orr	r0, r0, #192	; 0xc0
      cc:	e129f000 	msr	CPSR_fc, r0
      d0:	e8bd0001 	ldmia	sp!, {r0}
      d4:	e59f200c 	ldr	r2, [pc, #12]	; e8 <prog+0xa4>
      d8:	e5923000 	ldr	r3, [r2]
      dc:	e2833001 	add	r3, r3, #1	; 0x1
      e0:	e5823000 	str	r3, [r2]
      e4:	e12fff1e 	bx	lr
      e8:	40000000 	andmi	r0, r0, r0

000000ec <vPortExitCritical>:
      ec:	e59f2038 	ldr	r2, [pc, #56]	; 12c <prog+0xe8>
      f0:	e5923000 	ldr	r3, [r2]
      f4:	e3530000 	cmp	r3, #0	; 0x0
      f8:	012fff1e 	bxeq	lr
      fc:	e5923000 	ldr	r3, [r2]
     100:	e2433001 	sub	r3, r3, #1	; 0x1
     104:	e5823000 	str	r3, [r2]
     108:	e5923000 	ldr	r3, [r2]
     10c:	e3530000 	cmp	r3, #0	; 0x0
     110:	112fff1e 	bxne	lr
     114:	e92d0001 	stmdb	sp!, {r0}
     118:	e10f0000 	mrs	r0, CPSR
     11c:	e3c000c0 	bic	r0, r0, #192	; 0xc0
     120:	e129f000 	msr	CPSR_fc, r0
     124:	e8bd0001 	ldmia	sp!, {r0}
     128:	e12fff1e 	bx	lr
     12c:	40000000 	andmi	r0, r0, r0

00000130 <vNonPreemptiveTick>:
     130:	e92d0001 	stmdb	sp!, {r0}
     134:	e94d2000 	stmdb	sp, {sp}^
     138:	e1a00000 	nop			(mov r0,r0)
     13c:	e24dd004 	sub	sp, sp, #4	; 0x4
     140:	e8bd0001 	ldmia	sp!, {r0}
     144:	e9204000 	stmdb	r0!, {lr}
     148:	e1a0e000 	mov	lr, r0
     14c:	e8bd0001 	ldmia	sp!, {r0}
     150:	e94e7fff 	stmdb	lr, {r0, r1, r2, r3, r4, r5, r6, r7, r8, r9, sl, fp, ip, sp, lr}^
     154:	e1a00000 	nop			(mov r0,r0)
     158:	e24ee03c 	sub	lr, lr, #60	; 0x3c
     15c:	e14f0000 	mrs	r0, SPSR
     160:	e92e0001 	stmdb	lr!, {r0}
     164:	e59f0128 	ldr	r0, [pc, #296]	; 294 <prog+0x250>
     168:	e5900000 	ldr	r0, [r0]
     16c:	e92e0001 	stmdb	lr!, {r0}
     170:	e59f0118 	ldr	r0, [pc, #280]	; 290 <prog+0x24c>
     174:	e5900000 	ldr	r0, [r0]
     178:	e580e000 	str	lr, [r0]
     17c:	e59f5060 	ldr	r5, [pc, #96]	; 1e4 <prog+0x1a0>
     180:	e5953000 	ldr	r3, [r5]
     184:	e59f405c 	ldr	r4, [pc, #92]	; 1e8 <prog+0x1a4>
     188:	e5943000 	ldr	r3, [r4]
     18c:	eb0050da 	bl	144fc <__vTaskIncrementTick_from_arm>
     190:	e3a02002 	mov	r2, #2	; 0x2
     194:	e3a0320e 	mov	r3, #-536870912	; 0xe0000000
     198:	e2833901 	add	r3, r3, #16384	; 0x4000
     19c:	e5832000 	str	r2, [r3]
     1a0:	e2422002 	sub	r2, r2, #2	; 0x2
     1a4:	e3e03000 	mvn	r3, #0	; 0x0
     1a8:	e50320ff 	str	r2, [r3, #-255]
     1ac:	e59f00dc 	ldr	r0, [pc, #220]	; 290 <prog+0x24c>
     1b0:	e5900000 	ldr	r0, [r0]
     1b4:	e590e000 	ldr	lr, [r0]
     1b8:	e59f00d4 	ldr	r0, [pc, #212]	; 294 <prog+0x250>
     1bc:	e8be0002 	ldmia	lr!, {r1}
     1c0:	e5801000 	str	r1, [r0]
     1c4:	e8be0001 	ldmia	lr!, {r0}
     1c8:	e169f000 	msr	SPSR_fc, r0
     1cc:	e8de7fff 	ldmia	lr, {r0, r1, r2, r3, r4, r5, r6, r7, r8, r9, sl, fp, ip, sp, lr}^
     1d0:	e1a00000 	nop			(mov r0,r0)
     1d4:	e59ee03c 	ldr	lr, [lr, #60]
     1d8:	e25ef004 	subs	pc, lr, #4	; 0x4
     1dc:	e5953000 	ldr	r3, [r5]
     1e0:	e5943000 	ldr	r3, [r4]
     1e4:	40000000 	andmi	r0, r0, r0
     1e8:	40000ac8 	andmi	r0, r0, r8, asr #21

000001ec <vPortYieldProcessor>:
     1ec:	e28ee004 	add	lr, lr, #4	; 0x4
     1f0:	e92d0001 	stmdb	sp!, {r0}
     1f4:	e94d2000 	stmdb	sp, {sp}^
     1f8:	e1a00000 	nop			(mov r0,r0)
     1fc:	e24dd004 	sub	sp, sp, #4	; 0x4
     200:	e8bd0001 	ldmia	sp!, {r0}
     204:	e9204000 	stmdb	r0!, {lr}
     208:	e1a0e000 	mov	lr, r0
     20c:	e8bd0001 	ldmia	sp!, {r0}
     210:	e94e7fff 	stmdb	lr, {r0, r1, r2, r3, r4, r5, r6, r7, r8, r9, sl, fp, ip, sp, lr}^
     214:	e1a00000 	nop			(mov r0,r0)
     218:	e24ee03c 	sub	lr, lr, #60	; 0x3c
     21c:	e14f0000 	mrs	r0, SPSR
     220:	e92e0001 	stmdb	lr!, {r0}
     224:	e59f0068 	ldr	r0, [pc, #104]	; 294 <prog+0x250>
     228:	e5900000 	ldr	r0, [r0]
     22c:	e92e0001 	stmdb	lr!, {r0}
     230:	e59f0058 	ldr	r0, [pc, #88]	; 290 <prog+0x24c>
     234:	e5900000 	ldr	r0, [r0]
     238:	e580e000 	str	lr, [r0]
     23c:	e59f5044 	ldr	r5, [pc, #68]	; 288 <prog+0x244>
     240:	e5953000 	ldr	r3, [r5]
     244:	e59f4040 	ldr	r4, [pc, #64]	; 28c <prog+0x248>
     248:	e5943000 	ldr	r3, [r4]
     24c:	eb0050ad 	bl	14508 <__vTaskSwitchContext_from_arm>
     250:	e59f0038 	ldr	r0, [pc, #56]	; 290 <prog+0x24c>
     254:	e5900000 	ldr	r0, [r0]
     258:	e590e000 	ldr	lr, [r0]
     25c:	e59f0030 	ldr	r0, [pc, #48]	; 294 <prog+0x250>
     260:	e8be0002 	ldmia	lr!, {r1}
     264:	e5801000 	str	r1, [r0]
     268:	e8be0001 	ldmia	lr!, {r0}
     26c:	e169f000 	msr	SPSR_fc, r0
     270:	e8de7fff 	ldmia	lr, {r0, r1, r2, r3, r4, r5, r6, r7, r8, r9, sl, fp, ip, sp, lr}^
     274:	e1a00000 	nop			(mov r0,r0)
     278:	e59ee03c 	ldr	lr, [lr, #60]
     27c:	e25ef004 	subs	pc, lr, #4	; 0x4
     280:	e5953000 	ldr	r3, [r5]
     284:	e5943000 	ldr	r3, [r4]
     288:	40000000 	andmi	r0, r0, r0
     28c:	40000ac8 	andmi	r0, r0, r8, asr #21
     290:	40000ac8 	andmi	r0, r0, r8, asr #21
     294:	40000000 	andmi	r0, r0, r0

00000298 <vUART2_ISR_Handler>:
     298:	e52de004 	str	lr, [sp, #-4]!
     29c:	e24dd008 	sub	sp, sp, #8	; 0x8
     2a0:	e3a03000 	mov	r3, #0	; 0x0
     2a4:	e58d3000 	str	r3, [sp]
     2a8:	e283320e 	add	r3, r3, #-536870912	; 0xe0000000
     2ac:	e283391e 	add	r3, r3, #491520	; 0x78000
     2b0:	e5933008 	ldr	r3, [r3, #8]
     2b4:	e203300f 	and	r3, r3, #15	; 0xf
     2b8:	e2433002 	sub	r3, r3, #2	; 0x2
     2bc:	e353000a 	cmp	r3, #10	; 0xa
     2c0:	979ff103 	ldrls	pc, [pc, r3, lsl #2]
     2c4:	ea000026 	b	364 <prog+0x320>
     2c8:	00000304 	andeq	r0, r0, r4, lsl #6
     2cc:	00000364 	andeq	r0, r0, r4, ror #6
     2d0:	0000033c 	andeq	r0, r0, ip, lsr r3
     2d4:	00000364 	andeq	r0, r0, r4, ror #6
     2d8:	000002f4 	streqd	r0, [r0], -r4
     2dc:	00000364 	andeq	r0, r0, r4, ror #6
     2e0:	00000364 	andeq	r0, r0, r4, ror #6
     2e4:	00000364 	andeq	r0, r0, r4, ror #6
     2e8:	00000364 	andeq	r0, r0, r4, ror #6
     2ec:	00000364 	andeq	r0, r0, r4, ror #6
     2f0:	0000033c 	andeq	r0, r0, ip, lsr r3
     2f4:	e3a0320e 	mov	r3, #-536870912	; 0xe0000000
     2f8:	e283391e 	add	r3, r3, #491520	; 0x78000
     2fc:	e5933014 	ldr	r3, [r3, #20]
     300:	ea00001a 	b	370 <prog+0x32c>
     304:	e59f307c 	ldr	r3, [pc, #124]	; 388 <prog+0x344>
     308:	e5930000 	ldr	r0, [r3]
     30c:	e28d1007 	add	r1, sp, #7	; 0x7
     310:	e1a0200d 	mov	r2, sp
     314:	eb00507e 	bl	14514 <__xQueueReceiveFromISR_from_arm>
     318:	e3500001 	cmp	r0, #1	; 0x1
     31c:	01dd20d7 	ldreqsb	r2, [sp, #7]
     320:	03a0320e 	moveq	r3, #-536870912	; 0xe0000000
     324:	0283391e 	addeq	r3, r3, #491520	; 0x78000
     328:	05832000 	streq	r2, [r3]
     32c:	13a02001 	movne	r2, #1	; 0x1
     330:	159f3054 	ldrne	r3, [pc, #84]	; 38c <prog+0x348>
     334:	15832000 	strne	r2, [r3]
     338:	ea000009 	b	364 <prog+0x320>
     33c:	e3a0320e 	mov	r3, #-536870912	; 0xe0000000
     340:	e283391e 	add	r3, r3, #491520	; 0x78000
     344:	e5933000 	ldr	r3, [r3]
     348:	e28d1008 	add	r1, sp, #8	; 0x8
     34c:	e5613001 	strb	r3, [r1, #-1]!
     350:	e59f3038 	ldr	r3, [pc, #56]	; 390 <prog+0x34c>
     354:	e5930000 	ldr	r0, [r3]
     358:	e1a0200d 	mov	r2, sp
     35c:	e3a03000 	mov	r3, #0	; 0x0
     360:	eb00506e 	bl	14520 <__xQueueGenericSendFromISR_from_arm>
     364:	e59d3000 	ldr	r3, [sp]
     368:	e3530000 	cmp	r3, #0	; 0x0
     36c:	1b005065 	blne	14508 <__vTaskSwitchContext_from_arm>
     370:	e3a02000 	mov	r2, #0	; 0x0
     374:	e3e03000 	mvn	r3, #0	; 0x0
     378:	e50320ff 	str	r2, [r3, #-255]
     37c:	e28dd008 	add	sp, sp, #8	; 0x8
     380:	e49de004 	ldr	lr, [sp], #4
     384:	e12fff1e 	bx	lr
     388:	40000a84 	andmi	r0, r0, r4, lsl #21
     38c:	40000a88 	andmi	r0, r0, r8, lsl #21
     390:	40000a80 	andmi	r0, r0, r0, lsl #21

00000394 <vUART2_ISR_Wrapper>:
     394:	e92d0001 	stmdb	sp!, {r0}
     398:	e94d2000 	stmdb	sp, {sp}^
     39c:	e1a00000 	nop			(mov r0,r0)
     3a0:	e24dd004 	sub	sp, sp, #4	; 0x4
     3a4:	e8bd0001 	ldmia	sp!, {r0}
     3a8:	e9204000 	stmdb	r0!, {lr}
     3ac:	e1a0e000 	mov	lr, r0
     3b0:	e8bd0001 	ldmia	sp!, {r0}
     3b4:	e94e7fff 	stmdb	lr, {r0, r1, r2, r3, r4, r5, r6, r7, r8, r9, sl, fp, ip, sp, lr}^
     3b8:	e1a00000 	nop			(mov r0,r0)
     3bc:	e24ee03c 	sub	lr, lr, #60	; 0x3c
     3c0:	e14f0000 	mrs	r0, SPSR
     3c4:	e92e0001 	stmdb	lr!, {r0}
     3c8:	e59f02e4 	ldr	r0, [pc, #740]	; 6b4 <prog+0x670>
     3cc:	e5900000 	ldr	r0, [r0]
     3d0:	e92e0001 	stmdb	lr!, {r0}
     3d4:	e59f02dc 	ldr	r0, [pc, #732]	; 6b8 <prog+0x674>
     3d8:	e5900000 	ldr	r0, [r0]
     3dc:	e580e000 	str	lr, [r0]
     3e0:	e59f5044 	ldr	r5, [pc, #68]	; 42c <prog+0x3e8>
     3e4:	e5953000 	ldr	r3, [r5]
     3e8:	e59f4040 	ldr	r4, [pc, #64]	; 430 <prog+0x3ec>
     3ec:	e5943000 	ldr	r3, [r4]
     3f0:	ebffffa8 	bl	298 <vUART2_ISR_Handler>
     3f4:	e59f02bc 	ldr	r0, [pc, #700]	; 6b8 <prog+0x674>
     3f8:	e5900000 	ldr	r0, [r0]
     3fc:	e590e000 	ldr	lr, [r0]
     400:	e59f02ac 	ldr	r0, [pc, #684]	; 6b4 <prog+0x670>
     404:	e8be0002 	ldmia	lr!, {r1}
     408:	e5801000 	str	r1, [r0]
     40c:	e8be0001 	ldmia	lr!, {r0}
     410:	e169f000 	msr	SPSR_fc, r0
     414:	e8de7fff 	ldmia	lr, {r0, r1, r2, r3, r4, r5, r6, r7, r8, r9, sl, fp, ip, sp, lr}^
     418:	e1a00000 	nop			(mov r0,r0)
     41c:	e59ee03c 	ldr	lr, [lr, #60]
     420:	e25ef004 	subs	pc, lr, #4	; 0x4
     424:	e5953000 	ldr	r3, [r5]
     428:	e5943000 	ldr	r3, [r4]
     42c:	40000000 	andmi	r0, r0, r0
     430:	40000ac8 	andmi	r0, r0, r8, asr #21

00000434 <vUART_ISR_Handler>:
     434:	e52de004 	str	lr, [sp, #-4]!
     438:	e24dd008 	sub	sp, sp, #8	; 0x8
     43c:	e3a03000 	mov	r3, #0	; 0x0
     440:	e58d3000 	str	r3, [sp]
     444:	e283320e 	add	r3, r3, #-536870912	; 0xe0000000
     448:	e2833903 	add	r3, r3, #49152	; 0xc000
     44c:	e5933008 	ldr	r3, [r3, #8]
     450:	e203300f 	and	r3, r3, #15	; 0xf
     454:	e2433002 	sub	r3, r3, #2	; 0x2
     458:	e353000a 	cmp	r3, #10	; 0xa
     45c:	979ff103 	ldrls	pc, [pc, r3, lsl #2]
     460:	ea000026 	b	500 <prog+0x4bc>
     464:	000004a0 	andeq	r0, r0, r0, lsr #9
     468:	00000500 	andeq	r0, r0, r0, lsl #10
     46c:	000004d8 	ldreqd	r0, [r0], -r8
     470:	00000500 	andeq	r0, r0, r0, lsl #10
     474:	00000490 	muleq	r0, r0, r4
     478:	00000500 	andeq	r0, r0, r0, lsl #10
     47c:	00000500 	andeq	r0, r0, r0, lsl #10
     480:	00000500 	andeq	r0, r0, r0, lsl #10
     484:	00000500 	andeq	r0, r0, r0, lsl #10
     488:	00000500 	andeq	r0, r0, r0, lsl #10
     48c:	000004d8 	ldreqd	r0, [r0], -r8
     490:	e3a0320e 	mov	r3, #-536870912	; 0xe0000000
     494:	e2833903 	add	r3, r3, #49152	; 0xc000
     498:	e5933014 	ldr	r3, [r3, #20]
     49c:	ea00001a 	b	50c <prog+0x4c8>
     4a0:	e59f307c 	ldr	r3, [pc, #124]	; 524 <prog+0x4e0>
     4a4:	e5930000 	ldr	r0, [r3]
     4a8:	e28d1007 	add	r1, sp, #7	; 0x7
     4ac:	e1a0200d 	mov	r2, sp
     4b0:	eb005017 	bl	14514 <__xQueueReceiveFromISR_from_arm>
     4b4:	e3500001 	cmp	r0, #1	; 0x1
     4b8:	01dd20d7 	ldreqsb	r2, [sp, #7]
     4bc:	03a0320e 	moveq	r3, #-536870912	; 0xe0000000
     4c0:	02833903 	addeq	r3, r3, #49152	; 0xc000
     4c4:	05832000 	streq	r2, [r3]
     4c8:	13a02001 	movne	r2, #1	; 0x1
     4cc:	159f3054 	ldrne	r3, [pc, #84]	; 528 <prog+0x4e4>
     4d0:	15832000 	strne	r2, [r3]
     4d4:	ea000009 	b	500 <prog+0x4bc>
     4d8:	e3a0320e 	mov	r3, #-536870912	; 0xe0000000
     4dc:	e2833903 	add	r3, r3, #49152	; 0xc000
     4e0:	e5933000 	ldr	r3, [r3]
     4e4:	e28d1008 	add	r1, sp, #8	; 0x8
     4e8:	e5613001 	strb	r3, [r1, #-1]!
     4ec:	e59f3038 	ldr	r3, [pc, #56]	; 52c <prog+0x4e8>
     4f0:	e5930000 	ldr	r0, [r3]
     4f4:	e1a0200d 	mov	r2, sp
     4f8:	e3a03000 	mov	r3, #0	; 0x0
     4fc:	eb005007 	bl	14520 <__xQueueGenericSendFromISR_from_arm>
     500:	e59d3000 	ldr	r3, [sp]
     504:	e3530000 	cmp	r3, #0	; 0x0
     508:	1b004ffe 	blne	14508 <__vTaskSwitchContext_from_arm>
     50c:	e3a02000 	mov	r2, #0	; 0x0
     510:	e3e03000 	mvn	r3, #0	; 0x0
     514:	e50320ff 	str	r2, [r3, #-255]
     518:	e28dd008 	add	sp, sp, #8	; 0x8
     51c:	e49de004 	ldr	lr, [sp], #4
     520:	e12fff1e 	bx	lr
     524:	40000a78 	andmi	r0, r0, r8, ror sl
     528:	40000a7c 	andmi	r0, r0, ip, ror sl
     52c:	40000a74 	andmi	r0, r0, r4, ror sl

00000530 <vUART_ISR_Wrapper>:
     530:	e92d0001 	stmdb	sp!, {r0}
     534:	e94d2000 	stmdb	sp, {sp}^
     538:	e1a00000 	nop			(mov r0,r0)
     53c:	e24dd004 	sub	sp, sp, #4	; 0x4
     540:	e8bd0001 	ldmia	sp!, {r0}
     544:	e9204000 	stmdb	r0!, {lr}
     548:	e1a0e000 	mov	lr, r0
     54c:	e8bd0001 	ldmia	sp!, {r0}
     550:	e94e7fff 	stmdb	lr, {r0, r1, r2, r3, r4, r5, r6, r7, r8, r9, sl, fp, ip, sp, lr}^
     554:	e1a00000 	nop			(mov r0,r0)
     558:	e24ee03c 	sub	lr, lr, #60	; 0x3c
     55c:	e14f0000 	mrs	r0, SPSR
     560:	e92e0001 	stmdb	lr!, {r0}
     564:	e59f0148 	ldr	r0, [pc, #328]	; 6b4 <prog+0x670>
     568:	e5900000 	ldr	r0, [r0]
     56c:	e92e0001 	stmdb	lr!, {r0}
     570:	e59f0140 	ldr	r0, [pc, #320]	; 6b8 <prog+0x674>
     574:	e5900000 	ldr	r0, [r0]
     578:	e580e000 	str	lr, [r0]
     57c:	e59f5044 	ldr	r5, [pc, #68]	; 5c8 <prog+0x584>
     580:	e5953000 	ldr	r3, [r5]
     584:	e59f4040 	ldr	r4, [pc, #64]	; 5cc <prog+0x588>
     588:	e5943000 	ldr	r3, [r4]
     58c:	ebffffa8 	bl	434 <vUART_ISR_Handler>
     590:	e59f0120 	ldr	r0, [pc, #288]	; 6b8 <prog+0x674>
     594:	e5900000 	ldr	r0, [r0]
     598:	e590e000 	ldr	lr, [r0]
     59c:	e59f0110 	ldr	r0, [pc, #272]	; 6b4 <prog+0x670>
     5a0:	e8be0002 	ldmia	lr!, {r1}
     5a4:	e5801000 	str	r1, [r0]
     5a8:	e8be0001 	ldmia	lr!, {r0}
     5ac:	e169f000 	msr	SPSR_fc, r0
     5b0:	e8de7fff 	ldmia	lr, {r0, r1, r2, r3, r4, r5, r6, r7, r8, r9, sl, fp, ip, sp, lr}^
     5b4:	e1a00000 	nop			(mov r0,r0)
     5b8:	e59ee03c 	ldr	lr, [lr, #60]
     5bc:	e25ef004 	subs	pc, lr, #4	; 0x4
     5c0:	e5953000 	ldr	r3, [r5]
     5c4:	e5943000 	ldr	r3, [r4]
     5c8:	40000000 	andmi	r0, r0, r0
     5cc:	40000ac8 	andmi	r0, r0, r8, asr #21

000005d0 <vSerialISRCreateQueues>:
     5d0:	e92d41f0 	stmdb	sp!, {r4, r5, r6, r7, r8, lr}
     5d4:	e1a05000 	mov	r5, r0
     5d8:	e1a06001 	mov	r6, r1
     5dc:	e1a07002 	mov	r7, r2
     5e0:	e1a08003 	mov	r8, r3
     5e4:	e3a00008 	mov	r0, #8	; 0x8
     5e8:	e3a01001 	mov	r1, #1	; 0x1
     5ec:	eb004fce 	bl	1452c <__xQueueCreate_from_arm>
     5f0:	e59f4038 	ldr	r4, [pc, #56]	; 630 <prog+0x5ec>
     5f4:	e5840000 	str	r0, [r4]
     5f8:	e2850001 	add	r0, r5, #1	; 0x1
     5fc:	e3a01001 	mov	r1, #1	; 0x1
     600:	eb004fc9 	bl	1452c <__xQueueCreate_from_arm>
     604:	e59f3028 	ldr	r3, [pc, #40]	; 634 <prog+0x5f0>
     608:	e5830000 	str	r0, [r3]
     60c:	e5943000 	ldr	r3, [r4]
     610:	e5863000 	str	r3, [r6]
     614:	e5870000 	str	r0, [r7]
     618:	e59f2018 	ldr	r2, [pc, #24]	; 638 <prog+0x5f4>
     61c:	e3a03001 	mov	r3, #1	; 0x1
     620:	e5823000 	str	r3, [r2]
     624:	e5882000 	str	r2, [r8]
     628:	e8bd41f0 	ldmia	sp!, {r4, r5, r6, r7, r8, lr}
     62c:	e12fff1e 	bx	lr
     630:	40000a74 	andmi	r0, r0, r4, ror sl
     634:	40000a78 	andmi	r0, r0, r8, ror sl
     638:	40000a7c 	andmi	r0, r0, ip, ror sl

0000063c <vSerialISRCreateQueues2>:
     63c:	e92d41f0 	stmdb	sp!, {r4, r5, r6, r7, r8, lr}
     640:	e1a04000 	mov	r4, r0
     644:	e1a06001 	mov	r6, r1
     648:	e1a07002 	mov	r7, r2
     64c:	e1a08003 	mov	r8, r3
     650:	ebfffe9a 	bl	c0 <vPortEnterCritical>
     654:	e2844001 	add	r4, r4, #1	; 0x1
     658:	e1a00004 	mov	r0, r4
     65c:	e3a01001 	mov	r1, #1	; 0x1
     660:	eb004fb1 	bl	1452c <__xQueueCreate_from_arm>
     664:	e59f503c 	ldr	r5, [pc, #60]	; 6a8 <prog+0x664>
     668:	e5850000 	str	r0, [r5]
     66c:	e1a00004 	mov	r0, r4
     670:	e3a01001 	mov	r1, #1	; 0x1
     674:	eb004fac 	bl	1452c <__xQueueCreate_from_arm>
     678:	e59f302c 	ldr	r3, [pc, #44]	; 6ac <prog+0x668>
     67c:	e5830000 	str	r0, [r3]
     680:	e5953000 	ldr	r3, [r5]
     684:	e5863000 	str	r3, [r6]
     688:	e5870000 	str	r0, [r7]
     68c:	e59f201c 	ldr	r2, [pc, #28]	; 6b0 <prog+0x66c>
     690:	e3a03001 	mov	r3, #1	; 0x1
     694:	e5823000 	str	r3, [r2]
     698:	e5882000 	str	r2, [r8]
     69c:	ebfffe92 	bl	ec <vPortExitCritical>
     6a0:	e8bd41f0 	ldmia	sp!, {r4, r5, r6, r7, r8, lr}
     6a4:	e12fff1e 	bx	lr
     6a8:	40000a80 	andmi	r0, r0, r0, lsl #21
     6ac:	40000a84 	andmi	r0, r0, r4, lsl #21
     6b0:	40000a88 	andmi	r0, r0, r8, lsl #21
     6b4:	40000000 	andmi	r0, r0, r0
     6b8:	40000ac8 	andmi	r0, r0, r8, asr #21

000006bc <dele>:
     6bc:	2800      	cmp	r0, #0
     6be:	dd05      	ble	6cc <dele+0x10>
     6c0:	2200      	mov	r2, #0
     6c2:	4903      	ldr	r1, [pc, #12]	(6d0 <prog+0x68c>)
     6c4:	680b      	ldr	r3, [r1, #0]
     6c6:	3201      	add	r2, #1
     6c8:	4290      	cmp	r0, r2
     6ca:	d1fb      	bne	6c4 <dele+0x8>
     6cc:	4770      	bx	lr
     6ce:	0000      	lsl	r0, r0, #0
     6d0:	c000      	stmia	r0!,{}
     6d2:	3fff      	sub	r7, #255

000006d4 <init_task_cywusb>:
     6d4:	b500      	push	{lr}
     6d6:	b082      	sub	sp, #8
     6d8:	4906      	ldr	r1, [pc, #24]	(6f4 <prog+0x6b0>)
     6da:	4807      	ldr	r0, [pc, #28]	(6f8 <prog+0x6b4>)
     6dc:	2282      	mov	r2, #130
     6de:	00d2      	lsl	r2, r2, #3
     6e0:	2303      	mov	r3, #3
     6e2:	9300      	str	r3, [sp, #0]
     6e4:	4b05      	ldr	r3, [pc, #20]	(6fc <prog+0x6b8>)
     6e6:	9301      	str	r3, [sp, #4]
     6e8:	2300      	mov	r3, #0
     6ea:	f93bf001 	bl	1964 <xTaskCreate>
     6ee:	b002      	add	sp, #8
     6f0:	bc01      	pop	{r0}
     6f2:	4700      	bx	r0
     6f4:	3190      	add	r1, #144
     6f6:	0001      	lsl	r1, r0, #0
     6f8:	0791      	lsl	r1, r2, #30
     6fa:	0000      	lsl	r0, r0, #0
     6fc:	64ac      	str	r4, [r5, #72]
     6fe:	4000      	and	r0, r0

00000700 <init_led_utama>:
     700:	b500      	push	{lr}
     702:	b082      	sub	sp, #8
     704:	4906      	ldr	r1, [pc, #24]	(720 <prog+0x6dc>)
     706:	4807      	ldr	r0, [pc, #28]	(724 <prog+0x6e0>)
     708:	2302      	mov	r3, #2
     70a:	425b      	neg	r3, r3
     70c:	9300      	str	r3, [sp, #0]
     70e:	4b06      	ldr	r3, [pc, #24]	(728 <prog+0x6e4>)
     710:	9301      	str	r3, [sp, #4]
     712:	22d0      	mov	r2, #208
     714:	2300      	mov	r3, #0
     716:	f925f001 	bl	1964 <xTaskCreate>
     71a:	b002      	add	sp, #8
     71c:	bc01      	pop	{r0}
     71e:	4700      	bx	r0
     720:	3198      	add	r1, #152
     722:	0001      	lsl	r1, r0, #0
     724:	0835      	lsr	r5, r6, #0
     726:	0000      	lsl	r0, r0, #0
     728:	64b8      	str	r0, [r7, #72]
     72a:	4000      	and	r0, r0

0000072c <wusbnya_in>:
     72c:	b570      	push	{r4, r5, r6, lr}
     72e:	7800      	ldrb	r0, [r0, #0]
     730:	280d      	cmp	r0, #13
     732:	d001      	beq	738 <wusbnya_in+0xc>
     734:	280a      	cmp	r0, #10
     736:	d115      	bne	764 <wusbnya_in+0x38>
     738:	4e12      	ldr	r6, [pc, #72]	(784 <prog+0x740>)
     73a:	2300      	mov	r3, #0
     73c:	6033      	str	r3, [r6, #0]
     73e:	4d12      	ldr	r5, [pc, #72]	(788 <prog+0x744>)
     740:	4912      	ldr	r1, [pc, #72]	(78c <prog+0x748>)
     742:	1c28      	mov	r0, r5		(add r0, r5, #0)
     744:	2205      	mov	r2, #5
     746:	fc1ff007 	bl	7f88 <strncmp>
     74a:	1c04      	mov	r4, r0		(add r4, r0, #0)
     74c:	2800      	cmp	r0, #0
     74e:	d115      	bne	77c <wusbnya_in+0x50>
     750:	1c28      	mov	r0, r5		(add r0, r5, #0)
     752:	fc15f002 	bl	2f80 <paket_rpm>
     756:	6034      	str	r4, [r6, #0]
     758:	1c28      	mov	r0, r5		(add r0, r5, #0)
     75a:	2100      	mov	r1, #0
     75c:	2210      	mov	r2, #16
     75e:	f955f007 	bl	7a0c <memset>
     762:	e005      	b	770 <wusbnya_in+0x44>
     764:	4b07      	ldr	r3, [pc, #28]	(784 <prog+0x740>)
     766:	681a      	ldr	r2, [r3, #0]
     768:	4907      	ldr	r1, [pc, #28]	(788 <prog+0x744>)
     76a:	5488      	strb	r0, [r1, r2]
     76c:	3201      	add	r2, #1
     76e:	601a      	str	r2, [r3, #0]
     770:	4a04      	ldr	r2, [pc, #16]	(784 <prog+0x740>)
     772:	6813      	ldr	r3, [r2, #0]
     774:	2b10      	cmp	r3, #16
     776:	d901      	bls	77c <wusbnya_in+0x50>
     778:	2300      	mov	r3, #0
     77a:	6013      	str	r3, [r2, #0]
     77c:	bc70      	pop	{r4, r5, r6}
     77e:	bc01      	pop	{r0}
     780:	4700      	bx	r0
     782:	0000      	lsl	r0, r0, #0
     784:	0aa4      	lsr	r4, r4, #10
     786:	4000      	and	r0, r0
     788:	0a94      	lsr	r4, r2, #10
     78a:	4000      	and	r0, r0
     78c:	31a0      	add	r1, #160
     78e:	0001      	lsl	r1, r0, #0

00000790 <task_cywusb>:
     790:	b5f0      	push	{r4, r5, r6, r7, lr}
     792:	b081      	sub	sp, #4
     794:	20fa      	mov	r0, #250
     796:	00c0      	lsl	r0, r0, #3
     798:	f8a0f001 	bl	18dc <vTaskDelay>
     79c:	2400      	mov	r4, #0
     79e:	25fa      	mov	r5, #250
     7a0:	00ad      	lsl	r5, r5, #2
     7a2:	4f0c      	ldr	r7, [pc, #48]	(7d4 <prog+0x790>)
     7a4:	2001      	mov	r0, #1
     7a6:	4669      	mov	r1, sp
     7a8:	1c2a      	mov	r2, r5		(add r2, r5, #0)
     7aa:	fa67f000 	bl	c7c <ser2_getchar>
     7ae:	2801      	cmp	r0, #1
     7b0:	d102      	bne	7b8 <task_cywusb+0x28>
     7b2:	4668      	mov	r0, sp
     7b4:	ffbaf7ff 	bl	72c <wusbnya_in>
     7b8:	3401      	add	r4, #1
     7ba:	2c64      	cmp	r4, #100
     7bc:	d905      	bls	7ca <task_cywusb+0x3a>
     7be:	4b06      	ldr	r3, [pc, #24]	(7d8 <prog+0x794>)
     7c0:	6819      	ldr	r1, [r3, #0]
     7c2:	1c38      	mov	r0, r7		(add r0, r7, #0)
     7c4:	fb9af000 	bl	efc <printf2>
     7c8:	2400      	mov	r4, #0
     7ca:	200a      	mov	r0, #10
     7cc:	f886f001 	bl	18dc <vTaskDelay>
     7d0:	e7e8      	b	7a4 <task_cywusb+0x14>
     7d2:	0000      	lsl	r0, r0, #0
     7d4:	31a8      	add	r1, #168
     7d6:	0001      	lsl	r1, r0, #0
     7d8:	5ffc      	ldrsh	r4, [r7, r7]
     7da:	4000      	and	r0, r0

000007dc <togle_led_utama>:
     7dc:	b500      	push	{lr}
     7de:	490f      	ldr	r1, [pc, #60]	(81c <prog+0x7d8>)
     7e0:	680b      	ldr	r3, [r1, #0]
     7e2:	2b00      	cmp	r3, #0
     7e4:	d010      	beq	808 <togle_led_utama+0x2c>
     7e6:	2380      	mov	r3, #128
     7e8:	051b      	lsl	r3, r3, #20
     7ea:	4a0d      	ldr	r2, [pc, #52]	(820 <prog+0x7dc>)
     7ec:	6013      	str	r3, [r2, #0]
     7ee:	2300      	mov	r3, #0
     7f0:	600b      	str	r3, [r1, #0]
     7f2:	4b0c      	ldr	r3, [pc, #48]	(824 <prog+0x7e0>)
     7f4:	6819      	ldr	r1, [r3, #0]
     7f6:	480c      	ldr	r0, [pc, #48]	(828 <prog+0x7e4>)
     7f8:	4a0c      	ldr	r2, [pc, #48]	(82c <prog+0x7e8>)
     7fa:	6813      	ldr	r3, [r2, #0]
     7fc:	1acb      	sub	r3, r1, r3
     7fe:	6003      	str	r3, [r0, #0]
     800:	6011      	str	r1, [r2, #0]
     802:	f9abf000 	bl	b5c <tendang_wdog>
     806:	e006      	b	816 <togle_led_utama+0x3a>
     808:	2380      	mov	r3, #128
     80a:	051b      	lsl	r3, r3, #20
     80c:	4a08      	ldr	r2, [pc, #32]	(830 <prog+0x7ec>)
     80e:	6013      	str	r3, [r2, #0]
     810:	4a02      	ldr	r2, [pc, #8]	(81c <prog+0x7d8>)
     812:	2301      	mov	r3, #1
     814:	6013      	str	r3, [r2, #0]
     816:	bc01      	pop	{r0}
     818:	4700      	bx	r0
     81a:	0000      	lsl	r0, r0, #0
     81c:	0a90      	lsr	r0, r2, #10
     81e:	4000      	and	r0, r0
     820:	c018      	stmia	r0!,{r3, r4}
     822:	3fff      	sub	r7, #255
     824:	0a8c      	lsr	r4, r1, #10
     826:	4000      	and	r0, r0
     828:	64a0      	str	r0, [r4, #72]
     82a:	4000      	and	r0, r0
     82c:	64b4      	str	r4, [r6, #72]
     82e:	4000      	and	r0, r0
     830:	c01c      	stmia	r0!,{r2, r3, r4}
     832:	3fff      	sub	r7, #255

00000834 <task_led2>:
     834:	b510      	push	{r4, lr}
     836:	4b07      	ldr	r3, [pc, #28]	(854 <prog+0x810>)
     838:	2200      	mov	r2, #0
     83a:	601a      	str	r2, [r3, #0]
     83c:	4b06      	ldr	r3, [pc, #24]	(858 <prog+0x814>)
     83e:	601a      	str	r2, [r3, #0]
     840:	4b06      	ldr	r3, [pc, #24]	(85c <prog+0x818>)
     842:	601a      	str	r2, [r3, #0]
     844:	24fa      	mov	r4, #250
     846:	0064      	lsl	r4, r4, #1
     848:	ffc8f7ff 	bl	7dc <togle_led_utama>
     84c:	1c20      	mov	r0, r4		(add r0, r4, #0)
     84e:	f845f001 	bl	18dc <vTaskDelay>
     852:	e7f9      	b	848 <task_led2+0x14>
     854:	0a90      	lsr	r0, r2, #10
     856:	4000      	and	r0, r0
     858:	0a8c      	lsr	r4, r1, #10
     85a:	4000      	and	r0, r0
     85c:	64b4      	str	r4, [r6, #72]
     85e:	4000      	and	r0, r0

00000860 <main>:
     860:	b500      	push	{lr}
     862:	f891f000 	bl	988 <sysInit>
     866:	491e      	ldr	r1, [pc, #120]	(8e0 <prog+0x89c>)
     868:	680a      	ldr	r2, [r1, #0]
     86a:	2380      	mov	r3, #128
     86c:	061b      	lsl	r3, r3, #24
     86e:	431a      	orr	r2, r3
     870:	600a      	str	r2, [r1, #0]
     872:	2380      	mov	r3, #128
     874:	051b      	lsl	r3, r3, #20
     876:	4a1b      	ldr	r2, [pc, #108]	(8e4 <prog+0x8a0>)
     878:	6013      	str	r3, [r2, #0]
     87a:	321c      	add	r2, #28
     87c:	6013      	str	r3, [r2, #0]
     87e:	2301      	mov	r3, #1
     880:	425b      	neg	r3, r3
     882:	3204      	add	r2, #4
     884:	6013      	str	r3, [r2, #0]
     886:	680a      	ldr	r2, [r1, #0]
     888:	2380      	mov	r3, #128
     88a:	045b      	lsl	r3, r3, #17
     88c:	431a      	orr	r2, r3
     88e:	600a      	str	r2, [r1, #0]
     890:	31e8      	add	r1, #232
     892:	680b      	ldr	r3, [r1, #0]
     894:	4a14      	ldr	r2, [pc, #80]	(8e8 <prog+0x8a4>)
     896:	4013      	and	r3, r2
     898:	600b      	str	r3, [r1, #0]
     89a:	680a      	ldr	r2, [r1, #0]
     89c:	2380      	mov	r3, #128
     89e:	025b      	lsl	r3, r3, #9
     8a0:	431a      	orr	r2, r3
     8a2:	600a      	str	r2, [r1, #0]
     8a4:	4911      	ldr	r1, [pc, #68]	(8ec <prog+0x8a8>)
     8a6:	680a      	ldr	r2, [r1, #0]
     8a8:	23a0      	mov	r3, #160
     8aa:	03db      	lsl	r3, r3, #15
     8ac:	431a      	orr	r2, r3
     8ae:	600a      	str	r2, [r1, #0]
     8b0:	20e1      	mov	r0, #225
     8b2:	0240      	lsl	r0, r0, #9
     8b4:	2168      	mov	r1, #104
     8b6:	fac5f000 	bl	e44 <xSerialPortInitMinimal>
     8ba:	2096      	mov	r0, #150
     8bc:	0200      	lsl	r0, r0, #8
     8be:	2168      	mov	r1, #104
     8c0:	fa08f000 	bl	cd4 <serial2_init>
     8c4:	ff1cf7ff 	bl	700 <init_led_utama>
     8c8:	fb8af005 	bl	5fe0 <start_ether>
     8cc:	ff02f7ff 	bl	6d4 <init_task_cywusb>
     8d0:	ff42f001 	bl	2758 <init_shell>
     8d4:	f904f001 	bl	1ae0 <vTaskStartScheduler>
     8d8:	2000      	mov	r0, #0
     8da:	bc02      	pop	{r1}
     8dc:	4708      	bx	r1
     8de:	0000      	lsl	r0, r0, #0
     8e0:	c0c4      	stmia	r0!,{r2, r6, r7}
     8e2:	e01f      	b	924 <ubah_clk+0x34>
     8e4:	c000      	stmia	r0!,{}
     8e6:	3fff      	sub	r7, #255
     8e8:	ffff      	second half of BL instruction 0xffff
     8ea:	fffc      	second half of BL instruction 0xfffc
     8ec:	c000      	stmia	r0!,{}
     8ee:	e002      	b	8f6 <ubah_clk+0x6>

000008f0 <ubah_clk>:
     8f0:	b570      	push	{r4, r5, r6, lr}
     8f2:	1c06      	mov	r6, r0		(add r6, r0, #0)
     8f4:	4b1e      	ldr	r3, [pc, #120]	(970 <prog+0x92c>)
     8f6:	681b      	ldr	r3, [r3, #0]
     8f8:	019a      	lsl	r2, r3, #6
     8fa:	d507      	bpl	90c <ubah_clk+0x1c>
     8fc:	2201      	mov	r2, #1
     8fe:	4b1d      	ldr	r3, [pc, #116]	(974 <prog+0x930>)
     900:	601a      	str	r2, [r3, #0]
     902:	4a1d      	ldr	r2, [pc, #116]	(978 <prog+0x934>)
     904:	23aa      	mov	r3, #170
     906:	6013      	str	r3, [r2, #0]
     908:	2355      	mov	r3, #85
     90a:	6013      	str	r3, [r2, #0]
     90c:	4d19      	ldr	r5, [pc, #100]	(974 <prog+0x930>)
     90e:	2300      	mov	r3, #0
     910:	602b      	str	r3, [r5, #0]
     912:	4a19      	ldr	r2, [pc, #100]	(978 <prog+0x934>)
     914:	24aa      	mov	r4, #170
     916:	6014      	str	r4, [r2, #0]
     918:	2055      	mov	r0, #85
     91a:	6010      	str	r0, [r2, #0]
     91c:	213b      	mov	r1, #59
     91e:	4b17      	ldr	r3, [pc, #92]	(97c <prog+0x938>)
     920:	6019      	str	r1, [r3, #0]
     922:	6014      	str	r4, [r2, #0]
     924:	6010      	str	r0, [r2, #0]
     926:	2301      	mov	r3, #1
     928:	602b      	str	r3, [r5, #0]
     92a:	6014      	str	r4, [r2, #0]
     92c:	6010      	str	r0, [r2, #0]
     92e:	1e72      	sub	r2, r6, #1
     930:	4b13      	ldr	r3, [pc, #76]	(980 <prog+0x93c>)
     932:	601a      	str	r2, [r3, #0]
     934:	490e      	ldr	r1, [pc, #56]	(970 <prog+0x92c>)
     936:	2280      	mov	r2, #128
     938:	04d2      	lsl	r2, r2, #19
     93a:	680b      	ldr	r3, [r1, #0]
     93c:	4213      	tst	r3, r2
     93e:	d0fc      	beq	93a <ubah_clk+0x4a>
     940:	680b      	ldr	r3, [r1, #0]
     942:	4a10      	ldr	r2, [pc, #64]	(984 <prog+0x940>)
     944:	4013      	and	r3, r2
     946:	2b3b      	cmp	r3, #59
     948:	d000      	beq	94c <ubah_clk+0x5c>
     94a:	e7fe      	b	94a <ubah_clk+0x5a>
     94c:	2203      	mov	r2, #3
     94e:	4b09      	ldr	r3, [pc, #36]	(974 <prog+0x930>)
     950:	601a      	str	r2, [r3, #0]
     952:	4a09      	ldr	r2, [pc, #36]	(978 <prog+0x934>)
     954:	23aa      	mov	r3, #170
     956:	6013      	str	r3, [r2, #0]
     958:	2355      	mov	r3, #85
     95a:	6013      	str	r3, [r2, #0]
     95c:	4904      	ldr	r1, [pc, #16]	(970 <prog+0x92c>)
     95e:	2280      	mov	r2, #128
     960:	0492      	lsl	r2, r2, #18
     962:	680b      	ldr	r3, [r1, #0]
     964:	4213      	tst	r3, r2
     966:	d0fc      	beq	962 <ubah_clk+0x72>
     968:	bc70      	pop	{r4, r5, r6}
     96a:	bc01      	pop	{r0}
     96c:	4700      	bx	r0
     96e:	0000      	lsl	r0, r0, #0
     970:	c088      	stmia	r0!,{r3, r7}
     972:	e01f      	b	9b4 <sysInit+0x2c>
     974:	c080      	stmia	r0!,{r7}
     976:	e01f      	b	9b8 <sysInit+0x30>
     978:	c08c      	stmia	r0!,{r2, r3, r7}
     97a:	e01f      	b	9bc <sysInit+0x34>
     97c:	c084      	stmia	r0!,{r2, r7}
     97e:	e01f      	b	9c0 <sysInit+0x38>
     980:	c104      	stmia	r1!,{r2}
     982:	e01f      	b	9c4 <sysInit+0x3c>
     984:	7fff      	ldrb	r7, [r7, #31]
     986:	00ff      	lsl	r7, r7, #3

00000988 <sysInit>:
     988:	b530      	push	{r4, r5, lr}
     98a:	4b3f      	ldr	r3, [pc, #252]	(a88 <prog+0xa44>)
     98c:	681b      	ldr	r3, [r3, #0]
     98e:	019a      	lsl	r2, r3, #6
     990:	d507      	bpl	9a2 <sysInit+0x1a>
     992:	2201      	mov	r2, #1
     994:	4b3d      	ldr	r3, [pc, #244]	(a8c <prog+0xa48>)
     996:	601a      	str	r2, [r3, #0]
     998:	4a3d      	ldr	r2, [pc, #244]	(a90 <prog+0xa4c>)
     99a:	23aa      	mov	r3, #170
     99c:	6013      	str	r3, [r2, #0]
     99e:	2355      	mov	r3, #85
     9a0:	6013      	str	r3, [r2, #0]
     9a2:	4d3a      	ldr	r5, [pc, #232]	(a8c <prog+0xa48>)
     9a4:	2300      	mov	r3, #0
     9a6:	602b      	str	r3, [r5, #0]
     9a8:	4a39      	ldr	r2, [pc, #228]	(a90 <prog+0xa4c>)
     9aa:	24aa      	mov	r4, #170
     9ac:	6014      	str	r4, [r2, #0]
     9ae:	2055      	mov	r0, #85
     9b0:	6010      	str	r0, [r2, #0]
     9b2:	213b      	mov	r1, #59
     9b4:	4b37      	ldr	r3, [pc, #220]	(a94 <prog+0xa50>)
     9b6:	6019      	str	r1, [r3, #0]
     9b8:	6014      	str	r4, [r2, #0]
     9ba:	6010      	str	r0, [r2, #0]
     9bc:	2301      	mov	r3, #1
     9be:	602b      	str	r3, [r5, #0]
     9c0:	6014      	str	r4, [r2, #0]
     9c2:	6010      	str	r0, [r2, #0]
     9c4:	2207      	mov	r2, #7
     9c6:	4b34      	ldr	r3, [pc, #208]	(a98 <prog+0xa54>)
     9c8:	601a      	str	r2, [r3, #0]
     9ca:	492f      	ldr	r1, [pc, #188]	(a88 <prog+0xa44>)
     9cc:	2280      	mov	r2, #128
     9ce:	04d2      	lsl	r2, r2, #19
     9d0:	680b      	ldr	r3, [r1, #0]
     9d2:	4213      	tst	r3, r2
     9d4:	d0fc      	beq	9d0 <sysInit+0x48>
     9d6:	680b      	ldr	r3, [r1, #0]
     9d8:	4a30      	ldr	r2, [pc, #192]	(a9c <prog+0xa58>)
     9da:	4013      	and	r3, r2
     9dc:	2b3b      	cmp	r3, #59
     9de:	d000      	beq	9e2 <sysInit+0x5a>
     9e0:	e7fe      	b	9e0 <sysInit+0x58>
     9e2:	2203      	mov	r2, #3
     9e4:	4b29      	ldr	r3, [pc, #164]	(a8c <prog+0xa48>)
     9e6:	601a      	str	r2, [r3, #0]
     9e8:	4a29      	ldr	r2, [pc, #164]	(a90 <prog+0xa4c>)
     9ea:	23aa      	mov	r3, #170
     9ec:	6013      	str	r3, [r2, #0]
     9ee:	2355      	mov	r3, #85
     9f0:	6013      	str	r3, [r2, #0]
     9f2:	4925      	ldr	r1, [pc, #148]	(a88 <prog+0xa44>)
     9f4:	2280      	mov	r2, #128
     9f6:	0492      	lsl	r2, r2, #18
     9f8:	680b      	ldr	r3, [r1, #0]
     9fa:	4213      	tst	r3, r2
     9fc:	d0fc      	beq	9f8 <sysInit+0x70>
     9fe:	4828      	ldr	r0, [pc, #160]	(aa0 <prog+0xa5c>)
     a00:	2200      	mov	r2, #0
     a02:	6002      	str	r2, [r0, #0]
     a04:	2103      	mov	r1, #3
     a06:	4b27      	ldr	r3, [pc, #156]	(aa4 <prog+0xa60>)
     a08:	6019      	str	r1, [r3, #0]
     a0a:	2302      	mov	r3, #2
     a0c:	6003      	str	r3, [r0, #0]
     a0e:	4926      	ldr	r1, [pc, #152]	(aa8 <prog+0xa64>)
     a10:	4b26      	ldr	r3, [pc, #152]	(aac <prog+0xa68>)
     a12:	6019      	str	r1, [r3, #0]
     a14:	3304      	add	r3, #4
     a16:	6019      	str	r1, [r3, #0]
     a18:	2001      	mov	r0, #1
     a1a:	4b25      	ldr	r3, [pc, #148]	(ab0 <prog+0xa6c>)
     a1c:	6018      	str	r0, [r3, #0]
     a1e:	4925      	ldr	r1, [pc, #148]	(ab4 <prog+0xa70>)
     a20:	680b      	ldr	r3, [r1, #0]
     a22:	4303      	orr	r3, r0
     a24:	600b      	str	r3, [r1, #0]
     a26:	4924      	ldr	r1, [pc, #144]	(ab8 <prog+0xa74>)
     a28:	600a      	str	r2, [r1, #0]
     a2a:	4b24      	ldr	r3, [pc, #144]	(abc <prog+0xa78>)
     a2c:	601a      	str	r2, [r3, #0]
     a2e:	3304      	add	r3, #4
     a30:	601a      	str	r2, [r3, #0]
     a32:	3304      	add	r3, #4
     a34:	601a      	str	r2, [r3, #0]
     a36:	3304      	add	r3, #4
     a38:	601a      	str	r2, [r3, #0]
     a3a:	3304      	add	r3, #4
     a3c:	601a      	str	r2, [r3, #0]
     a3e:	3304      	add	r3, #4
     a40:	601a      	str	r2, [r3, #0]
     a42:	3304      	add	r3, #4
     a44:	601a      	str	r2, [r3, #0]
     a46:	3304      	add	r3, #4
     a48:	601a      	str	r2, [r3, #0]
     a4a:	3304      	add	r3, #4
     a4c:	601a      	str	r2, [r3, #0]
     a4e:	3304      	add	r3, #4
     a50:	601a      	str	r2, [r3, #0]
     a52:	3318      	add	r3, #24
     a54:	601a      	str	r2, [r3, #0]
     a56:	3304      	add	r3, #4
     a58:	601a      	str	r2, [r3, #0]
     a5a:	3304      	add	r3, #4
     a5c:	601a      	str	r2, [r3, #0]
     a5e:	3304      	add	r3, #4
     a60:	601a      	str	r2, [r3, #0]
     a62:	3304      	add	r3, #4
     a64:	601a      	str	r2, [r3, #0]
     a66:	3304      	add	r3, #4
     a68:	601a      	str	r2, [r3, #0]
     a6a:	3304      	add	r3, #4
     a6c:	601a      	str	r2, [r3, #0]
     a6e:	3304      	add	r3, #4
     a70:	601a      	str	r2, [r3, #0]
     a72:	3304      	add	r3, #4
     a74:	601a      	str	r2, [r3, #0]
     a76:	680b      	ldr	r3, [r1, #0]
     a78:	2250      	mov	r2, #80
     a7a:	4313      	orr	r3, r2
     a7c:	600b      	str	r3, [r1, #0]
     a7e:	f875f000 	bl	b6c <setup_wdog>
     a82:	bc30      	pop	{r4, r5}
     a84:	bc01      	pop	{r0}
     a86:	4700      	bx	r0
     a88:	c088      	stmia	r0!,{r3, r7}
     a8a:	e01f      	b	acc <_fstat_r>
     a8c:	c080      	stmia	r0!,{r7}
     a8e:	e01f      	b	ad0 <_fstat_r+0x4>
     a90:	c08c      	stmia	r0!,{r2, r3, r7}
     a92:	e01f      	b	ad4 <_fstat_r+0x8>
     a94:	c084      	stmia	r0!,{r2, r7}
     a96:	e01f      	b	ad8 <_isatty>
     a98:	c104      	stmia	r1!,{r2}
     a9a:	e01f      	b	adc <_sbrk_r>
     a9c:	7fff      	ldrb	r7, [r7, #31]
     a9e:	00ff      	lsl	r7, r7, #3
     aa0:	c000      	stmia	r0!,{}
     aa2:	e01f      	b	ae4 <_sbrk_r+0x8>
     aa4:	c004      	stmia	r0!,{r2}
     aa6:	e01f      	b	ae8 <_sbrk_r+0xc>
     aa8:	5555      	strb	r5, [r2, r5]
     aaa:	5555      	strb	r5, [r2, r5]
     aac:	c1a8      	stmia	r1!,{r3, r5, r7}
     aae:	e01f      	b	af0 <_sbrk_r+0x14>
     ab0:	c040      	stmia	r0!,{r6}
     ab2:	e01f      	b	af4 <prog+0xab0>
     ab4:	c1a0      	stmia	r1!,{r5, r7}
     ab6:	e01f      	b	af8 <prog+0xab4>
     ab8:	c000      	stmia	r0!,{}
     aba:	e002      	b	ac2 <_write_r+0x2>
     abc:	c004      	stmia	r0!,{r2}
     abe:	e002      	b	ac6 <_close_r+0x2>

00000ac0 <_write_r>:
     ac0:	1c18      	mov	r0, r3		(add r0, r3, #0)
     ac2:	4770      	bx	lr

00000ac4 <_close_r>:
     ac4:	2000      	mov	r0, #0
     ac6:	4770      	bx	lr

00000ac8 <_lseek_r>:
     ac8:	2000      	mov	r0, #0
     aca:	4770      	bx	lr

00000acc <_fstat_r>:
     acc:	2380      	mov	r3, #128
     ace:	019b      	lsl	r3, r3, #6
     ad0:	6053      	str	r3, [r2, #4]
     ad2:	2000      	mov	r0, #0
     ad4:	4770      	bx	lr
	...

00000ad8 <_isatty>:
     ad8:	2001      	mov	r0, #1
     ada:	4770      	bx	lr

00000adc <_sbrk_r>:
     adc:	4a05      	ldr	r2, [pc, #20]	(af4 <prog+0xab0>)
     ade:	6813      	ldr	r3, [r2, #0]
     ae0:	2b00      	cmp	r3, #0
     ae2:	d101      	bne	ae8 <_sbrk_r+0xc>
     ae4:	4b04      	ldr	r3, [pc, #16]	(af8 <prog+0xab4>)
     ae6:	6013      	str	r3, [r2, #0]
     ae8:	4b02      	ldr	r3, [pc, #8]	(af4 <prog+0xab0>)
     aea:	6818      	ldr	r0, [r3, #0]
     aec:	1842      	add	r2, r0, r1
     aee:	601a      	str	r2, [r3, #0]
     af0:	4770      	bx	lr
     af2:	0000      	lsl	r0, r0, #0
     af4:	0aa8      	lsr	r0, r5, #10
     af6:	4000      	and	r0, r0
     af8:	128c      	asr	r4, r1, #10
     afa:	7fe0      	ldrb	r0, [r4, #31]

00000afc <_read_r>:
     afc:	b5f0      	push	{r4, r5, r6, r7, lr}
     afe:	4657      	mov	r7, sl
     b00:	4646      	mov	r6, r8
     b02:	b4c0      	push	{r6, r7}
     b04:	b081      	sub	sp, #4
     b06:	1c1e      	mov	r6, r3		(add r6, r3, #0)
     b08:	2b00      	cmp	r3, #0
     b0a:	d105      	bne	b18 <_read_r+0x1c>
     b0c:	2500      	mov	r5, #0
     b0e:	e01b      	b	b48 <_read_r+0x4c>
     b10:	230a      	mov	r3, #10
     b12:	7023      	strb	r3, [r4, #0]
     b14:	3502      	add	r5, #2
     b16:	e017      	b	b48 <_read_r+0x4c>
     b18:	1c14      	mov	r4, r2		(add r4, r2, #0)
     b1a:	2500      	mov	r5, #0
     b1c:	46a8      	mov	r8, r5
     b1e:	466f      	mov	r7, sp
     b20:	3703      	add	r7, #3
     b22:	4b0d      	ldr	r3, [pc, #52]	(b58 <prog+0xb14>)
     b24:	469a      	mov	sl, r3
     b26:	2001      	mov	r0, #1
     b28:	1c39      	mov	r1, r7		(add r1, r7, #0)
     b2a:	4652      	mov	r2, sl
     b2c:	f8c2f000 	bl	cb4 <xSerialGetChar>
     b30:	783b      	ldrb	r3, [r7, #0]
     b32:	7023      	strb	r3, [r4, #0]
     b34:	3401      	add	r4, #1
     b36:	2b0d      	cmp	r3, #13
     b38:	d102      	bne	b40 <_read_r+0x44>
     b3a:	1eb3      	sub	r3, r6, #2
     b3c:	4543      	cmp	r3, r8
     b3e:	d2e7      	bcs	b10 <_read_r+0x14>
     b40:	3501      	add	r5, #1
     b42:	46a8      	mov	r8, r5
     b44:	42ae      	cmp	r6, r5
     b46:	d1ee      	bne	b26 <_read_r+0x2a>
     b48:	1c28      	mov	r0, r5		(add r0, r5, #0)
     b4a:	b001      	add	sp, #4
     b4c:	bc0c      	pop	{r2, r3}
     b4e:	4690      	mov	r8, r2
     b50:	469a      	mov	sl, r3
     b52:	bcf0      	pop	{r4, r5, r6, r7}
     b54:	bc02      	pop	{r1}
     b56:	4708      	bx	r1
     b58:	ffff      	second half of BL instruction 0xffff
	...

00000b5c <tendang_wdog>:
     b5c:	4b02      	ldr	r3, [pc, #8]	(b68 <prog+0xb24>)
     b5e:	22aa      	mov	r2, #170
     b60:	601a      	str	r2, [r3, #0]
     b62:	2255      	mov	r2, #85
     b64:	601a      	str	r2, [r3, #0]
     b66:	4770      	bx	lr
     b68:	0008      	lsl	r0, r1, #0
     b6a:	e000      	b	b6e <setup_wdog+0x2>

00000b6c <setup_wdog>:
     b6c:	b500      	push	{lr}
     b6e:	2200      	mov	r2, #0
     b70:	4b06      	ldr	r3, [pc, #24]	(b8c <prog+0xb48>)
     b72:	601a      	str	r2, [r3, #0]
     b74:	4a06      	ldr	r2, [pc, #24]	(b90 <prog+0xb4c>)
     b76:	3b0c      	sub	r3, #12
     b78:	601a      	str	r2, [r3, #0]
     b7a:	23e0      	mov	r3, #224
     b7c:	061b      	lsl	r3, r3, #24
     b7e:	2203      	mov	r2, #3
     b80:	601a      	str	r2, [r3, #0]
     b82:	ffebf7ff 	bl	b5c <tendang_wdog>
     b86:	bc01      	pop	{r0}
     b88:	4700      	bx	r0
     b8a:	0000      	lsl	r0, r0, #0
     b8c:	0010      	lsl	r0, r2, #0
     b8e:	e000      	b	b92 <prog+0xb4e>
     b90:	8700      	strh	r0, [r0, #56]
     b92:	0393      	lsl	r3, r2, #14

00000b94 <reset_cpu>:
     b94:	b500      	push	{lr}
     b96:	4809      	ldr	r0, [pc, #36]	(bbc <prog+0xb78>)
     b98:	f9b0f000 	bl	efc <printf2>
     b9c:	2396      	mov	r3, #150
     b9e:	005b      	lsl	r3, r3, #1
     ba0:	4a07      	ldr	r2, [pc, #28]	(bc0 <prog+0xb7c>)
     ba2:	6013      	str	r3, [r2, #0]
     ba4:	23e0      	mov	r3, #224
     ba6:	061b      	lsl	r3, r3, #24
     ba8:	2203      	mov	r2, #3
     baa:	601a      	str	r2, [r3, #0]
     bac:	4a05      	ldr	r2, [pc, #20]	(bc4 <prog+0xb80>)
     bae:	23aa      	mov	r3, #170
     bb0:	6013      	str	r3, [r2, #0]
     bb2:	2355      	mov	r3, #85
     bb4:	6013      	str	r3, [r2, #0]
     bb6:	bc01      	pop	{r0}
     bb8:	4700      	bx	r0
     bba:	0000      	lsl	r0, r0, #0
     bbc:	31c0      	add	r1, #192
     bbe:	0001      	lsl	r1, r0, #0
     bc0:	0004      	lsl	r4, r0, #0
     bc2:	e000      	b	bc6 <prog+0xb82>
     bc4:	0008      	lsl	r0, r1, #0
     bc6:	e000      	b	bca <vSerialClose+0x2>

00000bc8 <vSerialClose>:
     bc8:	4770      	bx	lr
	...

00000bcc <uart0GetRxQueue>:
     bcc:	4b01      	ldr	r3, [pc, #4]	(bd4 <prog+0xb90>)
     bce:	681b      	ldr	r3, [r3, #0]
     bd0:	6003      	str	r3, [r0, #0]
     bd2:	4770      	bx	lr
     bd4:	0aac      	lsr	r4, r5, #10
     bd6:	4000      	and	r0, r0

00000bd8 <xSerialPutChar2>:
     bd8:	b530      	push	{r4, r5, lr}
     bda:	b081      	sub	sp, #4
     bdc:	1c15      	mov	r5, r2		(add r5, r2, #0)
     bde:	466c      	mov	r4, sp
     be0:	7021      	strb	r1, [r4, #0]
     be2:	fcaff013 	bl	14544 <__vPortEnterCritical_from_thumb>
     be6:	4b0e      	ldr	r3, [pc, #56]	(c20 <prog+0xbdc>)
     be8:	681a      	ldr	r2, [r3, #0]
     bea:	6813      	ldr	r3, [r2, #0]
     bec:	2b01      	cmp	r3, #1
     bee:	d107      	bne	c00 <xSerialPutChar2+0x28>
     bf0:	2300      	mov	r3, #0
     bf2:	6013      	str	r3, [r2, #0]
     bf4:	2200      	mov	r2, #0
     bf6:	56a2      	ldrsb	r2, [r4, r2]
     bf8:	4b0a      	ldr	r3, [pc, #40]	(c24 <prog+0xbe0>)
     bfa:	601a      	str	r2, [r3, #0]
     bfc:	2401      	mov	r4, #1
     bfe:	e007      	b	c10 <xSerialPutChar2+0x38>
     c00:	4b09      	ldr	r3, [pc, #36]	(c28 <prog+0xbe4>)
     c02:	6818      	ldr	r0, [r3, #0]
     c04:	4669      	mov	r1, sp
     c06:	1c2a      	mov	r2, r5		(add r2, r5, #0)
     c08:	2300      	mov	r3, #0
     c0a:	fb1ff000 	bl	124c <xQueueGenericSend>
     c0e:	1c04      	mov	r4, r0		(add r4, r0, #0)
     c10:	fc9cf013 	bl	1454c <__vPortExitCritical_from_thumb>
     c14:	1c20      	mov	r0, r4		(add r0, r4, #0)
     c16:	b001      	add	sp, #4
     c18:	bc30      	pop	{r4, r5}
     c1a:	bc02      	pop	{r1}
     c1c:	4708      	bx	r1
     c1e:	0000      	lsl	r0, r0, #0
     c20:	0ac0      	lsr	r0, r0, #11
     c22:	4000      	and	r0, r0
     c24:	8000      	strh	r0, [r0, #0]
     c26:	e007      	b	c38 <ser2_putstring+0xc>
     c28:	0abc      	lsr	r4, r7, #10
     c2a:	4000      	and	r0, r0

00000c2c <ser2_putstring>:
     c2c:	b530      	push	{r4, r5, lr}
     c2e:	1c04      	mov	r4, r0		(add r4, r0, #0)
     c30:	7801      	ldrb	r1, [r0, #0]
     c32:	2900      	cmp	r1, #0
     c34:	d00b      	beq	c4e <ser2_putstring+0x22>
     c36:	25fa      	mov	r5, #250
     c38:	00ad      	lsl	r5, r5, #2
     c3a:	0609      	lsl	r1, r1, #24
     c3c:	1609      	asr	r1, r1, #24
     c3e:	2001      	mov	r0, #1
     c40:	1c2a      	mov	r2, r5		(add r2, r5, #0)
     c42:	ffc9f7ff 	bl	bd8 <xSerialPutChar2>
     c46:	3401      	add	r4, #1
     c48:	7821      	ldrb	r1, [r4, #0]
     c4a:	2900      	cmp	r1, #0
     c4c:	d1f5      	bne	c3a <ser2_putstring+0xe>
     c4e:	bc30      	pop	{r4, r5}
     c50:	bc01      	pop	{r0}
     c52:	4700      	bx	r0

00000c54 <serX_putstring>:
     c54:	b500      	push	{lr}
     c56:	2802      	cmp	r0, #2
     c58:	d102      	bne	c60 <serX_putstring+0xc>
     c5a:	1c08      	mov	r0, r1		(add r0, r1, #0)
     c5c:	ffe6f7ff 	bl	c2c <ser2_putstring>
     c60:	bc01      	pop	{r0}
     c62:	4700      	bx	r0

00000c64 <serX_putchar>:
     c64:	b500      	push	{lr}
     c66:	2802      	cmp	r0, #2
     c68:	d105      	bne	c76 <serX_putchar+0x12>
     c6a:	7809      	ldrb	r1, [r1, #0]
     c6c:	0609      	lsl	r1, r1, #24
     c6e:	1609      	asr	r1, r1, #24
     c70:	2001      	mov	r0, #1
     c72:	ffb1f7ff 	bl	bd8 <xSerialPutChar2>
     c76:	bc01      	pop	{r0}
     c78:	4700      	bx	r0
	...

00000c7c <ser2_getchar>:
     c7c:	b500      	push	{lr}
     c7e:	4b06      	ldr	r3, [pc, #24]	(c98 <prog+0xc54>)
     c80:	6818      	ldr	r0, [r3, #0]
     c82:	2300      	mov	r3, #0
     c84:	f9f6f000 	bl	1074 <xQueueGenericReceive>
     c88:	2300      	mov	r3, #0
     c8a:	2800      	cmp	r0, #0
     c8c:	d000      	beq	c90 <ser2_getchar+0x14>
     c8e:	2301      	mov	r3, #1
     c90:	1c18      	mov	r0, r3		(add r0, r3, #0)
     c92:	bc02      	pop	{r1}
     c94:	4708      	bx	r1
     c96:	0000      	lsl	r0, r0, #0
     c98:	0ab8      	lsr	r0, r7, #10
     c9a:	4000      	and	r0, r0

00000c9c <serX_getchar>:
     c9c:	b500      	push	{lr}
     c9e:	2802      	cmp	r0, #2
     ca0:	d105      	bne	cae <serX_getchar+0x12>
     ca2:	7809      	ldrb	r1, [r1, #0]
     ca4:	0609      	lsl	r1, r1, #24
     ca6:	1609      	asr	r1, r1, #24
     ca8:	2001      	mov	r0, #1
     caa:	ffe7f7ff 	bl	c7c <ser2_getchar>
     cae:	bc01      	pop	{r0}
     cb0:	4700      	bx	r0
	...

00000cb4 <xSerialGetChar>:
     cb4:	b500      	push	{lr}
     cb6:	4b06      	ldr	r3, [pc, #24]	(cd0 <prog+0xc8c>)
     cb8:	6818      	ldr	r0, [r3, #0]
     cba:	2300      	mov	r3, #0
     cbc:	f9daf000 	bl	1074 <xQueueGenericReceive>
     cc0:	2300      	mov	r3, #0
     cc2:	2800      	cmp	r0, #0
     cc4:	d000      	beq	cc8 <xSerialGetChar+0x14>
     cc6:	2301      	mov	r3, #1
     cc8:	1c18      	mov	r0, r3		(add r0, r3, #0)
     cca:	bc02      	pop	{r1}
     ccc:	4708      	bx	r1
     cce:	0000      	lsl	r0, r0, #0
     cd0:	0aac      	lsr	r4, r5, #10
     cd2:	4000      	and	r0, r0

00000cd4 <serial2_init>:
     cd4:	b570      	push	{r4, r5, r6, lr}
     cd6:	1c06      	mov	r6, r0		(add r6, r0, #0)
     cd8:	4c21      	ldr	r4, [pc, #132]	(d60 <prog+0xd1c>)
     cda:	4d22      	ldr	r5, [pc, #136]	(d64 <prog+0xd20>)
     cdc:	4b22      	ldr	r3, [pc, #136]	(d68 <prog+0xd24>)
     cde:	1c08      	mov	r0, r1		(add r0, r1, #0)
     ce0:	1c21      	mov	r1, r4		(add r1, r4, #0)
     ce2:	1c2a      	mov	r2, r5		(add r2, r5, #0)
     ce4:	fc36f013 	bl	14554 <__vSerialISRCreateQueues2_from_thumb>
     ce8:	6823      	ldr	r3, [r4, #0]
     cea:	2b00      	cmp	r3, #0
     cec:	d034      	beq	d58 <serial2_init+0x84>
     cee:	682b      	ldr	r3, [r5, #0]
     cf0:	2b00      	cmp	r3, #0
     cf2:	d031      	beq	d58 <serial2_init+0x84>
     cf4:	2e00      	cmp	r6, #0
     cf6:	d02f      	beq	d58 <serial2_init+0x84>
     cf8:	fc24f013 	bl	14544 <__vPortEnterCritical_from_thumb>
     cfc:	0131      	lsl	r1, r6, #4
     cfe:	481b      	ldr	r0, [pc, #108]	(d6c <prog+0xd28>)
     d00:	fbdef00e 	bl	f4c0 <__aeabi_uidiv>
     d04:	491a      	ldr	r1, [pc, #104]	(d70 <prog+0xd2c>)
     d06:	680b      	ldr	r3, [r1, #0]
     d08:	2280      	mov	r2, #128
     d0a:	4313      	orr	r3, r2
     d0c:	600b      	str	r3, [r1, #0]
     d0e:	0603      	lsl	r3, r0, #24
     d10:	0e1b      	lsr	r3, r3, #24
     d12:	4a18      	ldr	r2, [pc, #96]	(d74 <prog+0xd30>)
     d14:	6013      	str	r3, [r2, #0]
     d16:	0400      	lsl	r0, r0, #16
     d18:	0e00      	lsr	r0, r0, #24
     d1a:	4c17      	ldr	r4, [pc, #92]	(d78 <prog+0xd34>)
     d1c:	6020      	str	r0, [r4, #0]
     d1e:	2207      	mov	r2, #7
     d20:	4b16      	ldr	r3, [pc, #88]	(d7c <prog+0xd38>)
     d22:	601a      	str	r2, [r3, #0]
     d24:	2003      	mov	r0, #3
     d26:	6008      	str	r0, [r1, #0]
     d28:	4915      	ldr	r1, [pc, #84]	(d80 <prog+0xd3c>)
     d2a:	680b      	ldr	r3, [r1, #0]
     d2c:	4a15      	ldr	r2, [pc, #84]	(d84 <prog+0xd40>)
     d2e:	4013      	and	r3, r2
     d30:	600b      	str	r3, [r1, #0]
     d32:	4a15      	ldr	r2, [pc, #84]	(d88 <prog+0xd44>)
     d34:	4b15      	ldr	r3, [pc, #84]	(d8c <prog+0xd48>)
     d36:	601a      	str	r2, [r3, #0]
     d38:	223c      	mov	r2, #60
     d3a:	4b15      	ldr	r3, [pc, #84]	(d90 <prog+0xd4c>)
     d3c:	601a      	str	r2, [r3, #0]
     d3e:	6823      	ldr	r3, [r4, #0]
     d40:	4303      	orr	r3, r0
     d42:	6023      	str	r3, [r4, #0]
     d44:	3104      	add	r1, #4
     d46:	680a      	ldr	r2, [r1, #0]
     d48:	2380      	mov	r3, #128
     d4a:	055b      	lsl	r3, r3, #21
     d4c:	431a      	orr	r2, r3
     d4e:	600a      	str	r2, [r1, #0]
     d50:	fbfcf013 	bl	1454c <__vPortExitCritical_from_thumb>
     d54:	2001      	mov	r0, #1
     d56:	e000      	b	d5a <serial2_init+0x86>
     d58:	2000      	mov	r0, #0
     d5a:	bc70      	pop	{r4, r5, r6}
     d5c:	bc02      	pop	{r1}
     d5e:	4708      	bx	r1
     d60:	0ab8      	lsr	r0, r7, #10
     d62:	4000      	and	r0, r0
     d64:	0abc      	lsr	r4, r7, #10
     d66:	4000      	and	r0, r0
     d68:	0ac0      	lsr	r0, r0, #11
     d6a:	4000      	and	r0, r0
     d6c:	8700      	strh	r0, [r0, #56]
     d6e:	0393      	lsl	r3, r2, #14
     d70:	800c      	strh	r4, [r1, #0]
     d72:	e007      	b	d84 <prog+0xd40>
     d74:	8000      	strh	r0, [r0, #0]
     d76:	e007      	b	d88 <prog+0xd44>
     d78:	8004      	strh	r4, [r0, #0]
     d7a:	e007      	b	d8c <prog+0xd48>
     d7c:	8008      	strh	r0, [r1, #0]
     d7e:	e007      	b	d90 <prog+0xd4c>
     d80:	fffff00c 	bl	dd82 <__sclose+0x2>
     d84:	ffff      	second half of BL instruction 0xffff
     d86:	efff      	undefined
     d88:	0394      	lsl	r4, r2, #14
     d8a:	0000      	lsl	r0, r0, #0
     d8c:	fffff170 	bl	171d8e <__data_beg_src__+0x15d81a>
     d90:	fffff270 	bl	271d92 <__data_beg_src__+0x25d81e>

00000d94 <xSerialPutChar>:
     d94:	b5f0      	push	{r4, r5, r6, r7, lr}
     d96:	b081      	sub	sp, #4
     d98:	1c15      	mov	r5, r2		(add r5, r2, #0)
     d9a:	466c      	mov	r4, sp
     d9c:	7021      	strb	r1, [r4, #0]
     d9e:	2000      	mov	r0, #0
     da0:	5620      	ldrsb	r0, [r4, r0]
     da2:	fb43f006 	bl	742c <telnetdPutChar>
     da6:	fbcdf013 	bl	14544 <__vPortEnterCritical_from_thumb>
     daa:	4b18      	ldr	r3, [pc, #96]	(e0c <prog+0xdc8>)
     dac:	681a      	ldr	r2, [r3, #0]
     dae:	6813      	ldr	r3, [r2, #0]
     db0:	2b01      	cmp	r3, #1
     db2:	d107      	bne	dc4 <xSerialPutChar+0x30>
     db4:	2300      	mov	r3, #0
     db6:	6013      	str	r3, [r2, #0]
     db8:	2200      	mov	r2, #0
     dba:	56a2      	ldrsb	r2, [r4, r2]
     dbc:	4b14      	ldr	r3, [pc, #80]	(e10 <prog+0xdcc>)
     dbe:	601a      	str	r2, [r3, #0]
     dc0:	2401      	mov	r4, #1
     dc2:	e01c      	b	dfe <xSerialPutChar+0x6a>
     dc4:	4e13      	ldr	r6, [pc, #76]	(e14 <prog+0xdd0>)
     dc6:	6830      	ldr	r0, [r6, #0]
     dc8:	466f      	mov	r7, sp
     dca:	4669      	mov	r1, sp
     dcc:	1c2a      	mov	r2, r5		(add r2, r5, #0)
     dce:	2300      	mov	r3, #0
     dd0:	fa3cf000 	bl	124c <xQueueGenericSend>
     dd4:	1c04      	mov	r4, r0		(add r4, r0, #0)
     dd6:	4d0d      	ldr	r5, [pc, #52]	(e0c <prog+0xdc8>)
     dd8:	682b      	ldr	r3, [r5, #0]
     dda:	681b      	ldr	r3, [r3, #0]
     ddc:	2b01      	cmp	r3, #1
     dde:	d10e      	bne	dfe <xSerialPutChar+0x6a>
     de0:	2801      	cmp	r0, #1
     de2:	d10c      	bne	dfe <xSerialPutChar+0x6a>
     de4:	6830      	ldr	r0, [r6, #0]
     de6:	4669      	mov	r1, sp
     de8:	2200      	mov	r2, #0
     dea:	2300      	mov	r3, #0
     dec:	f942f000 	bl	1074 <xQueueGenericReceive>
     df0:	682a      	ldr	r2, [r5, #0]
     df2:	2300      	mov	r3, #0
     df4:	6013      	str	r3, [r2, #0]
     df6:	2200      	mov	r2, #0
     df8:	56ba      	ldrsb	r2, [r7, r2]
     dfa:	4b05      	ldr	r3, [pc, #20]	(e10 <prog+0xdcc>)
     dfc:	601a      	str	r2, [r3, #0]
     dfe:	fba5f013 	bl	1454c <__vPortExitCritical_from_thumb>
     e02:	1c20      	mov	r0, r4		(add r0, r4, #0)
     e04:	b001      	add	sp, #4
     e06:	bcf0      	pop	{r4, r5, r6, r7}
     e08:	bc02      	pop	{r1}
     e0a:	4708      	bx	r1
     e0c:	0ab4      	lsr	r4, r6, #10
     e0e:	4000      	and	r0, r0
     e10:	c000      	stmia	r0!,{}
     e12:	e000      	b	e16 <prog+0xdd2>
     e14:	0ab0      	lsr	r0, r6, #10
     e16:	4000      	and	r0, r0

00000e18 <vSerialPutString>:
     e18:	b570      	push	{r4, r5, r6, lr}
     e1a:	1c05      	mov	r5, r0		(add r5, r0, #0)
     e1c:	1c0c      	mov	r4, r1		(add r4, r1, #0)
     e1e:	7809      	ldrb	r1, [r1, #0]
     e20:	2900      	cmp	r1, #0
     e22:	d00a      	beq	e3a <vSerialPutString+0x22>
     e24:	4e06      	ldr	r6, [pc, #24]	(e40 <prog+0xdfc>)
     e26:	0609      	lsl	r1, r1, #24
     e28:	1609      	asr	r1, r1, #24
     e2a:	1c28      	mov	r0, r5		(add r0, r5, #0)
     e2c:	1c32      	mov	r2, r6		(add r2, r6, #0)
     e2e:	ffb1f7ff 	bl	d94 <xSerialPutChar>
     e32:	3401      	add	r4, #1
     e34:	7821      	ldrb	r1, [r4, #0]
     e36:	2900      	cmp	r1, #0
     e38:	d1f5      	bne	e26 <vSerialPutString+0xe>
     e3a:	bc70      	pop	{r4, r5, r6}
     e3c:	bc01      	pop	{r0}
     e3e:	4700      	bx	r0
     e40:	2710      	mov	r7, #16
	...

00000e44 <xSerialPortInitMinimal>:
     e44:	b570      	push	{r4, r5, r6, lr}
     e46:	1c06      	mov	r6, r0		(add r6, r0, #0)
     e48:	4c20      	ldr	r4, [pc, #128]	(ecc <prog+0xe88>)
     e4a:	4d21      	ldr	r5, [pc, #132]	(ed0 <prog+0xe8c>)
     e4c:	4b21      	ldr	r3, [pc, #132]	(ed4 <prog+0xe90>)
     e4e:	1c08      	mov	r0, r1		(add r0, r1, #0)
     e50:	1c21      	mov	r1, r4		(add r1, r4, #0)
     e52:	1c2a      	mov	r2, r5		(add r2, r5, #0)
     e54:	fb82f013 	bl	1455c <__vSerialISRCreateQueues_from_thumb>
     e58:	6823      	ldr	r3, [r4, #0]
     e5a:	2b00      	cmp	r3, #0
     e5c:	d032      	beq	ec4 <xSerialPortInitMinimal+0x80>
     e5e:	682b      	ldr	r3, [r5, #0]
     e60:	2b00      	cmp	r3, #0
     e62:	d02f      	beq	ec4 <xSerialPortInitMinimal+0x80>
     e64:	2e00      	cmp	r6, #0
     e66:	d02d      	beq	ec4 <xSerialPortInitMinimal+0x80>
     e68:	fb6cf013 	bl	14544 <__vPortEnterCritical_from_thumb>
     e6c:	0131      	lsl	r1, r6, #4
     e6e:	481a      	ldr	r0, [pc, #104]	(ed8 <prog+0xe94>)
     e70:	fb26f00e 	bl	f4c0 <__aeabi_uidiv>
     e74:	4919      	ldr	r1, [pc, #100]	(edc <prog+0xe98>)
     e76:	680b      	ldr	r3, [r1, #0]
     e78:	2280      	mov	r2, #128
     e7a:	4313      	orr	r3, r2
     e7c:	600b      	str	r3, [r1, #0]
     e7e:	0603      	lsl	r3, r0, #24
     e80:	0e1b      	lsr	r3, r3, #24
     e82:	4a17      	ldr	r2, [pc, #92]	(ee0 <prog+0xe9c>)
     e84:	6013      	str	r3, [r2, #0]
     e86:	0400      	lsl	r0, r0, #16
     e88:	0e00      	lsr	r0, r0, #24
     e8a:	4c16      	ldr	r4, [pc, #88]	(ee4 <prog+0xea0>)
     e8c:	6020      	str	r0, [r4, #0]
     e8e:	2207      	mov	r2, #7
     e90:	4b15      	ldr	r3, [pc, #84]	(ee8 <prog+0xea4>)
     e92:	601a      	str	r2, [r3, #0]
     e94:	2003      	mov	r0, #3
     e96:	6008      	str	r0, [r1, #0]
     e98:	4a14      	ldr	r2, [pc, #80]	(eec <prog+0xea8>)
     e9a:	6813      	ldr	r3, [r2, #0]
     e9c:	2140      	mov	r1, #64
     e9e:	438b      	bic	r3, r1
     ea0:	6013      	str	r3, [r2, #0]
     ea2:	3204      	add	r2, #4
     ea4:	6813      	ldr	r3, [r2, #0]
     ea6:	430b      	orr	r3, r1
     ea8:	6013      	str	r3, [r2, #0]
     eaa:	4a11      	ldr	r2, [pc, #68]	(ef0 <prog+0xeac>)
     eac:	4b11      	ldr	r3, [pc, #68]	(ef4 <prog+0xeb0>)
     eae:	601a      	str	r2, [r3, #0]
     eb0:	2226      	mov	r2, #38
     eb2:	4b11      	ldr	r3, [pc, #68]	(ef8 <prog+0xeb4>)
     eb4:	601a      	str	r2, [r3, #0]
     eb6:	6823      	ldr	r3, [r4, #0]
     eb8:	4303      	orr	r3, r0
     eba:	6023      	str	r3, [r4, #0]
     ebc:	fb46f013 	bl	1454c <__vPortExitCritical_from_thumb>
     ec0:	2001      	mov	r0, #1
     ec2:	e000      	b	ec6 <xSerialPortInitMinimal+0x82>
     ec4:	2000      	mov	r0, #0
     ec6:	bc70      	pop	{r4, r5, r6}
     ec8:	bc02      	pop	{r1}
     eca:	4708      	bx	r1
     ecc:	0aac      	lsr	r4, r5, #10
     ece:	4000      	and	r0, r0
     ed0:	0ab0      	lsr	r0, r6, #10
     ed2:	4000      	and	r0, r0
     ed4:	0ab4      	lsr	r4, r6, #10
     ed6:	4000      	and	r0, r0
     ed8:	8700      	strh	r0, [r0, #56]
     eda:	0393      	lsl	r3, r2, #14
     edc:	c00c      	stmia	r0!,{r2, r3}
     ede:	e000      	b	ee2 <prog+0xe9e>
     ee0:	c000      	stmia	r0!,{}
     ee2:	e000      	b	ee6 <prog+0xea2>
     ee4:	c004      	stmia	r0!,{r2}
     ee6:	e000      	b	eea <prog+0xea6>
     ee8:	c008      	stmia	r0!,{r3}
     eea:	e000      	b	eee <prog+0xeaa>
     eec:	fffff00c 	bl	deee <_strtod_r+0x96>
     ef0:	0530      	lsl	r0, r6, #20
     ef2:	0000      	lsl	r0, r0, #0
     ef4:	fffff118 	bl	119ef6 <__data_beg_src__+0x105982>
     ef8:	fffff218 	bl	219efa <__data_beg_src__+0x205986>

00000efc <printf2>:
     efc:	b40f      	push	{r0, r1, r2, r3}
     efe:	b510      	push	{r4, lr}
     f00:	b081      	sub	sp, #4
     f02:	aa03      	add	r2, sp, #12
     f04:	ca02      	ldmia	r2!,{r1}
     f06:	9200      	str	r2, [sp, #0]
     f08:	4c06      	ldr	r4, [pc, #24]	(f24 <prog+0xee0>)
     f0a:	1c20      	mov	r0, r4		(add r0, r4, #0)
     f0c:	fc90f009 	bl	a830 <vsprintf>
     f10:	2001      	mov	r0, #1
     f12:	1c21      	mov	r1, r4		(add r1, r4, #0)
     f14:	ff80f7ff 	bl	e18 <vSerialPutString>
     f18:	2000      	mov	r0, #0
     f1a:	b001      	add	sp, #4
     f1c:	bc10      	pop	{r4}
     f1e:	bc08      	pop	{r3}
     f20:	b004      	add	sp, #16
     f22:	4718      	bx	r3
     f24:	64bc      	str	r4, [r7, #72]
     f26:	4000      	and	r0, r0

00000f28 <uxQueueMessagesWaitingFromISR>:
     f28:	6b80      	ldr	r0, [r0, #56]
     f2a:	4770      	bx	lr

00000f2c <xQueueIsQueueEmptyFromISR>:
     f2c:	6b83      	ldr	r3, [r0, #56]
     f2e:	2000      	mov	r0, #0
     f30:	2b00      	cmp	r3, #0
     f32:	d100      	bne	f36 <xQueueIsQueueEmptyFromISR+0xa>
     f34:	2001      	mov	r0, #1
     f36:	4770      	bx	lr

00000f38 <xQueueIsQueueFullFromISR>:
     f38:	6b82      	ldr	r2, [r0, #56]
     f3a:	2100      	mov	r1, #0
     f3c:	6bc3      	ldr	r3, [r0, #60]
     f3e:	429a      	cmp	r2, r3
     f40:	d100      	bne	f44 <xQueueIsQueueFullFromISR+0xc>
     f42:	2101      	mov	r1, #1
     f44:	1c08      	mov	r0, r1		(add r0, r1, #0)
     f46:	4770      	bx	lr

00000f48 <vQueueDelete>:
     f48:	b510      	push	{r4, lr}
     f4a:	1c04      	mov	r4, r0		(add r4, r0, #0)
     f4c:	6800      	ldr	r0, [r0, #0]
     f4e:	fee1f000 	bl	1d14 <vPortFree>
     f52:	1c20      	mov	r0, r4		(add r0, r4, #0)
     f54:	fedef000 	bl	1d14 <vPortFree>
     f58:	bc10      	pop	{r4}
     f5a:	bc01      	pop	{r0}
     f5c:	4700      	bx	r0
	...

00000f60 <uxQueueMessagesWaiting>:
     f60:	b510      	push	{r4, lr}
     f62:	1c04      	mov	r4, r0		(add r4, r0, #0)
     f64:	faeef013 	bl	14544 <__vPortEnterCritical_from_thumb>
     f68:	6ba4      	ldr	r4, [r4, #56]
     f6a:	faeff013 	bl	1454c <__vPortExitCritical_from_thumb>
     f6e:	1c20      	mov	r0, r4		(add r0, r4, #0)
     f70:	bc10      	pop	{r4}
     f72:	bc02      	pop	{r1}
     f74:	4708      	bx	r1
	...

00000f78 <prvCopyDataFromQueue>:
     f78:	b510      	push	{r4, lr}
     f7a:	1c0c      	mov	r4, r1		(add r4, r1, #0)
     f7c:	6801      	ldr	r1, [r0, #0]
     f7e:	2900      	cmp	r1, #0
     f80:	d00c      	beq	f9c <prvCopyDataFromQueue+0x24>
     f82:	68c3      	ldr	r3, [r0, #12]
     f84:	6c02      	ldr	r2, [r0, #64]
     f86:	189b      	add	r3, r3, r2
     f88:	60c3      	str	r3, [r0, #12]
     f8a:	6842      	ldr	r2, [r0, #4]
     f8c:	4293      	cmp	r3, r2
     f8e:	d300      	bcc	f92 <prvCopyDataFromQueue+0x1a>
     f90:	60c1      	str	r1, [r0, #12]
     f92:	68c1      	ldr	r1, [r0, #12]
     f94:	6c02      	ldr	r2, [r0, #64]
     f96:	1c20      	mov	r0, r4		(add r0, r4, #0)
     f98:	fd06f006 	bl	79a8 <memcpy>
     f9c:	bc10      	pop	{r4}
     f9e:	bc01      	pop	{r0}
     fa0:	4700      	bx	r0
	...

00000fa4 <xQueueReceiveFromISR>:
     fa4:	b530      	push	{r4, r5, lr}
     fa6:	1c04      	mov	r4, r0		(add r4, r0, #0)
     fa8:	1c15      	mov	r5, r2		(add r5, r2, #0)
     faa:	6b83      	ldr	r3, [r0, #56]
     fac:	2b00      	cmp	r3, #0
     fae:	d101      	bne	fb4 <xQueueReceiveFromISR+0x10>
     fb0:	2000      	mov	r0, #0
     fb2:	e019      	b	fe8 <xQueueReceiveFromISR+0x44>
     fb4:	ffe0f7ff 	bl	f78 <prvCopyDataFromQueue>
     fb8:	6ba3      	ldr	r3, [r4, #56]
     fba:	3b01      	sub	r3, #1
     fbc:	63a3      	str	r3, [r4, #56]
     fbe:	6c63      	ldr	r3, [r4, #68]
     fc0:	1c5a      	add	r2, r3, #1
     fc2:	d10c      	bne	fde <xQueueReceiveFromISR+0x3a>
     fc4:	6923      	ldr	r3, [r4, #16]
     fc6:	2b00      	cmp	r3, #0
     fc8:	d00d      	beq	fe6 <xQueueReceiveFromISR+0x42>
     fca:	1c20      	mov	r0, r4		(add r0, r4, #0)
     fcc:	3010      	add	r0, #16
     fce:	fadbf000 	bl	1588 <xTaskRemoveFromEventList>
     fd2:	2800      	cmp	r0, #0
     fd4:	d007      	beq	fe6 <xQueueReceiveFromISR+0x42>
     fd6:	2301      	mov	r3, #1
     fd8:	602b      	str	r3, [r5, #0]
     fda:	2001      	mov	r0, #1
     fdc:	e004      	b	fe8 <xQueueReceiveFromISR+0x44>
     fde:	3301      	add	r3, #1
     fe0:	6463      	str	r3, [r4, #68]
     fe2:	2001      	mov	r0, #1
     fe4:	e000      	b	fe8 <xQueueReceiveFromISR+0x44>
     fe6:	2001      	mov	r0, #1
     fe8:	bc30      	pop	{r4, r5}
     fea:	bc02      	pop	{r1}
     fec:	4708      	bx	r1
	...

00000ff0 <prvUnlockQueue>:
     ff0:	b510      	push	{r4, lr}
     ff2:	1c04      	mov	r4, r0		(add r4, r0, #0)
     ff4:	faa6f013 	bl	14544 <__vPortEnterCritical_from_thumb>
     ff8:	6ca3      	ldr	r3, [r4, #72]
     ffa:	2b00      	cmp	r3, #0
     ffc:	dd13      	ble	1026 <prvUnlockQueue+0x36>
     ffe:	6a63      	ldr	r3, [r4, #36]
    1000:	2b00      	cmp	r3, #0
    1002:	d103      	bne	100c <prvUnlockQueue+0x1c>
    1004:	e00f      	b	1026 <prvUnlockQueue+0x36>
    1006:	6a63      	ldr	r3, [r4, #36]
    1008:	2b00      	cmp	r3, #0
    100a:	d00c      	beq	1026 <prvUnlockQueue+0x36>
    100c:	1c20      	mov	r0, r4		(add r0, r4, #0)
    100e:	3024      	add	r0, #36
    1010:	fabaf000 	bl	1588 <xTaskRemoveFromEventList>
    1014:	2800      	cmp	r0, #0
    1016:	d001      	beq	101c <prvUnlockQueue+0x2c>
    1018:	fa36f000 	bl	1488 <vTaskMissedYield>
    101c:	6ca3      	ldr	r3, [r4, #72]
    101e:	3b01      	sub	r3, #1
    1020:	64a3      	str	r3, [r4, #72]
    1022:	2b00      	cmp	r3, #0
    1024:	dcef      	bgt	1006 <prvUnlockQueue+0x16>
    1026:	2301      	mov	r3, #1
    1028:	425b      	neg	r3, r3
    102a:	64a3      	str	r3, [r4, #72]
    102c:	fa8ef013 	bl	1454c <__vPortExitCritical_from_thumb>
    1030:	fa88f013 	bl	14544 <__vPortEnterCritical_from_thumb>
    1034:	6c63      	ldr	r3, [r4, #68]
    1036:	2b00      	cmp	r3, #0
    1038:	dd13      	ble	1062 <prvUnlockQueue+0x72>
    103a:	6923      	ldr	r3, [r4, #16]
    103c:	2b00      	cmp	r3, #0
    103e:	d103      	bne	1048 <prvUnlockQueue+0x58>
    1040:	e00f      	b	1062 <prvUnlockQueue+0x72>
    1042:	6923      	ldr	r3, [r4, #16]
    1044:	2b00      	cmp	r3, #0
    1046:	d00c      	beq	1062 <prvUnlockQueue+0x72>
    1048:	1c20      	mov	r0, r4		(add r0, r4, #0)
    104a:	3010      	add	r0, #16
    104c:	fa9cf000 	bl	1588 <xTaskRemoveFromEventList>
    1050:	2800      	cmp	r0, #0
    1052:	d001      	beq	1058 <prvUnlockQueue+0x68>
    1054:	fa18f000 	bl	1488 <vTaskMissedYield>
    1058:	6c63      	ldr	r3, [r4, #68]
    105a:	3b01      	sub	r3, #1
    105c:	6463      	str	r3, [r4, #68]
    105e:	2b00      	cmp	r3, #0
    1060:	dcef      	bgt	1042 <prvUnlockQueue+0x52>
    1062:	2301      	mov	r3, #1
    1064:	425b      	neg	r3, r3
    1066:	6463      	str	r3, [r4, #68]
    1068:	fa70f013 	bl	1454c <__vPortExitCritical_from_thumb>
    106c:	bc10      	pop	{r4}
    106e:	bc01      	pop	{r0}
    1070:	4700      	bx	r0
	...

00001074 <xQueueGenericReceive>:
    1074:	b5f0      	push	{r4, r5, r6, r7, lr}
    1076:	b083      	sub	sp, #12
    1078:	1c05      	mov	r5, r0		(add r5, r0, #0)
    107a:	1c0e      	mov	r6, r1		(add r6, r1, #0)
    107c:	9200      	str	r2, [sp, #0]
    107e:	1c1f      	mov	r7, r3		(add r7, r3, #0)
    1080:	2401      	mov	r4, #1
    1082:	9b00      	ldr	r3, [sp, #0]
    1084:	2b00      	cmp	r3, #0
    1086:	d044      	beq	1112 <xQueueGenericReceive+0x9e>
    1088:	fbeef000 	bl	1868 <vTaskSuspendAll>
    108c:	fa5af013 	bl	14544 <__vPortEnterCritical_from_thumb>
    1090:	6c6b      	ldr	r3, [r5, #68]
    1092:	3301      	add	r3, #1
    1094:	d101      	bne	109a <xQueueGenericReceive+0x26>
    1096:	2300      	mov	r3, #0
    1098:	646b      	str	r3, [r5, #68]
    109a:	6cab      	ldr	r3, [r5, #72]
    109c:	3301      	add	r3, #1
    109e:	d101      	bne	10a4 <xQueueGenericReceive+0x30>
    10a0:	2300      	mov	r3, #0
    10a2:	64ab      	str	r3, [r5, #72]
    10a4:	fa52f013 	bl	1454c <__vPortExitCritical_from_thumb>
    10a8:	2c01      	cmp	r4, #1
    10aa:	d102      	bne	10b2 <xQueueGenericReceive+0x3e>
    10ac:	a801      	add	r0, sp, #4
    10ae:	f9dff000 	bl	1470 <vTaskSetTimeOutState>
    10b2:	fa47f013 	bl	14544 <__vPortEnterCritical_from_thumb>
    10b6:	6bac      	ldr	r4, [r5, #56]
    10b8:	fa48f013 	bl	1454c <__vPortExitCritical_from_thumb>
    10bc:	2c00      	cmp	r4, #0
    10be:	d123      	bne	1108 <xQueueGenericReceive+0x94>
    10c0:	a801      	add	r0, sp, #4
    10c2:	4669      	mov	r1, sp
    10c4:	fb1af000 	bl	16fc <xTaskCheckForTimeOut>
    10c8:	2800      	cmp	r0, #0
    10ca:	d117      	bne	10fc <xQueueGenericReceive+0x88>
    10cc:	682b      	ldr	r3, [r5, #0]
    10ce:	2b00      	cmp	r3, #0
    10d0:	d106      	bne	10e0 <xQueueGenericReceive+0x6c>
    10d2:	fa37f013 	bl	14544 <__vPortEnterCritical_from_thumb>
    10d6:	6868      	ldr	r0, [r5, #4]
    10d8:	fa1ef000 	bl	1518 <vTaskPriorityInherit>
    10dc:	fa36f013 	bl	1454c <__vPortExitCritical_from_thumb>
    10e0:	1c28      	mov	r0, r5		(add r0, r5, #0)
    10e2:	3024      	add	r0, #36
    10e4:	9900      	ldr	r1, [sp, #0]
    10e6:	fbcdf000 	bl	1884 <vTaskPlaceOnEventList>
    10ea:	1c28      	mov	r0, r5		(add r0, r5, #0)
    10ec:	ff80f7ff 	bl	ff0 <prvUnlockQueue>
    10f0:	fb4af000 	bl	1788 <xTaskResumeAll>
    10f4:	2800      	cmp	r0, #0
    10f6:	d10c      	bne	1112 <xQueueGenericReceive+0x9e>
    10f8:	df00      	swi	0
    10fa:	e00a      	b	1112 <xQueueGenericReceive+0x9e>
    10fc:	1c28      	mov	r0, r5		(add r0, r5, #0)
    10fe:	ff77f7ff 	bl	ff0 <prvUnlockQueue>
    1102:	fb41f000 	bl	1788 <xTaskResumeAll>
    1106:	e004      	b	1112 <xQueueGenericReceive+0x9e>
    1108:	1c28      	mov	r0, r5		(add r0, r5, #0)
    110a:	ff71f7ff 	bl	ff0 <prvUnlockQueue>
    110e:	fb3bf000 	bl	1788 <xTaskResumeAll>
    1112:	fa17f013 	bl	14544 <__vPortEnterCritical_from_thumb>
    1116:	6bab      	ldr	r3, [r5, #56]
    1118:	2b00      	cmp	r3, #0
    111a:	d034      	beq	1186 <xQueueGenericReceive+0x112>
    111c:	68ec      	ldr	r4, [r5, #12]
    111e:	1c28      	mov	r0, r5		(add r0, r5, #0)
    1120:	1c31      	mov	r1, r6		(add r1, r6, #0)
    1122:	ff29f7ff 	bl	f78 <prvCopyDataFromQueue>
    1126:	2f00      	cmp	r7, #0
    1128:	d113      	bne	1152 <xQueueGenericReceive+0xde>
    112a:	6bab      	ldr	r3, [r5, #56]
    112c:	3b01      	sub	r3, #1
    112e:	63ab      	str	r3, [r5, #56]
    1130:	682b      	ldr	r3, [r5, #0]
    1132:	2b00      	cmp	r3, #0
    1134:	d102      	bne	113c <xQueueGenericReceive+0xc8>
    1136:	fad3f000 	bl	16e0 <xTaskGetCurrentTaskHandle>
    113a:	6068      	str	r0, [r5, #4]
    113c:	692b      	ldr	r3, [r5, #16]
    113e:	2b00      	cmp	r3, #0
    1140:	d012      	beq	1168 <xQueueGenericReceive+0xf4>
    1142:	1c28      	mov	r0, r5		(add r0, r5, #0)
    1144:	3010      	add	r0, #16
    1146:	fa1ff000 	bl	1588 <xTaskRemoveFromEventList>
    114a:	2801      	cmp	r0, #1
    114c:	d10c      	bne	1168 <xQueueGenericReceive+0xf4>
    114e:	df00      	swi	0
    1150:	e00a      	b	1168 <xQueueGenericReceive+0xf4>
    1152:	60ec      	str	r4, [r5, #12]
    1154:	6a6b      	ldr	r3, [r5, #36]
    1156:	2b00      	cmp	r3, #0
    1158:	d006      	beq	1168 <xQueueGenericReceive+0xf4>
    115a:	1c28      	mov	r0, r5		(add r0, r5, #0)
    115c:	3024      	add	r0, #36
    115e:	fa13f000 	bl	1588 <xTaskRemoveFromEventList>
    1162:	2800      	cmp	r0, #0
    1164:	d000      	beq	1168 <xQueueGenericReceive+0xf4>
    1166:	df00      	swi	0
    1168:	f9f0f013 	bl	1454c <__vPortExitCritical_from_thumb>
    116c:	2001      	mov	r0, #1
    116e:	e010      	b	1192 <xQueueGenericReceive+0x11e>
    1170:	a801      	add	r0, sp, #4
    1172:	4669      	mov	r1, sp
    1174:	fac2f000 	bl	16fc <xTaskCheckForTimeOut>
    1178:	2401      	mov	r4, #1
    117a:	4264      	neg	r4, r4
    117c:	2800      	cmp	r0, #0
    117e:	d100      	bne	1182 <xQueueGenericReceive+0x10e>
    1180:	e77f      	b	1082 <xQueueGenericReceive+0xe>
    1182:	2000      	mov	r0, #0
    1184:	e005      	b	1192 <xQueueGenericReceive+0x11e>
    1186:	f9e1f013 	bl	1454c <__vPortExitCritical_from_thumb>
    118a:	9b00      	ldr	r3, [sp, #0]
    118c:	2b00      	cmp	r3, #0
    118e:	d1ef      	bne	1170 <xQueueGenericReceive+0xfc>
    1190:	e7f7      	b	1182 <xQueueGenericReceive+0x10e>
    1192:	b003      	add	sp, #12
    1194:	bcf0      	pop	{r4, r5, r6, r7}
    1196:	bc02      	pop	{r1}
    1198:	4708      	bx	r1
	...

0000119c <prvCopyDataToQueue>:
    119c:	b530      	push	{r4, r5, lr}
    119e:	1c04      	mov	r4, r0		(add r4, r0, #0)
    11a0:	6c05      	ldr	r5, [r0, #64]
    11a2:	2d00      	cmp	r5, #0
    11a4:	d107      	bne	11b6 <prvCopyDataToQueue+0x1a>
    11a6:	6803      	ldr	r3, [r0, #0]
    11a8:	2b00      	cmp	r3, #0
    11aa:	d122      	bne	11f2 <prvCopyDataToQueue+0x56>
    11ac:	6840      	ldr	r0, [r0, #4]
    11ae:	f98df000 	bl	14cc <vTaskPriorityDisinherit>
    11b2:	6065      	str	r5, [r4, #4]
    11b4:	e01d      	b	11f2 <prvCopyDataToQueue+0x56>
    11b6:	2a00      	cmp	r2, #0
    11b8:	d10d      	bne	11d6 <prvCopyDataToQueue+0x3a>
    11ba:	6880      	ldr	r0, [r0, #8]
    11bc:	1c2a      	mov	r2, r5		(add r2, r5, #0)
    11be:	fbf3f006 	bl	79a8 <memcpy>
    11c2:	68a3      	ldr	r3, [r4, #8]
    11c4:	6c22      	ldr	r2, [r4, #64]
    11c6:	189b      	add	r3, r3, r2
    11c8:	60a3      	str	r3, [r4, #8]
    11ca:	6862      	ldr	r2, [r4, #4]
    11cc:	4293      	cmp	r3, r2
    11ce:	d310      	bcc	11f2 <prvCopyDataToQueue+0x56>
    11d0:	6823      	ldr	r3, [r4, #0]
    11d2:	60a3      	str	r3, [r4, #8]
    11d4:	e00d      	b	11f2 <prvCopyDataToQueue+0x56>
    11d6:	68c0      	ldr	r0, [r0, #12]
    11d8:	1c2a      	mov	r2, r5		(add r2, r5, #0)
    11da:	fbe5f006 	bl	79a8 <memcpy>
    11de:	68e3      	ldr	r3, [r4, #12]
    11e0:	6c21      	ldr	r1, [r4, #64]
    11e2:	1a5b      	sub	r3, r3, r1
    11e4:	60e3      	str	r3, [r4, #12]
    11e6:	6822      	ldr	r2, [r4, #0]
    11e8:	4293      	cmp	r3, r2
    11ea:	d202      	bcs	11f2 <prvCopyDataToQueue+0x56>
    11ec:	6863      	ldr	r3, [r4, #4]
    11ee:	1a5b      	sub	r3, r3, r1
    11f0:	60e3      	str	r3, [r4, #12]
    11f2:	6ba3      	ldr	r3, [r4, #56]
    11f4:	3301      	add	r3, #1
    11f6:	63a3      	str	r3, [r4, #56]
    11f8:	bc30      	pop	{r4, r5}
    11fa:	bc01      	pop	{r0}
    11fc:	4700      	bx	r0
	...

00001200 <xQueueGenericSendFromISR>:
    1200:	b570      	push	{r4, r5, r6, lr}
    1202:	1c04      	mov	r4, r0		(add r4, r0, #0)
    1204:	1c16      	mov	r6, r2		(add r6, r2, #0)
    1206:	1c1d      	mov	r5, r3		(add r5, r3, #0)
    1208:	6b82      	ldr	r2, [r0, #56]
    120a:	6bc3      	ldr	r3, [r0, #60]
    120c:	429a      	cmp	r2, r3
    120e:	d301      	bcc	1214 <xQueueGenericSendFromISR+0x14>
    1210:	2000      	mov	r0, #0
    1212:	e017      	b	1244 <xQueueGenericSendFromISR+0x44>
    1214:	1c2a      	mov	r2, r5		(add r2, r5, #0)
    1216:	ffc1f7ff 	bl	119c <prvCopyDataToQueue>
    121a:	6ca3      	ldr	r3, [r4, #72]
    121c:	1c5a      	add	r2, r3, #1
    121e:	d10c      	bne	123a <xQueueGenericSendFromISR+0x3a>
    1220:	6a63      	ldr	r3, [r4, #36]
    1222:	2b00      	cmp	r3, #0
    1224:	d00d      	beq	1242 <xQueueGenericSendFromISR+0x42>
    1226:	1c20      	mov	r0, r4		(add r0, r4, #0)
    1228:	3024      	add	r0, #36
    122a:	f9adf000 	bl	1588 <xTaskRemoveFromEventList>
    122e:	2800      	cmp	r0, #0
    1230:	d007      	beq	1242 <xQueueGenericSendFromISR+0x42>
    1232:	2301      	mov	r3, #1
    1234:	6033      	str	r3, [r6, #0]
    1236:	2001      	mov	r0, #1
    1238:	e004      	b	1244 <xQueueGenericSendFromISR+0x44>
    123a:	3301      	add	r3, #1
    123c:	64a3      	str	r3, [r4, #72]
    123e:	2001      	mov	r0, #1
    1240:	e000      	b	1244 <xQueueGenericSendFromISR+0x44>
    1242:	2001      	mov	r0, #1
    1244:	bc70      	pop	{r4, r5, r6}
    1246:	bc02      	pop	{r1}
    1248:	4708      	bx	r1
	...

0000124c <xQueueGenericSend>:
    124c:	b5f0      	push	{r4, r5, r6, r7, lr}
    124e:	4647      	mov	r7, r8
    1250:	b480      	push	{r7}
    1252:	b083      	sub	sp, #12
    1254:	1c06      	mov	r6, r0		(add r6, r0, #0)
    1256:	4688      	mov	r8, r1
    1258:	9200      	str	r2, [sp, #0]
    125a:	1c1f      	mov	r7, r3		(add r7, r3, #0)
    125c:	2401      	mov	r4, #1
    125e:	9b00      	ldr	r3, [sp, #0]
    1260:	2b00      	cmp	r3, #0
    1262:	d03b      	beq	12dc <xQueueGenericSend+0x90>
    1264:	fb00f000 	bl	1868 <vTaskSuspendAll>
    1268:	f96cf013 	bl	14544 <__vPortEnterCritical_from_thumb>
    126c:	6c73      	ldr	r3, [r6, #68]
    126e:	3301      	add	r3, #1
    1270:	d101      	bne	1276 <xQueueGenericSend+0x2a>
    1272:	2300      	mov	r3, #0
    1274:	6473      	str	r3, [r6, #68]
    1276:	6cb3      	ldr	r3, [r6, #72]
    1278:	3301      	add	r3, #1
    127a:	d101      	bne	1280 <xQueueGenericSend+0x34>
    127c:	2300      	mov	r3, #0
    127e:	64b3      	str	r3, [r6, #72]
    1280:	f964f013 	bl	1454c <__vPortExitCritical_from_thumb>
    1284:	2c01      	cmp	r4, #1
    1286:	d102      	bne	128e <xQueueGenericSend+0x42>
    1288:	a801      	add	r0, sp, #4
    128a:	f8f1f000 	bl	1470 <vTaskSetTimeOutState>
    128e:	f959f013 	bl	14544 <__vPortEnterCritical_from_thumb>
    1292:	6bb5      	ldr	r5, [r6, #56]
    1294:	6bf4      	ldr	r4, [r6, #60]
    1296:	f959f013 	bl	1454c <__vPortExitCritical_from_thumb>
    129a:	42a5      	cmp	r5, r4
    129c:	d119      	bne	12d2 <xQueueGenericSend+0x86>
    129e:	a801      	add	r0, sp, #4
    12a0:	4669      	mov	r1, sp
    12a2:	fa2bf000 	bl	16fc <xTaskCheckForTimeOut>
    12a6:	2800      	cmp	r0, #0
    12a8:	d10d      	bne	12c6 <xQueueGenericSend+0x7a>
    12aa:	1c30      	mov	r0, r6		(add r0, r6, #0)
    12ac:	3010      	add	r0, #16
    12ae:	9900      	ldr	r1, [sp, #0]
    12b0:	fae8f000 	bl	1884 <vTaskPlaceOnEventList>
    12b4:	1c30      	mov	r0, r6		(add r0, r6, #0)
    12b6:	fe9bf7ff 	bl	ff0 <prvUnlockQueue>
    12ba:	fa65f000 	bl	1788 <xTaskResumeAll>
    12be:	2800      	cmp	r0, #0
    12c0:	d10c      	bne	12dc <xQueueGenericSend+0x90>
    12c2:	df00      	swi	0
    12c4:	e00a      	b	12dc <xQueueGenericSend+0x90>
    12c6:	1c30      	mov	r0, r6		(add r0, r6, #0)
    12c8:	fe92f7ff 	bl	ff0 <prvUnlockQueue>
    12cc:	fa5cf000 	bl	1788 <xTaskResumeAll>
    12d0:	e004      	b	12dc <xQueueGenericSend+0x90>
    12d2:	1c30      	mov	r0, r6		(add r0, r6, #0)
    12d4:	fe8cf7ff 	bl	ff0 <prvUnlockQueue>
    12d8:	fa56f000 	bl	1788 <xTaskResumeAll>
    12dc:	f932f013 	bl	14544 <__vPortEnterCritical_from_thumb>
    12e0:	6bb2      	ldr	r2, [r6, #56]
    12e2:	6bf3      	ldr	r3, [r6, #60]
    12e4:	429a      	cmp	r2, r3
    12e6:	d21c      	bcs	1322 <xQueueGenericSend+0xd6>
    12e8:	1c30      	mov	r0, r6		(add r0, r6, #0)
    12ea:	4641      	mov	r1, r8
    12ec:	1c3a      	mov	r2, r7		(add r2, r7, #0)
    12ee:	ff55f7ff 	bl	119c <prvCopyDataToQueue>
    12f2:	6a73      	ldr	r3, [r6, #36]
    12f4:	2b00      	cmp	r3, #0
    12f6:	d006      	beq	1306 <xQueueGenericSend+0xba>
    12f8:	1c30      	mov	r0, r6		(add r0, r6, #0)
    12fa:	3024      	add	r0, #36
    12fc:	f944f000 	bl	1588 <xTaskRemoveFromEventList>
    1300:	2801      	cmp	r0, #1
    1302:	d100      	bne	1306 <xQueueGenericSend+0xba>
    1304:	df00      	swi	0
    1306:	f921f013 	bl	1454c <__vPortExitCritical_from_thumb>
    130a:	2001      	mov	r0, #1
    130c:	e00f      	b	132e <xQueueGenericSend+0xe2>
    130e:	a801      	add	r0, sp, #4
    1310:	4669      	mov	r1, sp
    1312:	f9f3f000 	bl	16fc <xTaskCheckForTimeOut>
    1316:	2401      	mov	r4, #1
    1318:	4264      	neg	r4, r4
    131a:	2800      	cmp	r0, #0
    131c:	d09f      	beq	125e <xQueueGenericSend+0x12>
    131e:	2000      	mov	r0, #0
    1320:	e005      	b	132e <xQueueGenericSend+0xe2>
    1322:	f913f013 	bl	1454c <__vPortExitCritical_from_thumb>
    1326:	9b00      	ldr	r3, [sp, #0]
    1328:	2b00      	cmp	r3, #0
    132a:	d1f0      	bne	130e <xQueueGenericSend+0xc2>
    132c:	e7f7      	b	131e <xQueueGenericSend+0xd2>
    132e:	b003      	add	sp, #12
    1330:	bc04      	pop	{r2}
    1332:	4690      	mov	r8, r2
    1334:	bcf0      	pop	{r4, r5, r6, r7}
    1336:	bc02      	pop	{r1}
    1338:	4708      	bx	r1
	...

0000133c <xQueueCreateMutex>:
    133c:	b510      	push	{r4, lr}
    133e:	204c      	mov	r0, #76
    1340:	fd00f000 	bl	1d44 <pvPortMalloc>
    1344:	1c04      	mov	r4, r0		(add r4, r0, #0)
    1346:	2800      	cmp	r0, #0
    1348:	d018      	beq	137c <xQueueCreateMutex+0x40>
    134a:	2200      	mov	r2, #0
    134c:	6042      	str	r2, [r0, #4]
    134e:	6002      	str	r2, [r0, #0]
    1350:	6082      	str	r2, [r0, #8]
    1352:	60c2      	str	r2, [r0, #12]
    1354:	6382      	str	r2, [r0, #56]
    1356:	2301      	mov	r3, #1
    1358:	63c3      	str	r3, [r0, #60]
    135a:	6402      	str	r2, [r0, #64]
    135c:	425b      	neg	r3, r3
    135e:	6443      	str	r3, [r0, #68]
    1360:	6483      	str	r3, [r0, #72]
    1362:	3010      	add	r0, #16
    1364:	fc68f000 	bl	1c38 <vListInitialise>
    1368:	1c20      	mov	r0, r4		(add r0, r4, #0)
    136a:	3024      	add	r0, #36
    136c:	fc64f000 	bl	1c38 <vListInitialise>
    1370:	1c20      	mov	r0, r4		(add r0, r4, #0)
    1372:	2100      	mov	r1, #0
    1374:	2200      	mov	r2, #0
    1376:	2300      	mov	r3, #0
    1378:	ff68f7ff 	bl	124c <xQueueGenericSend>
    137c:	1c20      	mov	r0, r4		(add r0, r4, #0)
    137e:	bc10      	pop	{r4}
    1380:	bc02      	pop	{r1}
    1382:	4708      	bx	r1

00001384 <xQueueCreate>:
    1384:	b5f0      	push	{r4, r5, r6, r7, lr}
    1386:	1c05      	mov	r5, r0		(add r5, r0, #0)
    1388:	1c0e      	mov	r6, r1		(add r6, r1, #0)
    138a:	2800      	cmp	r0, #0
    138c:	d02a      	beq	13e4 <xQueueCreate+0x60>
    138e:	204c      	mov	r0, #76
    1390:	fcd8f000 	bl	1d44 <pvPortMalloc>
    1394:	2800      	cmp	r0, #0
    1396:	d025      	beq	13e4 <xQueueCreate+0x60>
    1398:	1c04      	mov	r4, r0		(add r4, r0, #0)
    139a:	1c37      	mov	r7, r6		(add r7, r6, #0)
    139c:	436f      	mul	r7, r5
    139e:	1c78      	add	r0, r7, #1
    13a0:	fcd0f000 	bl	1d44 <pvPortMalloc>
    13a4:	6020      	str	r0, [r4, #0]
    13a6:	2800      	cmp	r0, #0
    13a8:	d017      	beq	13da <xQueueCreate+0x56>
    13aa:	19c3      	add	r3, r0, r7
    13ac:	6063      	str	r3, [r4, #4]
    13ae:	2300      	mov	r3, #0
    13b0:	63a3      	str	r3, [r4, #56]
    13b2:	60a0      	str	r0, [r4, #8]
    13b4:	1e6b      	sub	r3, r5, #1
    13b6:	4373      	mul	r3, r6
    13b8:	18c3      	add	r3, r0, r3
    13ba:	60e3      	str	r3, [r4, #12]
    13bc:	63e5      	str	r5, [r4, #60]
    13be:	6426      	str	r6, [r4, #64]
    13c0:	2301      	mov	r3, #1
    13c2:	425b      	neg	r3, r3
    13c4:	6463      	str	r3, [r4, #68]
    13c6:	64a3      	str	r3, [r4, #72]
    13c8:	1c20      	mov	r0, r4		(add r0, r4, #0)
    13ca:	3010      	add	r0, #16
    13cc:	fc34f000 	bl	1c38 <vListInitialise>
    13d0:	1c20      	mov	r0, r4		(add r0, r4, #0)
    13d2:	3024      	add	r0, #36
    13d4:	fc30f000 	bl	1c38 <vListInitialise>
    13d8:	e005      	b	13e6 <xQueueCreate+0x62>
    13da:	1c20      	mov	r0, r4		(add r0, r4, #0)
    13dc:	fc9af000 	bl	1d14 <vPortFree>
    13e0:	2400      	mov	r4, #0
    13e2:	e000      	b	13e6 <xQueueCreate+0x62>
    13e4:	2400      	mov	r4, #0
    13e6:	1c20      	mov	r0, r4		(add r0, r4, #0)
    13e8:	bcf0      	pop	{r4, r5, r6, r7}
    13ea:	bc02      	pop	{r1}
    13ec:	4708      	bx	r1
    13ee:	46c0      	nop			(mov r8, r8)

000013f0 <vTaskSwitchContext>:
    13f0:	4b1a      	ldr	r3, [pc, #104]	(145c <prog+0x1418>)
    13f2:	681b      	ldr	r3, [r3, #0]
    13f4:	2b00      	cmp	r3, #0
    13f6:	d10a      	bne	140e <vTaskSwitchContext+0x1e>
    13f8:	4b19      	ldr	r3, [pc, #100]	(1460 <prog+0x141c>)
    13fa:	681a      	ldr	r2, [r3, #0]
    13fc:	0093      	lsl	r3, r2, #2
    13fe:	189b      	add	r3, r3, r2
    1400:	009b      	lsl	r3, r3, #2
    1402:	4a18      	ldr	r2, [pc, #96]	(1464 <prog+0x1420>)
    1404:	189b      	add	r3, r3, r2
    1406:	681b      	ldr	r3, [r3, #0]
    1408:	2b00      	cmp	r3, #0
    140a:	d004      	beq	1416 <vTaskSwitchContext+0x26>
    140c:	e010      	b	1430 <vTaskSwitchContext+0x40>
    140e:	4a16      	ldr	r2, [pc, #88]	(1468 <prog+0x1424>)
    1410:	2301      	mov	r3, #1
    1412:	6013      	str	r3, [r2, #0]
    1414:	e020      	b	1458 <vTaskSwitchContext+0x68>
    1416:	4a12      	ldr	r2, [pc, #72]	(1460 <prog+0x141c>)
    1418:	6813      	ldr	r3, [r2, #0]
    141a:	3b01      	sub	r3, #1
    141c:	6013      	str	r3, [r2, #0]
    141e:	6812      	ldr	r2, [r2, #0]
    1420:	0093      	lsl	r3, r2, #2
    1422:	189b      	add	r3, r3, r2
    1424:	009b      	lsl	r3, r3, #2
    1426:	4a0f      	ldr	r2, [pc, #60]	(1464 <prog+0x1420>)
    1428:	189b      	add	r3, r3, r2
    142a:	681b      	ldr	r3, [r3, #0]
    142c:	2b00      	cmp	r3, #0
    142e:	d0f2      	beq	1416 <vTaskSwitchContext+0x26>
    1430:	4b0b      	ldr	r3, [pc, #44]	(1460 <prog+0x141c>)
    1432:	681a      	ldr	r2, [r3, #0]
    1434:	0093      	lsl	r3, r2, #2
    1436:	189b      	add	r3, r3, r2
    1438:	009b      	lsl	r3, r3, #2
    143a:	4a0a      	ldr	r2, [pc, #40]	(1464 <prog+0x1420>)
    143c:	1899      	add	r1, r3, r2
    143e:	684b      	ldr	r3, [r1, #4]
    1440:	685a      	ldr	r2, [r3, #4]
    1442:	604a      	str	r2, [r1, #4]
    1444:	1c0b      	mov	r3, r1		(add r3, r1, #0)
    1446:	3308      	add	r3, #8
    1448:	429a      	cmp	r2, r3
    144a:	d101      	bne	1450 <vTaskSwitchContext+0x60>
    144c:	6853      	ldr	r3, [r2, #4]
    144e:	604b      	str	r3, [r1, #4]
    1450:	684b      	ldr	r3, [r1, #4]
    1452:	68da      	ldr	r2, [r3, #12]
    1454:	4b05      	ldr	r3, [pc, #20]	(146c <prog+0x1428>)
    1456:	601a      	str	r2, [r3, #0]
    1458:	4770      	bx	lr
    145a:	0000      	lsl	r0, r0, #0
    145c:	0adc      	lsr	r4, r3, #11
    145e:	4000      	and	r0, r0
    1460:	0acc      	lsr	r4, r1, #11
    1462:	4000      	and	r0, r0
    1464:	0af0      	lsr	r0, r6, #11
    1466:	4000      	and	r0, r0
    1468:	0ad0      	lsr	r0, r2, #11
    146a:	4000      	and	r0, r0
    146c:	0ac8      	lsr	r0, r1, #11
    146e:	4000      	and	r0, r0

00001470 <vTaskSetTimeOutState>:
    1470:	4b03      	ldr	r3, [pc, #12]	(1480 <prog+0x143c>)
    1472:	681b      	ldr	r3, [r3, #0]
    1474:	6003      	str	r3, [r0, #0]
    1476:	4b03      	ldr	r3, [pc, #12]	(1484 <prog+0x1440>)
    1478:	681b      	ldr	r3, [r3, #0]
    147a:	6043      	str	r3, [r0, #4]
    147c:	4770      	bx	lr
    147e:	0000      	lsl	r0, r0, #0
    1480:	0ad4      	lsr	r4, r2, #11
    1482:	4000      	and	r0, r0
    1484:	0ad8      	lsr	r0, r3, #11
    1486:	4000      	and	r0, r0

00001488 <vTaskMissedYield>:
    1488:	4a01      	ldr	r2, [pc, #4]	(1490 <prog+0x144c>)
    148a:	2301      	mov	r3, #1
    148c:	6013      	str	r3, [r2, #0]
    148e:	4770      	bx	lr
    1490:	0ad0      	lsr	r0, r2, #11
    1492:	4000      	and	r0, r0

00001494 <usTaskCheckFreeStackSpace>:
    1494:	7803      	ldrb	r3, [r0, #0]
    1496:	2ba5      	cmp	r3, #165
    1498:	d001      	beq	149e <usTaskCheckFreeStackSpace+0xa>
    149a:	2000      	mov	r0, #0
    149c:	e007      	b	14ae <usTaskCheckFreeStackSpace+0x1a>
    149e:	1c02      	mov	r2, r0		(add r2, r0, #0)
    14a0:	3201      	add	r2, #1
    14a2:	7813      	ldrb	r3, [r2, #0]
    14a4:	2ba5      	cmp	r3, #165
    14a6:	d0fb      	beq	14a0 <usTaskCheckFreeStackSpace+0xc>
    14a8:	1a13      	sub	r3, r2, r0
    14aa:	041b      	lsl	r3, r3, #16
    14ac:	0c18      	lsr	r0, r3, #16
    14ae:	0880      	lsr	r0, r0, #2
    14b0:	4770      	bx	lr
	...

000014b4 <uxTaskGetStackHighWaterMark>:
    14b4:	b500      	push	{lr}
    14b6:	2800      	cmp	r0, #0
    14b8:	d101      	bne	14be <uxTaskGetStackHighWaterMark+0xa>
    14ba:	4b03      	ldr	r3, [pc, #12]	(14c8 <prog+0x1484>)
    14bc:	6818      	ldr	r0, [r3, #0]
    14be:	6b00      	ldr	r0, [r0, #48]
    14c0:	ffe8f7ff 	bl	1494 <usTaskCheckFreeStackSpace>
    14c4:	bc02      	pop	{r1}
    14c6:	4708      	bx	r1
    14c8:	0ac8      	lsr	r0, r1, #11
    14ca:	4000      	and	r0, r0

000014cc <vTaskPriorityDisinherit>:
    14cc:	b530      	push	{r4, r5, lr}
    14ce:	1c04      	mov	r4, r0		(add r4, r0, #0)
    14d0:	2800      	cmp	r0, #0
    14d2:	d01a      	beq	150a <vTaskPriorityDisinherit+0x3e>
    14d4:	6ac2      	ldr	r2, [r0, #44]
    14d6:	6c03      	ldr	r3, [r0, #64]
    14d8:	429a      	cmp	r2, r3
    14da:	d016      	beq	150a <vTaskPriorityDisinherit+0x3e>
    14dc:	1d05      	add	r5, r0, #4
    14de:	1c28      	mov	r0, r5		(add r0, r5, #0)
    14e0:	fbe8f000 	bl	1cb4 <vListRemove>
    14e4:	6c23      	ldr	r3, [r4, #64]
    14e6:	62e3      	str	r3, [r4, #44]
    14e8:	2204      	mov	r2, #4
    14ea:	1ad2      	sub	r2, r2, r3
    14ec:	61a2      	str	r2, [r4, #24]
    14ee:	1c1a      	mov	r2, r3		(add r2, r3, #0)
    14f0:	4907      	ldr	r1, [pc, #28]	(1510 <prog+0x14cc>)
    14f2:	680b      	ldr	r3, [r1, #0]
    14f4:	429a      	cmp	r2, r3
    14f6:	d900      	bls	14fa <vTaskPriorityDisinherit+0x2e>
    14f8:	600a      	str	r2, [r1, #0]
    14fa:	0090      	lsl	r0, r2, #2
    14fc:	1880      	add	r0, r0, r2
    14fe:	0080      	lsl	r0, r0, #2
    1500:	4b04      	ldr	r3, [pc, #16]	(1514 <prog+0x14d0>)
    1502:	18c0      	add	r0, r0, r3
    1504:	1c29      	mov	r1, r5		(add r1, r5, #0)
    1506:	fba7f000 	bl	1c58 <vListInsertEnd>
    150a:	bc30      	pop	{r4, r5}
    150c:	bc01      	pop	{r0}
    150e:	4700      	bx	r0
    1510:	0acc      	lsr	r4, r1, #11
    1512:	4000      	and	r0, r0
    1514:	0af0      	lsr	r0, r6, #11
    1516:	4000      	and	r0, r0

00001518 <vTaskPriorityInherit>:
    1518:	b570      	push	{r4, r5, r6, lr}
    151a:	1c04      	mov	r4, r0		(add r4, r0, #0)
    151c:	4d17      	ldr	r5, [pc, #92]	(157c <prog+0x1538>)
    151e:	682b      	ldr	r3, [r5, #0]
    1520:	6ac1      	ldr	r1, [r0, #44]
    1522:	6adb      	ldr	r3, [r3, #44]
    1524:	4299      	cmp	r1, r3
    1526:	d225      	bcs	1574 <vTaskPriorityInherit+0x5c>
    1528:	682b      	ldr	r3, [r5, #0]
    152a:	6ada      	ldr	r2, [r3, #44]
    152c:	2304      	mov	r3, #4
    152e:	1a9b      	sub	r3, r3, r2
    1530:	6183      	str	r3, [r0, #24]
    1532:	008b      	lsl	r3, r1, #2
    1534:	185b      	add	r3, r3, r1
    1536:	009b      	lsl	r3, r3, #2
    1538:	4a11      	ldr	r2, [pc, #68]	(1580 <prog+0x153c>)
    153a:	189b      	add	r3, r3, r2
    153c:	6942      	ldr	r2, [r0, #20]
    153e:	429a      	cmp	r2, r3
    1540:	d114      	bne	156c <vTaskPriorityInherit+0x54>
    1542:	1d06      	add	r6, r0, #4
    1544:	1c30      	mov	r0, r6		(add r0, r6, #0)
    1546:	fbb5f000 	bl	1cb4 <vListRemove>
    154a:	682b      	ldr	r3, [r5, #0]
    154c:	6ada      	ldr	r2, [r3, #44]
    154e:	62e2      	str	r2, [r4, #44]
    1550:	490c      	ldr	r1, [pc, #48]	(1584 <prog+0x1540>)
    1552:	680b      	ldr	r3, [r1, #0]
    1554:	429a      	cmp	r2, r3
    1556:	d900      	bls	155a <vTaskPriorityInherit+0x42>
    1558:	600a      	str	r2, [r1, #0]
    155a:	0090      	lsl	r0, r2, #2
    155c:	1880      	add	r0, r0, r2
    155e:	0080      	lsl	r0, r0, #2
    1560:	4b07      	ldr	r3, [pc, #28]	(1580 <prog+0x153c>)
    1562:	18c0      	add	r0, r0, r3
    1564:	1c31      	mov	r1, r6		(add r1, r6, #0)
    1566:	fb77f000 	bl	1c58 <vListInsertEnd>
    156a:	e003      	b	1574 <vTaskPriorityInherit+0x5c>
    156c:	4b03      	ldr	r3, [pc, #12]	(157c <prog+0x1538>)
    156e:	681b      	ldr	r3, [r3, #0]
    1570:	6adb      	ldr	r3, [r3, #44]
    1572:	62c3      	str	r3, [r0, #44]
    1574:	bc70      	pop	{r4, r5, r6}
    1576:	bc01      	pop	{r0}
    1578:	4700      	bx	r0
    157a:	0000      	lsl	r0, r0, #0
    157c:	0ac8      	lsr	r0, r1, #11
    157e:	4000      	and	r0, r0
    1580:	0af0      	lsr	r0, r6, #11
    1582:	4000      	and	r0, r0
    1584:	0acc      	lsr	r4, r1, #11
    1586:	4000      	and	r0, r0

00001588 <xTaskRemoveFromEventList>:
    1588:	b510      	push	{r4, lr}
    158a:	6803      	ldr	r3, [r0, #0]
    158c:	2b00      	cmp	r3, #0
    158e:	d101      	bne	1594 <xTaskRemoveFromEventList+0xc>
    1590:	2400      	mov	r4, #0
    1592:	e001      	b	1598 <xTaskRemoveFromEventList+0x10>
    1594:	68c3      	ldr	r3, [r0, #12]
    1596:	68dc      	ldr	r4, [r3, #12]
    1598:	1c20      	mov	r0, r4		(add r0, r4, #0)
    159a:	3018      	add	r0, #24
    159c:	fb8af000 	bl	1cb4 <vListRemove>
    15a0:	4b13      	ldr	r3, [pc, #76]	(15f0 <prog+0x15ac>)
    15a2:	681b      	ldr	r3, [r3, #0]
    15a4:	2b00      	cmp	r3, #0
    15a6:	d112      	bne	15ce <xTaskRemoveFromEventList+0x46>
    15a8:	1d20      	add	r0, r4, #4
    15aa:	fb83f000 	bl	1cb4 <vListRemove>
    15ae:	6ae1      	ldr	r1, [r4, #44]
    15b0:	4a10      	ldr	r2, [pc, #64]	(15f4 <prog+0x15b0>)
    15b2:	6813      	ldr	r3, [r2, #0]
    15b4:	4299      	cmp	r1, r3
    15b6:	d900      	bls	15ba <xTaskRemoveFromEventList+0x32>
    15b8:	6011      	str	r1, [r2, #0]
    15ba:	6ae3      	ldr	r3, [r4, #44]
    15bc:	1d21      	add	r1, r4, #4
    15be:	0098      	lsl	r0, r3, #2
    15c0:	18c0      	add	r0, r0, r3
    15c2:	0080      	lsl	r0, r0, #2
    15c4:	4b0c      	ldr	r3, [pc, #48]	(15f8 <prog+0x15b4>)
    15c6:	18c0      	add	r0, r0, r3
    15c8:	fb46f000 	bl	1c58 <vListInsertEnd>
    15cc:	e004      	b	15d8 <xTaskRemoveFromEventList+0x50>
    15ce:	1c21      	mov	r1, r4		(add r1, r4, #0)
    15d0:	3118      	add	r1, #24
    15d2:	480a      	ldr	r0, [pc, #40]	(15fc <prog+0x15b8>)
    15d4:	fb40f000 	bl	1c58 <vListInsertEnd>
    15d8:	6ae2      	ldr	r2, [r4, #44]
    15da:	4b09      	ldr	r3, [pc, #36]	(1600 <prog+0x15bc>)
    15dc:	681b      	ldr	r3, [r3, #0]
    15de:	6adb      	ldr	r3, [r3, #44]
    15e0:	2000      	mov	r0, #0
    15e2:	429a      	cmp	r2, r3
    15e4:	d300      	bcc	15e8 <xTaskRemoveFromEventList+0x60>
    15e6:	2001      	mov	r0, #1
    15e8:	bc10      	pop	{r4}
    15ea:	bc02      	pop	{r1}
    15ec:	4708      	bx	r1
    15ee:	0000      	lsl	r0, r0, #0
    15f0:	0adc      	lsr	r4, r3, #11
    15f2:	4000      	and	r0, r0
    15f4:	0acc      	lsr	r4, r1, #11
    15f6:	4000      	and	r0, r0
    15f8:	0af0      	lsr	r0, r6, #11
    15fa:	4000      	and	r0, r0
    15fc:	0b70      	lsr	r0, r6, #13
    15fe:	4000      	and	r0, r0
    1600:	0ac8      	lsr	r0, r1, #11
    1602:	4000      	and	r0, r0

00001604 <vTaskIncrementTick>:
    1604:	b570      	push	{r4, r5, r6, lr}
    1606:	4b2d      	ldr	r3, [pc, #180]	(16bc <prog+0x1678>)
    1608:	681b      	ldr	r3, [r3, #0]
    160a:	2b00      	cmp	r3, #0
    160c:	d14b      	bne	16a6 <vTaskIncrementTick+0xa2>
    160e:	4b2c      	ldr	r3, [pc, #176]	(16c0 <prog+0x167c>)
    1610:	681a      	ldr	r2, [r3, #0]
    1612:	3201      	add	r2, #1
    1614:	601a      	str	r2, [r3, #0]
    1616:	681b      	ldr	r3, [r3, #0]
    1618:	2b00      	cmp	r3, #0
    161a:	d109      	bne	1630 <vTaskIncrementTick+0x2c>
    161c:	4929      	ldr	r1, [pc, #164]	(16c4 <prog+0x1680>)
    161e:	6808      	ldr	r0, [r1, #0]
    1620:	4a29      	ldr	r2, [pc, #164]	(16c8 <prog+0x1684>)
    1622:	6813      	ldr	r3, [r2, #0]
    1624:	600b      	str	r3, [r1, #0]
    1626:	6010      	str	r0, [r2, #0]
    1628:	4a28      	ldr	r2, [pc, #160]	(16cc <prog+0x1688>)
    162a:	6813      	ldr	r3, [r2, #0]
    162c:	3301      	add	r3, #1
    162e:	6013      	str	r3, [r2, #0]
    1630:	4a24      	ldr	r2, [pc, #144]	(16c4 <prog+0x1680>)
    1632:	6813      	ldr	r3, [r2, #0]
    1634:	681b      	ldr	r3, [r3, #0]
    1636:	2b00      	cmp	r3, #0
    1638:	d039      	beq	16ae <vTaskIncrementTick+0xaa>
    163a:	6813      	ldr	r3, [r2, #0]
    163c:	68db      	ldr	r3, [r3, #12]
    163e:	68d8      	ldr	r0, [r3, #12]
    1640:	2800      	cmp	r0, #0
    1642:	d034      	beq	16ae <vTaskIncrementTick+0xaa>
    1644:	1c04      	mov	r4, r0		(add r4, r0, #0)
    1646:	6843      	ldr	r3, [r0, #4]
    1648:	4a1d      	ldr	r2, [pc, #116]	(16c0 <prog+0x167c>)
    164a:	6812      	ldr	r2, [r2, #0]
    164c:	4293      	cmp	r3, r2
    164e:	d82e      	bhi	16ae <vTaskIncrementTick+0xaa>
    1650:	4e1f      	ldr	r6, [pc, #124]	(16d0 <prog+0x168c>)
    1652:	4d1c      	ldr	r5, [pc, #112]	(16c4 <prog+0x1680>)
    1654:	e005      	b	1662 <vTaskIncrementTick+0x5e>
    1656:	1c1c      	mov	r4, r3		(add r4, r3, #0)
    1658:	685b      	ldr	r3, [r3, #4]
    165a:	4a19      	ldr	r2, [pc, #100]	(16c0 <prog+0x167c>)
    165c:	6812      	ldr	r2, [r2, #0]
    165e:	4293      	cmp	r3, r2
    1660:	d825      	bhi	16ae <vTaskIncrementTick+0xaa>
    1662:	1d20      	add	r0, r4, #4
    1664:	fb26f000 	bl	1cb4 <vListRemove>
    1668:	6aa3      	ldr	r3, [r4, #40]
    166a:	2b00      	cmp	r3, #0
    166c:	d003      	beq	1676 <vTaskIncrementTick+0x72>
    166e:	1c20      	mov	r0, r4		(add r0, r4, #0)
    1670:	3018      	add	r0, #24
    1672:	fb1ff000 	bl	1cb4 <vListRemove>
    1676:	6ae1      	ldr	r1, [r4, #44]
    1678:	6833      	ldr	r3, [r6, #0]
    167a:	4299      	cmp	r1, r3
    167c:	d900      	bls	1680 <vTaskIncrementTick+0x7c>
    167e:	6031      	str	r1, [r6, #0]
    1680:	6ae3      	ldr	r3, [r4, #44]
    1682:	1d21      	add	r1, r4, #4
    1684:	0098      	lsl	r0, r3, #2
    1686:	18c0      	add	r0, r0, r3
    1688:	0080      	lsl	r0, r0, #2
    168a:	4b12      	ldr	r3, [pc, #72]	(16d4 <prog+0x1690>)
    168c:	18c0      	add	r0, r0, r3
    168e:	fae3f000 	bl	1c58 <vListInsertEnd>
    1692:	682b      	ldr	r3, [r5, #0]
    1694:	681b      	ldr	r3, [r3, #0]
    1696:	2b00      	cmp	r3, #0
    1698:	d009      	beq	16ae <vTaskIncrementTick+0xaa>
    169a:	682b      	ldr	r3, [r5, #0]
    169c:	68db      	ldr	r3, [r3, #12]
    169e:	68db      	ldr	r3, [r3, #12]
    16a0:	2b00      	cmp	r3, #0
    16a2:	d1d8      	bne	1656 <vTaskIncrementTick+0x52>
    16a4:	e003      	b	16ae <vTaskIncrementTick+0xaa>
    16a6:	4a0c      	ldr	r2, [pc, #48]	(16d8 <prog+0x1694>)
    16a8:	6813      	ldr	r3, [r2, #0]
    16aa:	3301      	add	r3, #1
    16ac:	6013      	str	r3, [r2, #0]
    16ae:	4a0b      	ldr	r2, [pc, #44]	(16dc <prog+0x1698>)
    16b0:	6813      	ldr	r3, [r2, #0]
    16b2:	3301      	add	r3, #1
    16b4:	6013      	str	r3, [r2, #0]
    16b6:	bc70      	pop	{r4, r5, r6}
    16b8:	bc01      	pop	{r0}
    16ba:	4700      	bx	r0
    16bc:	0adc      	lsr	r4, r3, #11
    16be:	4000      	and	r0, r0
    16c0:	0ad8      	lsr	r0, r3, #11
    16c2:	4000      	and	r0, r0
    16c4:	0b68      	lsr	r0, r5, #13
    16c6:	4000      	and	r0, r0
    16c8:	0b6c      	lsr	r4, r5, #13
    16ca:	4000      	and	r0, r0
    16cc:	0ad4      	lsr	r4, r2, #11
    16ce:	4000      	and	r0, r0
    16d0:	0acc      	lsr	r4, r1, #11
    16d2:	4000      	and	r0, r0
    16d4:	0af0      	lsr	r0, r6, #11
    16d6:	4000      	and	r0, r0
    16d8:	0ae0      	lsr	r0, r4, #11
    16da:	4000      	and	r0, r0
    16dc:	0ac4      	lsr	r4, r0, #11
    16de:	4000      	and	r0, r0

000016e0 <xTaskGetCurrentTaskHandle>:
    16e0:	b510      	push	{r4, lr}
    16e2:	ff2ff012 	bl	14544 <__vPortEnterCritical_from_thumb>
    16e6:	4b04      	ldr	r3, [pc, #16]	(16f8 <prog+0x16b4>)
    16e8:	681c      	ldr	r4, [r3, #0]
    16ea:	ff2ff012 	bl	1454c <__vPortExitCritical_from_thumb>
    16ee:	1c20      	mov	r0, r4		(add r0, r4, #0)
    16f0:	bc10      	pop	{r4}
    16f2:	bc02      	pop	{r1}
    16f4:	4708      	bx	r1
    16f6:	0000      	lsl	r0, r0, #0
    16f8:	0ac8      	lsr	r0, r1, #11
    16fa:	4000      	and	r0, r0

000016fc <xTaskCheckForTimeOut>:
    16fc:	b530      	push	{r4, r5, lr}
    16fe:	1c04      	mov	r4, r0		(add r4, r0, #0)
    1700:	1c0d      	mov	r5, r1		(add r5, r1, #0)
    1702:	ff1ff012 	bl	14544 <__vPortEnterCritical_from_thumb>
    1706:	4b10      	ldr	r3, [pc, #64]	(1748 <prog+0x1704>)
    1708:	681a      	ldr	r2, [r3, #0]
    170a:	6823      	ldr	r3, [r4, #0]
    170c:	4293      	cmp	r3, r2
    170e:	d004      	beq	171a <xTaskCheckForTimeOut+0x1e>
    1710:	4b0e      	ldr	r3, [pc, #56]	(174c <prog+0x1708>)
    1712:	681a      	ldr	r2, [r3, #0]
    1714:	6863      	ldr	r3, [r4, #4]
    1716:	4293      	cmp	r3, r2
    1718:	d90f      	bls	173a <xTaskCheckForTimeOut+0x3e>
    171a:	480c      	ldr	r0, [pc, #48]	(174c <prog+0x1708>)
    171c:	6803      	ldr	r3, [r0, #0]
    171e:	6861      	ldr	r1, [r4, #4]
    1720:	682a      	ldr	r2, [r5, #0]
    1722:	1a5b      	sub	r3, r3, r1
    1724:	4293      	cmp	r3, r2
    1726:	d208      	bcs	173a <xTaskCheckForTimeOut+0x3e>
    1728:	6803      	ldr	r3, [r0, #0]
    172a:	1a5b      	sub	r3, r3, r1
    172c:	1ad3      	sub	r3, r2, r3
    172e:	602b      	str	r3, [r5, #0]
    1730:	1c20      	mov	r0, r4		(add r0, r4, #0)
    1732:	fe9df7ff 	bl	1470 <vTaskSetTimeOutState>
    1736:	2400      	mov	r4, #0
    1738:	e000      	b	173c <xTaskCheckForTimeOut+0x40>
    173a:	2401      	mov	r4, #1
    173c:	ff06f012 	bl	1454c <__vPortExitCritical_from_thumb>
    1740:	1c20      	mov	r0, r4		(add r0, r4, #0)
    1742:	bc30      	pop	{r4, r5}
    1744:	bc02      	pop	{r1}
    1746:	4708      	bx	r1
    1748:	0ad4      	lsr	r4, r2, #11
    174a:	4000      	and	r0, r0
    174c:	0ad8      	lsr	r0, r3, #11
    174e:	4000      	and	r0, r0

00001750 <uxTaskGetNumberOfTasks>:
    1750:	b510      	push	{r4, lr}
    1752:	fef7f012 	bl	14544 <__vPortEnterCritical_from_thumb>
    1756:	4b04      	ldr	r3, [pc, #16]	(1768 <prog+0x1724>)
    1758:	681c      	ldr	r4, [r3, #0]
    175a:	fef7f012 	bl	1454c <__vPortExitCritical_from_thumb>
    175e:	1c20      	mov	r0, r4		(add r0, r4, #0)
    1760:	bc10      	pop	{r4}
    1762:	bc02      	pop	{r1}
    1764:	4708      	bx	r1
    1766:	0000      	lsl	r0, r0, #0
    1768:	0ae4      	lsr	r4, r4, #11
    176a:	4000      	and	r0, r0

0000176c <xTaskGetTickCount>:
    176c:	b510      	push	{r4, lr}
    176e:	fee9f012 	bl	14544 <__vPortEnterCritical_from_thumb>
    1772:	4b04      	ldr	r3, [pc, #16]	(1784 <prog+0x1740>)
    1774:	681c      	ldr	r4, [r3, #0]
    1776:	fee9f012 	bl	1454c <__vPortExitCritical_from_thumb>
    177a:	1c20      	mov	r0, r4		(add r0, r4, #0)
    177c:	bc10      	pop	{r4}
    177e:	bc02      	pop	{r1}
    1780:	4708      	bx	r1
    1782:	0000      	lsl	r0, r0, #0
    1784:	0ad8      	lsr	r0, r3, #11
    1786:	4000      	and	r0, r0

00001788 <xTaskResumeAll>:
    1788:	b5f0      	push	{r4, r5, r6, r7, lr}
    178a:	4647      	mov	r7, r8
    178c:	b480      	push	{r7}
    178e:	fed9f012 	bl	14544 <__vPortEnterCritical_from_thumb>
    1792:	4b2d      	ldr	r3, [pc, #180]	(1848 <prog+0x1804>)
    1794:	681a      	ldr	r2, [r3, #0]
    1796:	3a01      	sub	r2, #1
    1798:	601a      	str	r2, [r3, #0]
    179a:	681b      	ldr	r3, [r3, #0]
    179c:	2b00      	cmp	r3, #0
    179e:	d14a      	bne	1836 <xTaskResumeAll+0xae>
    17a0:	4b2a      	ldr	r3, [pc, #168]	(184c <prog+0x1808>)
    17a2:	681b      	ldr	r3, [r3, #0]
    17a4:	2b00      	cmp	r3, #0
    17a6:	d046      	beq	1836 <xTaskResumeAll+0xae>
    17a8:	2300      	mov	r3, #0
    17aa:	4698      	mov	r8, r3
    17ac:	4e28      	ldr	r6, [pc, #160]	(1850 <prog+0x180c>)
    17ae:	4f29      	ldr	r7, [pc, #164]	(1854 <prog+0x1810>)
    17b0:	e01d      	b	17ee <xTaskResumeAll+0x66>
    17b2:	1c25      	mov	r5, r4		(add r5, r4, #0)
    17b4:	1c20      	mov	r0, r4		(add r0, r4, #0)
    17b6:	3018      	add	r0, #24
    17b8:	fa7cf000 	bl	1cb4 <vListRemove>
    17bc:	1d20      	add	r0, r4, #4
    17be:	fa79f000 	bl	1cb4 <vListRemove>
    17c2:	6ae0      	ldr	r0, [r4, #44]
    17c4:	683b      	ldr	r3, [r7, #0]
    17c6:	4298      	cmp	r0, r3
    17c8:	d900      	bls	17cc <xTaskResumeAll+0x44>
    17ca:	6038      	str	r0, [r7, #0]
    17cc:	6aeb      	ldr	r3, [r5, #44]
    17ce:	1d29      	add	r1, r5, #4
    17d0:	0098      	lsl	r0, r3, #2
    17d2:	18c0      	add	r0, r0, r3
    17d4:	0080      	lsl	r0, r0, #2
    17d6:	4b20      	ldr	r3, [pc, #128]	(1858 <prog+0x1814>)
    17d8:	18c0      	add	r0, r0, r3
    17da:	fa3df000 	bl	1c58 <vListInsertEnd>
    17de:	6aea      	ldr	r2, [r5, #44]
    17e0:	4b1e      	ldr	r3, [pc, #120]	(185c <prog+0x1818>)
    17e2:	681b      	ldr	r3, [r3, #0]
    17e4:	6adb      	ldr	r3, [r3, #44]
    17e6:	429a      	cmp	r2, r3
    17e8:	d301      	bcc	17ee <xTaskResumeAll+0x66>
    17ea:	2301      	mov	r3, #1
    17ec:	4698      	mov	r8, r3
    17ee:	6833      	ldr	r3, [r6, #0]
    17f0:	2b00      	cmp	r3, #0
    17f2:	d003      	beq	17fc <xTaskResumeAll+0x74>
    17f4:	68f3      	ldr	r3, [r6, #12]
    17f6:	68dc      	ldr	r4, [r3, #12]
    17f8:	2c00      	cmp	r4, #0
    17fa:	d1da      	bne	17b2 <xTaskResumeAll+0x2a>
    17fc:	4a18      	ldr	r2, [pc, #96]	(1860 <prog+0x181c>)
    17fe:	6813      	ldr	r3, [r2, #0]
    1800:	2b00      	cmp	r3, #0
    1802:	d00b      	beq	181c <xTaskResumeAll+0x94>
    1804:	6813      	ldr	r3, [r2, #0]
    1806:	2b00      	cmp	r3, #0
    1808:	d008      	beq	181c <xTaskResumeAll+0x94>
    180a:	1c14      	mov	r4, r2		(add r4, r2, #0)
    180c:	fefaf7ff 	bl	1604 <vTaskIncrementTick>
    1810:	6823      	ldr	r3, [r4, #0]
    1812:	3b01      	sub	r3, #1
    1814:	6023      	str	r3, [r4, #0]
    1816:	6823      	ldr	r3, [r4, #0]
    1818:	2b00      	cmp	r3, #0
    181a:	d1f7      	bne	180c <xTaskResumeAll+0x84>
    181c:	4643      	mov	r3, r8
    181e:	2b01      	cmp	r3, #1
    1820:	d003      	beq	182a <xTaskResumeAll+0xa2>
    1822:	4b10      	ldr	r3, [pc, #64]	(1864 <prog+0x1820>)
    1824:	681b      	ldr	r3, [r3, #0]
    1826:	2b01      	cmp	r3, #1
    1828:	d105      	bne	1836 <xTaskResumeAll+0xae>
    182a:	4a0e      	ldr	r2, [pc, #56]	(1864 <prog+0x1820>)
    182c:	2300      	mov	r3, #0
    182e:	6013      	str	r3, [r2, #0]
    1830:	df00      	swi	0
    1832:	2401      	mov	r4, #1
    1834:	e000      	b	1838 <xTaskResumeAll+0xb0>
    1836:	2400      	mov	r4, #0
    1838:	fe88f012 	bl	1454c <__vPortExitCritical_from_thumb>
    183c:	1c20      	mov	r0, r4		(add r0, r4, #0)
    183e:	bc04      	pop	{r2}
    1840:	4690      	mov	r8, r2
    1842:	bcf0      	pop	{r4, r5, r6, r7}
    1844:	bc02      	pop	{r1}
    1846:	4708      	bx	r1
    1848:	0adc      	lsr	r4, r3, #11
    184a:	4000      	and	r0, r0
    184c:	0ae4      	lsr	r4, r4, #11
    184e:	4000      	and	r0, r0
    1850:	0b70      	lsr	r0, r6, #13
    1852:	4000      	and	r0, r0
    1854:	0acc      	lsr	r4, r1, #11
    1856:	4000      	and	r0, r0
    1858:	0af0      	lsr	r0, r6, #11
    185a:	4000      	and	r0, r0
    185c:	0ac8      	lsr	r0, r1, #11
    185e:	4000      	and	r0, r0
    1860:	0ae0      	lsr	r0, r4, #11
    1862:	4000      	and	r0, r0
    1864:	0ad0      	lsr	r0, r2, #11
    1866:	4000      	and	r0, r0

00001868 <vTaskSuspendAll>:
    1868:	b500      	push	{lr}
    186a:	fe6bf012 	bl	14544 <__vPortEnterCritical_from_thumb>
    186e:	4a04      	ldr	r2, [pc, #16]	(1880 <prog+0x183c>)
    1870:	6813      	ldr	r3, [r2, #0]
    1872:	3301      	add	r3, #1
    1874:	6013      	str	r3, [r2, #0]
    1876:	fe69f012 	bl	1454c <__vPortExitCritical_from_thumb>
    187a:	bc01      	pop	{r0}
    187c:	4700      	bx	r0
    187e:	0000      	lsl	r0, r0, #0
    1880:	0adc      	lsr	r4, r3, #11
    1882:	4000      	and	r0, r0

00001884 <vTaskPlaceOnEventList>:
    1884:	b530      	push	{r4, r5, lr}
    1886:	1c0c      	mov	r4, r1		(add r4, r1, #0)
    1888:	4d10      	ldr	r5, [pc, #64]	(18cc <prog+0x1888>)
    188a:	6829      	ldr	r1, [r5, #0]
    188c:	3118      	add	r1, #24
    188e:	f9f1f000 	bl	1c74 <vListInsert>
    1892:	6828      	ldr	r0, [r5, #0]
    1894:	3004      	add	r0, #4
    1896:	fa0df000 	bl	1cb4 <vListRemove>
    189a:	490d      	ldr	r1, [pc, #52]	(18d0 <prog+0x188c>)
    189c:	680b      	ldr	r3, [r1, #0]
    189e:	191b      	add	r3, r3, r4
    18a0:	682a      	ldr	r2, [r5, #0]
    18a2:	6053      	str	r3, [r2, #4]
    18a4:	680a      	ldr	r2, [r1, #0]
    18a6:	4293      	cmp	r3, r2
    18a8:	d206      	bcs	18b8 <vTaskPlaceOnEventList+0x34>
    18aa:	4b0a      	ldr	r3, [pc, #40]	(18d4 <prog+0x1890>)
    18ac:	6818      	ldr	r0, [r3, #0]
    18ae:	6829      	ldr	r1, [r5, #0]
    18b0:	3104      	add	r1, #4
    18b2:	f9dff000 	bl	1c74 <vListInsert>
    18b6:	e006      	b	18c6 <vTaskPlaceOnEventList+0x42>
    18b8:	4b07      	ldr	r3, [pc, #28]	(18d8 <prog+0x1894>)
    18ba:	6818      	ldr	r0, [r3, #0]
    18bc:	4b03      	ldr	r3, [pc, #12]	(18cc <prog+0x1888>)
    18be:	6819      	ldr	r1, [r3, #0]
    18c0:	3104      	add	r1, #4
    18c2:	f9d7f000 	bl	1c74 <vListInsert>
    18c6:	bc30      	pop	{r4, r5}
    18c8:	bc01      	pop	{r0}
    18ca:	4700      	bx	r0
    18cc:	0ac8      	lsr	r0, r1, #11
    18ce:	4000      	and	r0, r0
    18d0:	0ad8      	lsr	r0, r3, #11
    18d2:	4000      	and	r0, r0
    18d4:	0b6c      	lsr	r4, r5, #13
    18d6:	4000      	and	r0, r0
    18d8:	0b68      	lsr	r0, r5, #13
    18da:	4000      	and	r0, r0

000018dc <vTaskDelay>:
    18dc:	b570      	push	{r4, r5, r6, lr}
    18de:	1c06      	mov	r6, r0		(add r6, r0, #0)
    18e0:	2800      	cmp	r0, #0
    18e2:	d020      	beq	1926 <vTaskDelay+0x4a>
    18e4:	ffc0f7ff 	bl	1868 <vTaskSuspendAll>
    18e8:	4d11      	ldr	r5, [pc, #68]	(1930 <prog+0x18ec>)
    18ea:	682c      	ldr	r4, [r5, #0]
    18ec:	1934      	add	r4, r6, r4
    18ee:	4e11      	ldr	r6, [pc, #68]	(1934 <prog+0x18f0>)
    18f0:	6830      	ldr	r0, [r6, #0]
    18f2:	3004      	add	r0, #4
    18f4:	f9def000 	bl	1cb4 <vListRemove>
    18f8:	6833      	ldr	r3, [r6, #0]
    18fa:	605c      	str	r4, [r3, #4]
    18fc:	682b      	ldr	r3, [r5, #0]
    18fe:	429c      	cmp	r4, r3
    1900:	d206      	bcs	1910 <vTaskDelay+0x34>
    1902:	4b0d      	ldr	r3, [pc, #52]	(1938 <prog+0x18f4>)
    1904:	6818      	ldr	r0, [r3, #0]
    1906:	6831      	ldr	r1, [r6, #0]
    1908:	3104      	add	r1, #4
    190a:	f9b3f000 	bl	1c74 <vListInsert>
    190e:	e006      	b	191e <vTaskDelay+0x42>
    1910:	4b0a      	ldr	r3, [pc, #40]	(193c <prog+0x18f8>)
    1912:	6818      	ldr	r0, [r3, #0]
    1914:	4b07      	ldr	r3, [pc, #28]	(1934 <prog+0x18f0>)
    1916:	6819      	ldr	r1, [r3, #0]
    1918:	3104      	add	r1, #4
    191a:	f9abf000 	bl	1c74 <vListInsert>
    191e:	ff33f7ff 	bl	1788 <xTaskResumeAll>
    1922:	2800      	cmp	r0, #0
    1924:	d100      	bne	1928 <vTaskDelay+0x4c>
    1926:	df00      	swi	0
    1928:	bc70      	pop	{r4, r5, r6}
    192a:	bc01      	pop	{r0}
    192c:	4700      	bx	r0
    192e:	0000      	lsl	r0, r0, #0
    1930:	0ad8      	lsr	r0, r3, #11
    1932:	4000      	and	r0, r0
    1934:	0ac8      	lsr	r0, r1, #11
    1936:	4000      	and	r0, r0
    1938:	0b6c      	lsr	r4, r5, #13
    193a:	4000      	and	r0, r0
    193c:	0b68      	lsr	r0, r5, #13
    193e:	4000      	and	r0, r0

00001940 <vTaskEndScheduler>:
    1940:	b500      	push	{lr}
    1942:	fe0ff012 	bl	14564 <__vPortDisableInterruptsFromThumb_from_thumb>
    1946:	4a03      	ldr	r2, [pc, #12]	(1954 <prog+0x1910>)
    1948:	2300      	mov	r3, #0
    194a:	6013      	str	r3, [r2, #0]
    194c:	f93cf000 	bl	1bc8 <vPortEndScheduler>
    1950:	bc01      	pop	{r0}
    1952:	4700      	bx	r0
    1954:	0ae8      	lsr	r0, r5, #11
    1956:	4000      	and	r0, r0

00001958 <prvIdleTask>:
    1958:	b500      	push	{lr}
    195a:	df00      	swi	0
    195c:	f98ef005 	bl	6c7c <vApplicationIdleHook>
    1960:	e7fb      	b	195a <prvIdleTask+0x2>
	...

00001964 <xTaskCreate>:
    1964:	b5f0      	push	{r4, r5, r6, r7, lr}
    1966:	4657      	mov	r7, sl
    1968:	464e      	mov	r6, r9
    196a:	4645      	mov	r5, r8
    196c:	b4e0      	push	{r5, r6, r7}
    196e:	4682      	mov	sl, r0
    1970:	1c0d      	mov	r5, r1		(add r5, r1, #0)
    1972:	4698      	mov	r8, r3
    1974:	0412      	lsl	r2, r2, #16
    1976:	0c17      	lsr	r7, r2, #16
    1978:	2044      	mov	r0, #68
    197a:	f9e3f000 	bl	1d44 <pvPortMalloc>
    197e:	2800      	cmp	r0, #0
    1980:	d102      	bne	1988 <xTaskCreate+0x24>
    1982:	2001      	mov	r0, #1
    1984:	4240      	neg	r0, r0
    1986:	e08c      	b	1aa2 <xTaskCreate+0x13e>
    1988:	1c06      	mov	r6, r0		(add r6, r0, #0)
    198a:	00bc      	lsl	r4, r7, #2
    198c:	1c20      	mov	r0, r4		(add r0, r4, #0)
    198e:	f9d9f000 	bl	1d44 <pvPortMalloc>
    1992:	6330      	str	r0, [r6, #48]
    1994:	2800      	cmp	r0, #0
    1996:	d105      	bne	19a4 <xTaskCreate+0x40>
    1998:	1c30      	mov	r0, r6		(add r0, r6, #0)
    199a:	f9bbf000 	bl	1d14 <vPortFree>
    199e:	2001      	mov	r0, #1
    19a0:	4240      	neg	r0, r0
    19a2:	e07e      	b	1aa2 <xTaskCreate+0x13e>
    19a4:	21a5      	mov	r1, #165
    19a6:	1c22      	mov	r2, r4		(add r2, r4, #0)
    19a8:	f830f006 	bl	7a0c <memset>
    19ac:	1c30      	mov	r0, r6		(add r0, r6, #0)
    19ae:	3034      	add	r0, #52
    19b0:	1c29      	mov	r1, r5		(add r1, r5, #0)
    19b2:	220a      	mov	r2, #10
    19b4:	fb42f006 	bl	803c <strncpy>
    19b8:	2200      	mov	r2, #0
    19ba:	233d      	mov	r3, #61
    19bc:	54f2      	strb	r2, [r6, r3]
    19be:	9c08      	ldr	r4, [sp, #32]
    19c0:	2c03      	cmp	r4, #3
    19c2:	d900      	bls	19c6 <xTaskCreate+0x62>
    19c4:	2403      	mov	r4, #3
    19c6:	62f4      	str	r4, [r6, #44]
    19c8:	6434      	str	r4, [r6, #64]
    19ca:	1d31      	add	r1, r6, #4
    19cc:	4689      	mov	r9, r1
    19ce:	1c08      	mov	r0, r1		(add r0, r1, #0)
    19d0:	f93ef000 	bl	1c50 <vListInitialiseItem>
    19d4:	1c30      	mov	r0, r6		(add r0, r6, #0)
    19d6:	3018      	add	r0, #24
    19d8:	f93af000 	bl	1c50 <vListInitialiseItem>
    19dc:	6136      	str	r6, [r6, #16]
    19de:	2304      	mov	r3, #4
    19e0:	1b1b      	sub	r3, r3, r4
    19e2:	61b3      	str	r3, [r6, #24]
    19e4:	6276      	str	r6, [r6, #36]
    19e6:	00b8      	lsl	r0, r7, #2
    19e8:	6b33      	ldr	r3, [r6, #48]
    19ea:	18c0      	add	r0, r0, r3
    19ec:	3804      	sub	r0, #4
    19ee:	4651      	mov	r1, sl
    19f0:	4642      	mov	r2, r8
    19f2:	f897f000 	bl	1b24 <pxPortInitialiseStack>
    19f6:	6030      	str	r0, [r6, #0]
    19f8:	fda4f012 	bl	14544 <__vPortEnterCritical_from_thumb>
    19fc:	4a2c      	ldr	r2, [pc, #176]	(1ab0 <prog+0x1a6c>)
    19fe:	6813      	ldr	r3, [r2, #0]
    1a00:	3301      	add	r3, #1
    1a02:	6013      	str	r3, [r2, #0]
    1a04:	6813      	ldr	r3, [r2, #0]
    1a06:	2b01      	cmp	r3, #1
    1a08:	d119      	bne	1a3e <xTaskCreate+0xda>
    1a0a:	4b2a      	ldr	r3, [pc, #168]	(1ab4 <prog+0x1a70>)
    1a0c:	601e      	str	r6, [r3, #0]
    1a0e:	4c2a      	ldr	r4, [pc, #168]	(1ab8 <prog+0x1a74>)
    1a10:	4d2a      	ldr	r5, [pc, #168]	(1abc <prog+0x1a78>)
    1a12:	1c20      	mov	r0, r4		(add r0, r4, #0)
    1a14:	f910f000 	bl	1c38 <vListInitialise>
    1a18:	3414      	add	r4, #20
    1a1a:	42ac      	cmp	r4, r5
    1a1c:	d1f9      	bne	1a12 <xTaskCreate+0xae>
    1a1e:	4d28      	ldr	r5, [pc, #160]	(1ac0 <prog+0x1a7c>)
    1a20:	1c28      	mov	r0, r5		(add r0, r5, #0)
    1a22:	f909f000 	bl	1c38 <vListInitialise>
    1a26:	4c27      	ldr	r4, [pc, #156]	(1ac4 <prog+0x1a80>)
    1a28:	1c20      	mov	r0, r4		(add r0, r4, #0)
    1a2a:	f905f000 	bl	1c38 <vListInitialise>
    1a2e:	4826      	ldr	r0, [pc, #152]	(1ac8 <prog+0x1a84>)
    1a30:	f902f000 	bl	1c38 <vListInitialise>
    1a34:	4b25      	ldr	r3, [pc, #148]	(1acc <prog+0x1a88>)
    1a36:	601d      	str	r5, [r3, #0]
    1a38:	4b25      	ldr	r3, [pc, #148]	(1ad0 <prog+0x1a8c>)
    1a3a:	601c      	str	r4, [r3, #0]
    1a3c:	e00a      	b	1a54 <xTaskCreate+0xf0>
    1a3e:	4b25      	ldr	r3, [pc, #148]	(1ad4 <prog+0x1a90>)
    1a40:	681b      	ldr	r3, [r3, #0]
    1a42:	2b00      	cmp	r3, #0
    1a44:	d106      	bne	1a54 <xTaskCreate+0xf0>
    1a46:	4a1b      	ldr	r2, [pc, #108]	(1ab4 <prog+0x1a70>)
    1a48:	6813      	ldr	r3, [r2, #0]
    1a4a:	6adb      	ldr	r3, [r3, #44]
    1a4c:	9908      	ldr	r1, [sp, #32]
    1a4e:	4299      	cmp	r1, r3
    1a50:	d300      	bcc	1a54 <xTaskCreate+0xf0>
    1a52:	6016      	str	r6, [r2, #0]
    1a54:	6af2      	ldr	r2, [r6, #44]
    1a56:	4920      	ldr	r1, [pc, #128]	(1ad8 <prog+0x1a94>)
    1a58:	680b      	ldr	r3, [r1, #0]
    1a5a:	429a      	cmp	r2, r3
    1a5c:	d900      	bls	1a60 <xTaskCreate+0xfc>
    1a5e:	600a      	str	r2, [r1, #0]
    1a60:	491e      	ldr	r1, [pc, #120]	(1adc <prog+0x1a98>)
    1a62:	680b      	ldr	r3, [r1, #0]
    1a64:	429a      	cmp	r2, r3
    1a66:	d900      	bls	1a6a <xTaskCreate+0x106>
    1a68:	600a      	str	r2, [r1, #0]
    1a6a:	0090      	lsl	r0, r2, #2
    1a6c:	1880      	add	r0, r0, r2
    1a6e:	0080      	lsl	r0, r0, #2
    1a70:	4b11      	ldr	r3, [pc, #68]	(1ab8 <prog+0x1a74>)
    1a72:	18c0      	add	r0, r0, r3
    1a74:	4649      	mov	r1, r9
    1a76:	f8eff000 	bl	1c58 <vListInsertEnd>
    1a7a:	fd67f012 	bl	1454c <__vPortExitCritical_from_thumb>
    1a7e:	9a09      	ldr	r2, [sp, #36]
    1a80:	2a00      	cmp	r2, #0
    1a82:	d000      	beq	1a86 <xTaskCreate+0x122>
    1a84:	6016      	str	r6, [r2, #0]
    1a86:	4b13      	ldr	r3, [pc, #76]	(1ad4 <prog+0x1a90>)
    1a88:	681b      	ldr	r3, [r3, #0]
    1a8a:	2b00      	cmp	r3, #0
    1a8c:	d008      	beq	1aa0 <xTaskCreate+0x13c>
    1a8e:	4b09      	ldr	r3, [pc, #36]	(1ab4 <prog+0x1a70>)
    1a90:	681b      	ldr	r3, [r3, #0]
    1a92:	6adb      	ldr	r3, [r3, #44]
    1a94:	9908      	ldr	r1, [sp, #32]
    1a96:	428b      	cmp	r3, r1
    1a98:	d202      	bcs	1aa0 <xTaskCreate+0x13c>
    1a9a:	df00      	swi	0
    1a9c:	2001      	mov	r0, #1
    1a9e:	e000      	b	1aa2 <xTaskCreate+0x13e>
    1aa0:	2001      	mov	r0, #1
    1aa2:	bc1c      	pop	{r2, r3, r4}
    1aa4:	4690      	mov	r8, r2
    1aa6:	4699      	mov	r9, r3
    1aa8:	46a2      	mov	sl, r4
    1aaa:	bcf0      	pop	{r4, r5, r6, r7}
    1aac:	bc02      	pop	{r1}
    1aae:	4708      	bx	r1
    1ab0:	0ae4      	lsr	r4, r4, #11
    1ab2:	4000      	and	r0, r0
    1ab4:	0ac8      	lsr	r0, r1, #11
    1ab6:	4000      	and	r0, r0
    1ab8:	0af0      	lsr	r0, r6, #11
    1aba:	4000      	and	r0, r0
    1abc:	0b40      	lsr	r0, r0, #13
    1abe:	4000      	and	r0, r0
    1ac0:	0b40      	lsr	r0, r0, #13
    1ac2:	4000      	and	r0, r0
    1ac4:	0b54      	lsr	r4, r2, #13
    1ac6:	4000      	and	r0, r0
    1ac8:	0b70      	lsr	r0, r6, #13
    1aca:	4000      	and	r0, r0
    1acc:	0b68      	lsr	r0, r5, #13
    1ace:	4000      	and	r0, r0
    1ad0:	0b6c      	lsr	r4, r5, #13
    1ad2:	4000      	and	r0, r0
    1ad4:	0ae8      	lsr	r0, r5, #11
    1ad6:	4000      	and	r0, r0
    1ad8:	0aec      	lsr	r4, r5, #11
    1ada:	4000      	and	r0, r0
    1adc:	0acc      	lsr	r4, r1, #11
    1ade:	4000      	and	r0, r0

00001ae0 <vTaskStartScheduler>:
    1ae0:	b530      	push	{r4, r5, lr}
    1ae2:	b082      	sub	sp, #8
    1ae4:	490b      	ldr	r1, [pc, #44]	(1b14 <prog+0x1ad0>)
    1ae6:	480c      	ldr	r0, [pc, #48]	(1b18 <prog+0x1ad4>)
    1ae8:	2500      	mov	r5, #0
    1aea:	9500      	str	r5, [sp, #0]
    1aec:	9501      	str	r5, [sp, #4]
    1aee:	2268      	mov	r2, #104
    1af0:	2300      	mov	r3, #0
    1af2:	ff37f7ff 	bl	1964 <xTaskCreate>
    1af6:	1c04      	mov	r4, r0		(add r4, r0, #0)
    1af8:	2801      	cmp	r0, #1
    1afa:	d107      	bne	1b0c <vTaskStartScheduler+0x2c>
    1afc:	fd32f012 	bl	14564 <__vPortDisableInterruptsFromThumb_from_thumb>
    1b00:	4b06      	ldr	r3, [pc, #24]	(1b1c <prog+0x1ad8>)
    1b02:	601c      	str	r4, [r3, #0]
    1b04:	4b06      	ldr	r3, [pc, #24]	(1b20 <prog+0x1adc>)
    1b06:	601d      	str	r5, [r3, #0]
    1b08:	f860f000 	bl	1bcc <xPortStartScheduler>
    1b0c:	b002      	add	sp, #8
    1b0e:	bc30      	pop	{r4, r5}
    1b10:	bc01      	pop	{r0}
    1b12:	4700      	bx	r0
    1b14:	31d4      	add	r1, #212
    1b16:	0001      	lsl	r1, r0, #0
    1b18:	1959      	add	r1, r3, r5
    1b1a:	0000      	lsl	r0, r0, #0
    1b1c:	0ae8      	lsr	r0, r5, #11
    1b1e:	4000      	and	r0, r0
    1b20:	0ad8      	lsr	r0, r3, #11
    1b22:	4000      	and	r0, r0

00001b24 <pxPortInitialiseStack>:
    1b24:	b510      	push	{r4, lr}
    1b26:	3104      	add	r1, #4
    1b28:	6001      	str	r1, [r0, #0]
    1b2a:	1f03      	sub	r3, r0, #4
    1b2c:	2400      	mov	r4, #0
    1b2e:	601c      	str	r4, [r3, #0]
    1b30:	3b04      	sub	r3, #4
    1b32:	6018      	str	r0, [r3, #0]
    1b34:	1c01      	mov	r1, r0		(add r1, r0, #0)
    1b36:	390c      	sub	r1, #12
    1b38:	4b17      	ldr	r3, [pc, #92]	(1b98 <prog+0x1b54>)
    1b3a:	600b      	str	r3, [r1, #0]
    1b3c:	3904      	sub	r1, #4
    1b3e:	4b17      	ldr	r3, [pc, #92]	(1b9c <prog+0x1b58>)
    1b40:	600b      	str	r3, [r1, #0]
    1b42:	3904      	sub	r1, #4
    1b44:	4b16      	ldr	r3, [pc, #88]	(1ba0 <prog+0x1b5c>)
    1b46:	600b      	str	r3, [r1, #0]
    1b48:	3904      	sub	r1, #4
    1b4a:	4b16      	ldr	r3, [pc, #88]	(1ba4 <prog+0x1b60>)
    1b4c:	600b      	str	r3, [r1, #0]
    1b4e:	3904      	sub	r1, #4
    1b50:	4b15      	ldr	r3, [pc, #84]	(1ba8 <prog+0x1b64>)
    1b52:	600b      	str	r3, [r1, #0]
    1b54:	3904      	sub	r1, #4
    1b56:	4b15      	ldr	r3, [pc, #84]	(1bac <prog+0x1b68>)
    1b58:	600b      	str	r3, [r1, #0]
    1b5a:	3904      	sub	r1, #4
    1b5c:	4b14      	ldr	r3, [pc, #80]	(1bb0 <prog+0x1b6c>)
    1b5e:	600b      	str	r3, [r1, #0]
    1b60:	3904      	sub	r1, #4
    1b62:	4b14      	ldr	r3, [pc, #80]	(1bb4 <prog+0x1b70>)
    1b64:	600b      	str	r3, [r1, #0]
    1b66:	3904      	sub	r1, #4
    1b68:	4b13      	ldr	r3, [pc, #76]	(1bb8 <prog+0x1b74>)
    1b6a:	600b      	str	r3, [r1, #0]
    1b6c:	3904      	sub	r1, #4
    1b6e:	4b13      	ldr	r3, [pc, #76]	(1bbc <prog+0x1b78>)
    1b70:	600b      	str	r3, [r1, #0]
    1b72:	3904      	sub	r1, #4
    1b74:	4b12      	ldr	r3, [pc, #72]	(1bc0 <prog+0x1b7c>)
    1b76:	600b      	str	r3, [r1, #0]
    1b78:	3904      	sub	r1, #4
    1b7a:	4b12      	ldr	r3, [pc, #72]	(1bc4 <prog+0x1b80>)
    1b7c:	600b      	str	r3, [r1, #0]
    1b7e:	1c03      	mov	r3, r0		(add r3, r0, #0)
    1b80:	3b3c      	sub	r3, #60
    1b82:	601a      	str	r2, [r3, #0]
    1b84:	1c02      	mov	r2, r0		(add r2, r0, #0)
    1b86:	3a40      	sub	r2, #64
    1b88:	233f      	mov	r3, #63
    1b8a:	6013      	str	r3, [r2, #0]
    1b8c:	3844      	sub	r0, #68
    1b8e:	6004      	str	r4, [r0, #0]
    1b90:	bc10      	pop	{r4}
    1b92:	bc02      	pop	{r1}
    1b94:	4708      	bx	r1
    1b96:	0000      	lsl	r0, r0, #0
    1b98:	1212      	asr	r2, r2, #8
    1b9a:	1212      	asr	r2, r2, #8
    1b9c:	1111      	asr	r1, r2, #4
    1b9e:	1111      	asr	r1, r2, #4
    1ba0:	1010      	asr	r0, r2, #0
    1ba2:	1010      	asr	r0, r2, #0
    1ba4:	0909      	lsr	r1, r1, #4
    1ba6:	0909      	lsr	r1, r1, #4
    1ba8:	0808      	lsr	r0, r1, #0
    1baa:	0808      	lsr	r0, r1, #0
    1bac:	0707      	lsl	r7, r0, #28
    1bae:	0707      	lsl	r7, r0, #28
    1bb0:	0606      	lsl	r6, r0, #24
    1bb2:	0606      	lsl	r6, r0, #24
    1bb4:	0505      	lsl	r5, r0, #20
    1bb6:	0505      	lsl	r5, r0, #20
    1bb8:	0404      	lsl	r4, r0, #16
    1bba:	0404      	lsl	r4, r0, #16
    1bbc:	0303      	lsl	r3, r0, #12
    1bbe:	0303      	lsl	r3, r0, #12
    1bc0:	0202      	lsl	r2, r0, #8
    1bc2:	0202      	lsl	r2, r0, #8
    1bc4:	0101      	lsl	r1, r0, #4
    1bc6:	0101      	lsl	r1, r0, #4

00001bc8 <vPortEndScheduler>:
    1bc8:	4770      	bx	lr
	...

00001bcc <xPortStartScheduler>:
    1bcc:	b500      	push	{lr}
    1bce:	4912      	ldr	r1, [pc, #72]	(1c18 <prog+0x1bd4>)
    1bd0:	680b      	ldr	r3, [r1, #0]
    1bd2:	220c      	mov	r2, #12
    1bd4:	4393      	bic	r3, r2
    1bd6:	2204      	mov	r2, #4
    1bd8:	4313      	orr	r3, r2
    1bda:	600b      	str	r3, [r1, #0]
    1bdc:	490f      	ldr	r1, [pc, #60]	(1c1c <prog+0x1bd8>)
    1bde:	2302      	mov	r3, #2
    1be0:	600b      	str	r3, [r1, #0]
    1be2:	2200      	mov	r2, #0
    1be4:	4b0e      	ldr	r3, [pc, #56]	(1c20 <prog+0x1bdc>)
    1be6:	601a      	str	r2, [r3, #0]
    1be8:	3b64      	sub	r3, #100
    1bea:	601a      	str	r2, [r3, #0]
    1bec:	4a0d      	ldr	r2, [pc, #52]	(1c24 <prog+0x1be0>)
    1bee:	3310      	add	r3, #16
    1bf0:	601a      	str	r2, [r3, #0]
    1bf2:	2218      	mov	r2, #24
    1bf4:	3b08      	sub	r3, #8
    1bf6:	601a      	str	r2, [r3, #0]
    1bf8:	2210      	mov	r2, #16
    1bfa:	4b0b      	ldr	r3, [pc, #44]	(1c28 <prog+0x1be4>)
    1bfc:	601a      	str	r2, [r3, #0]
    1bfe:	4a0b      	ldr	r2, [pc, #44]	(1c2c <prog+0x1be8>)
    1c00:	4b0b      	ldr	r3, [pc, #44]	(1c30 <prog+0x1bec>)
    1c02:	601a      	str	r2, [r3, #0]
    1c04:	2201      	mov	r2, #1
    1c06:	4b0b      	ldr	r3, [pc, #44]	(1c34 <prog+0x1bf0>)
    1c08:	601a      	str	r2, [r3, #0]
    1c0a:	600a      	str	r2, [r1, #0]
    1c0c:	fcaef012 	bl	1456c <__vPortISRStartFirstTask_from_thumb>
    1c10:	2000      	mov	r0, #0
    1c12:	bc02      	pop	{r1}
    1c14:	4708      	bx	r1
    1c16:	0000      	lsl	r0, r0, #0
    1c18:	c1a8      	stmia	r1!,{r3, r5, r7}
    1c1a:	e01f      	b	1c5c <vListInsertEnd+0x4>
    1c1c:	4004      	and	r4, r0
    1c1e:	e000      	b	1c22 <prog+0x1bde>
    1c20:	4070      	eor	r0, r6
    1c22:	e000      	b	1c26 <prog+0x1be2>
    1c24:	ea60      	undefined
    1c26:	0000      	lsl	r0, r0, #0
    1c28:	fffff010 	bl	12c2a <prog+0x12be6>
    1c2c:	0130      	lsl	r0, r6, #4
    1c2e:	0000      	lsl	r0, r0, #0
    1c30:	fffff110 	bl	112c32 <__data_beg_src__+0xfe6be>
    1c34:	fffff210 	bl	212c36 <__data_beg_src__+0x1fe6c2>

00001c38 <vListInitialise>:
    1c38:	1c02      	mov	r2, r0		(add r2, r0, #0)
    1c3a:	3208      	add	r2, #8
    1c3c:	6042      	str	r2, [r0, #4]
    1c3e:	2301      	mov	r3, #1
    1c40:	425b      	neg	r3, r3
    1c42:	6083      	str	r3, [r0, #8]
    1c44:	60c2      	str	r2, [r0, #12]
    1c46:	6102      	str	r2, [r0, #16]
    1c48:	2300      	mov	r3, #0
    1c4a:	6003      	str	r3, [r0, #0]
    1c4c:	4770      	bx	lr
	...

00001c50 <vListInitialiseItem>:
    1c50:	2300      	mov	r3, #0
    1c52:	6103      	str	r3, [r0, #16]
    1c54:	4770      	bx	lr
	...

00001c58 <vListInsertEnd>:
    1c58:	6842      	ldr	r2, [r0, #4]
    1c5a:	6853      	ldr	r3, [r2, #4]
    1c5c:	604b      	str	r3, [r1, #4]
    1c5e:	6843      	ldr	r3, [r0, #4]
    1c60:	608b      	str	r3, [r1, #8]
    1c62:	6853      	ldr	r3, [r2, #4]
    1c64:	6099      	str	r1, [r3, #8]
    1c66:	6051      	str	r1, [r2, #4]
    1c68:	6041      	str	r1, [r0, #4]
    1c6a:	6108      	str	r0, [r1, #16]
    1c6c:	6803      	ldr	r3, [r0, #0]
    1c6e:	3301      	add	r3, #1
    1c70:	6003      	str	r3, [r0, #0]
    1c72:	4770      	bx	lr

00001c74 <vListInsert>:
    1c74:	b510      	push	{r4, lr}
    1c76:	1c04      	mov	r4, r0		(add r4, r0, #0)
    1c78:	1c08      	mov	r0, r1		(add r0, r1, #0)
    1c7a:	6809      	ldr	r1, [r1, #0]
    1c7c:	1c4b      	add	r3, r1, #1
    1c7e:	d101      	bne	1c84 <vListInsert+0x10>
    1c80:	6922      	ldr	r2, [r4, #16]
    1c82:	e00a      	b	1c9a <vListInsert+0x26>
    1c84:	1c22      	mov	r2, r4		(add r2, r4, #0)
    1c86:	3208      	add	r2, #8
    1c88:	6853      	ldr	r3, [r2, #4]
    1c8a:	681b      	ldr	r3, [r3, #0]
    1c8c:	4299      	cmp	r1, r3
    1c8e:	d304      	bcc	1c9a <vListInsert+0x26>
    1c90:	6852      	ldr	r2, [r2, #4]
    1c92:	6853      	ldr	r3, [r2, #4]
    1c94:	681b      	ldr	r3, [r3, #0]
    1c96:	4299      	cmp	r1, r3
    1c98:	d2fa      	bcs	1c90 <vListInsert+0x1c>
    1c9a:	6853      	ldr	r3, [r2, #4]
    1c9c:	6043      	str	r3, [r0, #4]
    1c9e:	6098      	str	r0, [r3, #8]
    1ca0:	6082      	str	r2, [r0, #8]
    1ca2:	6050      	str	r0, [r2, #4]
    1ca4:	6104      	str	r4, [r0, #16]
    1ca6:	6823      	ldr	r3, [r4, #0]
    1ca8:	3301      	add	r3, #1
    1caa:	6023      	str	r3, [r4, #0]
    1cac:	bc10      	pop	{r4}
    1cae:	bc01      	pop	{r0}
    1cb0:	4700      	bx	r0
	...

00001cb4 <vListRemove>:
    1cb4:	6843      	ldr	r3, [r0, #4]
    1cb6:	6882      	ldr	r2, [r0, #8]
    1cb8:	609a      	str	r2, [r3, #8]
    1cba:	6881      	ldr	r1, [r0, #8]
    1cbc:	604b      	str	r3, [r1, #4]
    1cbe:	6902      	ldr	r2, [r0, #16]
    1cc0:	6853      	ldr	r3, [r2, #4]
    1cc2:	4283      	cmp	r3, r0
    1cc4:	d100      	bne	1cc8 <vListRemove+0x14>
    1cc6:	6051      	str	r1, [r2, #4]
    1cc8:	2300      	mov	r3, #0
    1cca:	6103      	str	r3, [r0, #16]
    1ccc:	6813      	ldr	r3, [r2, #0]
    1cce:	3b01      	sub	r3, #1
    1cd0:	6013      	str	r3, [r2, #0]
    1cd2:	4770      	bx	lr

00001cd4 <pvPortMallocKU2>:
    1cd4:	b510      	push	{r4, lr}
    1cd6:	2303      	mov	r3, #3
    1cd8:	4218      	tst	r0, r3
    1cda:	d001      	beq	1ce0 <pvPortMallocKU2+0xc>
    1cdc:	4398      	bic	r0, r3
    1cde:	3004      	add	r0, #4
    1ce0:	4b0a      	ldr	r3, [pc, #40]	(1d0c <prog+0x1cc8>)
    1ce2:	681a      	ldr	r2, [r3, #0]
    1ce4:	1882      	add	r2, r0, r2
    1ce6:	601a      	str	r2, [r3, #0]
    1ce8:	2380      	mov	r3, #128
    1cea:	00db      	lsl	r3, r3, #3
    1cec:	429a      	cmp	r2, r3
    1cee:	d901      	bls	1cf4 <pvPortMallocKU2+0x20>
    1cf0:	2400      	mov	r4, #0
    1cf2:	e007      	b	1d04 <pvPortMallocKU2+0x30>
    1cf4:	fdb8f7ff 	bl	1868 <vTaskSuspendAll>
    1cf8:	4b04      	ldr	r3, [pc, #16]	(1d0c <prog+0x1cc8>)
    1cfa:	681a      	ldr	r2, [r3, #0]
    1cfc:	4b04      	ldr	r3, [pc, #16]	(1d10 <prog+0x1ccc>)
    1cfe:	1a9c      	sub	r4, r3, r2
    1d00:	fd42f7ff 	bl	1788 <xTaskResumeAll>
    1d04:	1c20      	mov	r0, r4		(add r0, r4, #0)
    1d06:	bc10      	pop	{r4}
    1d08:	bc02      	pop	{r1}
    1d0a:	4708      	bx	r1
    1d0c:	0b84      	lsr	r4, r0, #14
    1d0e:	4000      	and	r0, r0
    1d10:	0400      	lsl	r0, r0, #16
    1d12:	7fd0      	ldrb	r0, [r2, #31]

00001d14 <vPortFree>:
    1d14:	b510      	push	{r4, lr}
    1d16:	2800      	cmp	r0, #0
    1d18:	d00f      	beq	1d3a <vPortFree+0x26>
    1d1a:	1c04      	mov	r4, r0		(add r4, r0, #0)
    1d1c:	3c08      	sub	r4, #8
    1d1e:	fda3f7ff 	bl	1868 <vTaskSuspendAll>
    1d22:	6860      	ldr	r0, [r4, #4]
    1d24:	4906      	ldr	r1, [pc, #24]	(1d40 <prog+0x1cfc>)
    1d26:	680a      	ldr	r2, [r1, #0]
    1d28:	6853      	ldr	r3, [r2, #4]
    1d2a:	4298      	cmp	r0, r3
    1d2c:	d901      	bls	1d32 <vPortFree+0x1e>
    1d2e:	1c11      	mov	r1, r2		(add r1, r2, #0)
    1d30:	e7f9      	b	1d26 <vPortFree+0x12>
    1d32:	6022      	str	r2, [r4, #0]
    1d34:	600c      	str	r4, [r1, #0]
    1d36:	fd27f7ff 	bl	1788 <xTaskResumeAll>
    1d3a:	bc10      	pop	{r4}
    1d3c:	bc01      	pop	{r0}
    1d3e:	4700      	bx	r0
    1d40:	5cd0      	ldrb	r0, [r2, r3]
    1d42:	4000      	and	r0, r0

00001d44 <pvPortMalloc>:
    1d44:	b530      	push	{r4, r5, lr}
    1d46:	1c05      	mov	r5, r0		(add r5, r0, #0)
    1d48:	fd8ef7ff 	bl	1868 <vTaskSuspendAll>
    1d4c:	4c25      	ldr	r4, [pc, #148]	(1de4 <prog+0x1da0>)
    1d4e:	6820      	ldr	r0, [r4, #0]
    1d50:	2800      	cmp	r0, #0
    1d52:	d10b      	bne	1d6c <pvPortMalloc+0x28>
    1d54:	4924      	ldr	r1, [pc, #144]	(1de8 <prog+0x1da4>)
    1d56:	4b25      	ldr	r3, [pc, #148]	(1dec <prog+0x1da8>)
    1d58:	6019      	str	r1, [r3, #0]
    1d5a:	6058      	str	r0, [r3, #4]
    1d5c:	4b24      	ldr	r3, [pc, #144]	(1df0 <prog+0x1dac>)
    1d5e:	4a25      	ldr	r2, [pc, #148]	(1df4 <prog+0x1db0>)
    1d60:	605a      	str	r2, [r3, #4]
    1d62:	6018      	str	r0, [r3, #0]
    1d64:	604a      	str	r2, [r1, #4]
    1d66:	600b      	str	r3, [r1, #0]
    1d68:	2301      	mov	r3, #1
    1d6a:	6023      	str	r3, [r4, #0]
    1d6c:	2d00      	cmp	r5, #0
    1d6e:	d031      	beq	1dd4 <pvPortMalloc+0x90>
    1d70:	1c28      	mov	r0, r5		(add r0, r5, #0)
    1d72:	3008      	add	r0, #8
    1d74:	2303      	mov	r3, #3
    1d76:	4218      	tst	r0, r3
    1d78:	d001      	beq	1d7e <pvPortMalloc+0x3a>
    1d7a:	4398      	bic	r0, r3
    1d7c:	3004      	add	r0, #4
    1d7e:	1e42      	sub	r2, r0, #1
    1d80:	4b1d      	ldr	r3, [pc, #116]	(1df8 <prog+0x1db4>)
    1d82:	429a      	cmp	r2, r3
    1d84:	d826      	bhi	1dd4 <pvPortMalloc+0x90>
    1d86:	4b19      	ldr	r3, [pc, #100]	(1dec <prog+0x1da8>)
    1d88:	681a      	ldr	r2, [r3, #0]
    1d8a:	1c19      	mov	r1, r3		(add r1, r3, #0)
    1d8c:	6853      	ldr	r3, [r2, #4]
    1d8e:	4298      	cmp	r0, r3
    1d90:	d906      	bls	1da0 <pvPortMalloc+0x5c>
    1d92:	6813      	ldr	r3, [r2, #0]
    1d94:	4694      	mov	ip, r2
    1d96:	2b00      	cmp	r3, #0
    1d98:	d002      	beq	1da0 <pvPortMalloc+0x5c>
    1d9a:	1c1a      	mov	r2, r3		(add r2, r3, #0)
    1d9c:	4661      	mov	r1, ip
    1d9e:	e7f5      	b	1d8c <pvPortMalloc+0x48>
    1da0:	4b13      	ldr	r3, [pc, #76]	(1df0 <prog+0x1dac>)
    1da2:	429a      	cmp	r2, r3
    1da4:	d016      	beq	1dd4 <pvPortMalloc+0x90>
    1da6:	680b      	ldr	r3, [r1, #0]
    1da8:	1c1c      	mov	r4, r3		(add r4, r3, #0)
    1daa:	3408      	add	r4, #8
    1dac:	6813      	ldr	r3, [r2, #0]
    1dae:	600b      	str	r3, [r1, #0]
    1db0:	6853      	ldr	r3, [r2, #4]
    1db2:	1a1b      	sub	r3, r3, r0
    1db4:	2b10      	cmp	r3, #16
    1db6:	d90e      	bls	1dd6 <pvPortMalloc+0x92>
    1db8:	1815      	add	r5, r2, r0
    1dba:	606b      	str	r3, [r5, #4]
    1dbc:	6050      	str	r0, [r2, #4]
    1dbe:	6868      	ldr	r0, [r5, #4]
    1dc0:	490a      	ldr	r1, [pc, #40]	(1dec <prog+0x1da8>)
    1dc2:	680a      	ldr	r2, [r1, #0]
    1dc4:	6853      	ldr	r3, [r2, #4]
    1dc6:	4298      	cmp	r0, r3
    1dc8:	d901      	bls	1dce <pvPortMalloc+0x8a>
    1dca:	1c11      	mov	r1, r2		(add r1, r2, #0)
    1dcc:	e7f9      	b	1dc2 <pvPortMalloc+0x7e>
    1dce:	602a      	str	r2, [r5, #0]
    1dd0:	600d      	str	r5, [r1, #0]
    1dd2:	e000      	b	1dd6 <pvPortMalloc+0x92>
    1dd4:	2400      	mov	r4, #0
    1dd6:	fcd7f7ff 	bl	1788 <xTaskResumeAll>
    1dda:	1c20      	mov	r0, r4		(add r0, r4, #0)
    1ddc:	bc30      	pop	{r4, r5}
    1dde:	bc02      	pop	{r1}
    1de0:	4708      	bx	r1
    1de2:	0000      	lsl	r0, r0, #0
    1de4:	0b88      	lsr	r0, r1, #14
    1de6:	4000      	and	r0, r0
    1de8:	0b90      	lsr	r0, r2, #14
    1dea:	4000      	and	r0, r0
    1dec:	5cd0      	ldrb	r0, [r2, r3]
    1dee:	4000      	and	r0, r0
    1df0:	5cd8      	ldrb	r0, [r3, r3]
    1df2:	4000      	and	r0, r0
    1df4:	5140      	str	r0, [r0, r5]
    1df6:	0000      	lsl	r0, r0, #0
    1df8:	513e      	str	r6, [r7, r4]
	...

00001dfc <tinysh_strlen>:
    1dfc:	1c02      	mov	r2, r0		(add r2, r0, #0)
    1dfe:	7803      	ldrb	r3, [r0, #0]
    1e00:	2b00      	cmp	r3, #0
    1e02:	d101      	bne	1e08 <tinysh_strlen+0xc>
    1e04:	2000      	mov	r0, #0
    1e06:	e004      	b	1e12 <tinysh_strlen+0x16>
    1e08:	2000      	mov	r0, #0
    1e0a:	3001      	add	r0, #1
    1e0c:	5c83      	ldrb	r3, [r0, r2]
    1e0e:	2b00      	cmp	r3, #0
    1e10:	d1fb      	bne	1e0a <tinysh_strlen+0xe>
    1e12:	4770      	bx	lr

00001e14 <strstart>:
    1e14:	7802      	ldrb	r2, [r0, #0]
    1e16:	2a00      	cmp	r2, #0
    1e18:	d00a      	beq	1e30 <strstart+0x1c>
    1e1a:	780b      	ldrb	r3, [r1, #0]
    1e1c:	4293      	cmp	r3, r2
    1e1e:	d107      	bne	1e30 <strstart+0x1c>
    1e20:	3001      	add	r0, #1
    1e22:	3101      	add	r1, #1
    1e24:	7802      	ldrb	r2, [r0, #0]
    1e26:	2a00      	cmp	r2, #0
    1e28:	d002      	beq	1e30 <strstart+0x1c>
    1e2a:	780b      	ldrb	r3, [r1, #0]
    1e2c:	4293      	cmp	r3, r2
    1e2e:	d0f7      	beq	1e20 <strstart+0xc>
    1e30:	7809      	ldrb	r1, [r1, #0]
    1e32:	2920      	cmp	r1, #32
    1e34:	d003      	beq	1e3e <strstart+0x2a>
    1e36:	2900      	cmp	r1, #0
    1e38:	d001      	beq	1e3e <strstart+0x2a>
    1e3a:	2003      	mov	r0, #3
    1e3c:	e004      	b	1e48 <strstart+0x34>
    1e3e:	2a00      	cmp	r2, #0
    1e40:	d101      	bne	1e46 <strstart+0x32>
    1e42:	2001      	mov	r0, #1
    1e44:	e000      	b	1e48 <strstart+0x34>
    1e46:	2002      	mov	r0, #2
    1e48:	4770      	bx	lr
	...

00001e4c <parse_command>:
    1e4c:	b5f0      	push	{r4, r5, r6, r7, lr}
    1e4e:	4647      	mov	r7, r8
    1e50:	b480      	push	{r7}
    1e52:	4680      	mov	r8, r0
    1e54:	1c0f      	mov	r7, r1		(add r7, r1, #0)
    1e56:	680c      	ldr	r4, [r1, #0]
    1e58:	7823      	ldrb	r3, [r4, #0]
    1e5a:	2b20      	cmp	r3, #32
    1e5c:	d103      	bne	1e66 <parse_command+0x1a>
    1e5e:	3401      	add	r4, #1
    1e60:	7823      	ldrb	r3, [r4, #0]
    1e62:	2b20      	cmp	r3, #32
    1e64:	d0fb      	beq	1e5e <parse_command+0x12>
    1e66:	2b00      	cmp	r3, #0
    1e68:	d102      	bne	1e70 <parse_command+0x24>
    1e6a:	603c      	str	r4, [r7, #0]
    1e6c:	2000      	mov	r0, #0
    1e6e:	e041      	b	1ef4 <parse_command+0xa8>
    1e70:	4643      	mov	r3, r8
    1e72:	681d      	ldr	r5, [r3, #0]
    1e74:	2d00      	cmp	r5, #0
    1e76:	d03c      	beq	1ef2 <parse_command+0xa6>
    1e78:	2600      	mov	r6, #0
    1e7a:	6868      	ldr	r0, [r5, #4]
    1e7c:	1c21      	mov	r1, r4		(add r1, r4, #0)
    1e7e:	ffc9f7ff 	bl	1e14 <strstart>
    1e82:	2801      	cmp	r0, #1
    1e84:	d113      	bne	1eae <parse_command+0x62>
    1e86:	7823      	ldrb	r3, [r4, #0]
    1e88:	2b00      	cmp	r3, #0
    1e8a:	d00b      	beq	1ea4 <parse_command+0x58>
    1e8c:	2b20      	cmp	r3, #32
    1e8e:	d005      	beq	1e9c <parse_command+0x50>
    1e90:	3401      	add	r4, #1
    1e92:	7823      	ldrb	r3, [r4, #0]
    1e94:	2b00      	cmp	r3, #0
    1e96:	d005      	beq	1ea4 <parse_command+0x58>
    1e98:	2b20      	cmp	r3, #32
    1e9a:	d1f9      	bne	1e90 <parse_command+0x44>
    1e9c:	3401      	add	r4, #1
    1e9e:	7823      	ldrb	r3, [r4, #0]
    1ea0:	2b20      	cmp	r3, #32
    1ea2:	d0fb      	beq	1e9c <parse_command+0x50>
    1ea4:	603c      	str	r4, [r7, #0]
    1ea6:	4643      	mov	r3, r8
    1ea8:	601d      	str	r5, [r3, #0]
    1eaa:	2004      	mov	r0, #4
    1eac:	e022      	b	1ef4 <parse_command+0xa8>
    1eae:	2802      	cmp	r0, #2
    1eb0:	d102      	bne	1eb8 <parse_command+0x6c>
    1eb2:	2e00      	cmp	r6, #0
    1eb4:	d119      	bne	1eea <parse_command+0x9e>
    1eb6:	1c2e      	mov	r6, r5		(add r6, r5, #0)
    1eb8:	69ad      	ldr	r5, [r5, #24]
    1eba:	2d00      	cmp	r5, #0
    1ebc:	d1dd      	bne	1e7a <parse_command+0x2e>
    1ebe:	2e00      	cmp	r6, #0
    1ec0:	d017      	beq	1ef2 <parse_command+0xa6>
    1ec2:	7823      	ldrb	r3, [r4, #0]
    1ec4:	2b00      	cmp	r3, #0
    1ec6:	d00b      	beq	1ee0 <parse_command+0x94>
    1ec8:	2b20      	cmp	r3, #32
    1eca:	d005      	beq	1ed8 <parse_command+0x8c>
    1ecc:	3401      	add	r4, #1
    1ece:	7823      	ldrb	r3, [r4, #0]
    1ed0:	2b00      	cmp	r3, #0
    1ed2:	d005      	beq	1ee0 <parse_command+0x94>
    1ed4:	2b20      	cmp	r3, #32
    1ed6:	d1f9      	bne	1ecc <parse_command+0x80>
    1ed8:	3401      	add	r4, #1
    1eda:	7823      	ldrb	r3, [r4, #0]
    1edc:	2b20      	cmp	r3, #32
    1ede:	d0fb      	beq	1ed8 <parse_command+0x8c>
    1ee0:	4643      	mov	r3, r8
    1ee2:	601e      	str	r6, [r3, #0]
    1ee4:	603c      	str	r4, [r7, #0]
    1ee6:	2004      	mov	r0, #4
    1ee8:	e004      	b	1ef4 <parse_command+0xa8>
    1eea:	4643      	mov	r3, r8
    1eec:	601e      	str	r6, [r3, #0]
    1eee:	2005      	mov	r0, #5
    1ef0:	e000      	b	1ef4 <parse_command+0xa8>
    1ef2:	2003      	mov	r0, #3
    1ef4:	bc04      	pop	{r2}
    1ef6:	4690      	mov	r8, r2
    1ef8:	bcf0      	pop	{r4, r5, r6, r7}
    1efa:	bc02      	pop	{r1}
    1efc:	4708      	bx	r1
	...

00001f00 <tinysh_add_command>:
    1f00:	6803      	ldr	r3, [r0, #0]
    1f02:	2b00      	cmp	r3, #0
    1f04:	d00a      	beq	1f1c <tinysh_add_command+0x1c>
    1f06:	69da      	ldr	r2, [r3, #28]
    1f08:	2a00      	cmp	r2, #0
    1f0a:	d102      	bne	1f12 <tinysh_add_command+0x12>
    1f0c:	61d8      	str	r0, [r3, #28]
    1f0e:	e010      	b	1f32 <tinysh_add_command+0x32>
    1f10:	1c1a      	mov	r2, r3		(add r2, r3, #0)
    1f12:	6993      	ldr	r3, [r2, #24]
    1f14:	2b00      	cmp	r3, #0
    1f16:	d1fb      	bne	1f10 <tinysh_add_command+0x10>
    1f18:	6190      	str	r0, [r2, #24]
    1f1a:	e00a      	b	1f32 <tinysh_add_command+0x32>
    1f1c:	4b05      	ldr	r3, [pc, #20]	(1f34 <prog+0x1ef0>)
    1f1e:	681a      	ldr	r2, [r3, #0]
    1f20:	2a00      	cmp	r2, #0
    1f22:	d102      	bne	1f2a <tinysh_add_command+0x2a>
    1f24:	6018      	str	r0, [r3, #0]
    1f26:	e004      	b	1f32 <tinysh_add_command+0x32>
    1f28:	1c1a      	mov	r2, r3		(add r2, r3, #0)
    1f2a:	6993      	ldr	r3, [r2, #24]
    1f2c:	2b00      	cmp	r3, #0
    1f2e:	d1fb      	bne	1f28 <tinysh_add_command+0x28>
    1f30:	6190      	str	r0, [r2, #24]
    1f32:	4770      	bx	lr
    1f34:	0018      	lsl	r0, r3, #0
    1f36:	4000      	and	r0, r0

00001f38 <tinysh_set_prompt>:
    1f38:	7803      	ldrb	r3, [r0, #0]
    1f3a:	2b00      	cmp	r3, #0
    1f3c:	d101      	bne	1f42 <tinysh_set_prompt+0xa>
    1f3e:	2100      	mov	r1, #0
    1f40:	e008      	b	1f54 <tinysh_set_prompt+0x1c>
    1f42:	2100      	mov	r1, #0
    1f44:	4a05      	ldr	r2, [pc, #20]	(1f5c <prog+0x1f18>)
    1f46:	548b      	strb	r3, [r1, r2]
    1f48:	3101      	add	r1, #1
    1f4a:	5c0b      	ldrb	r3, [r1, r0]
    1f4c:	2b00      	cmp	r3, #0
    1f4e:	d001      	beq	1f54 <tinysh_set_prompt+0x1c>
    1f50:	2910      	cmp	r1, #16
    1f52:	d1f8      	bne	1f46 <tinysh_set_prompt+0xe>
    1f54:	4a01      	ldr	r2, [pc, #4]	(1f5c <prog+0x1f18>)
    1f56:	2300      	mov	r3, #0
    1f58:	5453      	strb	r3, [r2, r1]
    1f5a:	4770      	bx	lr
    1f5c:	0004      	lsl	r4, r0, #0
    1f5e:	4000      	and	r0, r0

00001f60 <tinysh_get_arg>:
    1f60:	4b01      	ldr	r3, [pc, #4]	(1f68 <prog+0x1f24>)
    1f62:	6818      	ldr	r0, [r3, #0]
    1f64:	4770      	bx	lr
    1f66:	0000      	lsl	r0, r0, #0
    1f68:	5ce0      	ldrb	r0, [r4, r3]
    1f6a:	4000      	and	r0, r0

00001f6c <tinysh_atoxi>:
    1f6c:	b510      	push	{r4, lr}
    1f6e:	1c01      	mov	r1, r0		(add r1, r0, #0)
    1f70:	7802      	ldrb	r2, [r0, #0]
    1f72:	2a00      	cmp	r2, #0
    1f74:	d031      	beq	1fda <tinysh_atoxi+0x6e>
    1f76:	2a30      	cmp	r2, #48
    1f78:	d131      	bne	1fde <tinysh_atoxi+0x72>
    1f7a:	7843      	ldrb	r3, [r0, #1]
    1f7c:	2b78      	cmp	r3, #120
    1f7e:	d12e      	bne	1fde <tinysh_atoxi+0x72>
    1f80:	3102      	add	r1, #2
    1f82:	780a      	ldrb	r2, [r1, #0]
    1f84:	2a00      	cmp	r2, #0
    1f86:	d028      	beq	1fda <tinysh_atoxi+0x6e>
    1f88:	2401      	mov	r4, #1
    1f8a:	e029      	b	1fe0 <tinysh_atoxi+0x74>
    1f8c:	2c00      	cmp	r4, #0
    1f8e:	d001      	beq	1f94 <tinysh_atoxi+0x28>
    1f90:	0100      	lsl	r0, r0, #4
    1f92:	e002      	b	1f9a <tinysh_atoxi+0x2e>
    1f94:	0083      	lsl	r3, r0, #2
    1f96:	181b      	add	r3, r3, r0
    1f98:	0058      	lsl	r0, r3, #1
    1f9a:	1c13      	mov	r3, r2		(add r3, r2, #0)
    1f9c:	3b30      	sub	r3, #48
    1f9e:	061b      	lsl	r3, r3, #24
    1fa0:	0e1b      	lsr	r3, r3, #24
    1fa2:	2b09      	cmp	r3, #9
    1fa4:	d803      	bhi	1fae <tinysh_atoxi+0x42>
    1fa6:	1883      	add	r3, r0, r2
    1fa8:	1c18      	mov	r0, r3		(add r0, r3, #0)
    1faa:	3830      	sub	r0, #48
    1fac:	e010      	b	1fd0 <tinysh_atoxi+0x64>
    1fae:	2c00      	cmp	r4, #0
    1fb0:	d018      	beq	1fe4 <tinysh_atoxi+0x78>
    1fb2:	2a60      	cmp	r2, #96
    1fb4:	d905      	bls	1fc2 <tinysh_atoxi+0x56>
    1fb6:	2a66      	cmp	r2, #102
    1fb8:	d814      	bhi	1fe4 <tinysh_atoxi+0x78>
    1fba:	1883      	add	r3, r0, r2
    1fbc:	1c18      	mov	r0, r3		(add r0, r3, #0)
    1fbe:	3857      	sub	r0, #87
    1fc0:	e006      	b	1fd0 <tinysh_atoxi+0x64>
    1fc2:	2a40      	cmp	r2, #64
    1fc4:	d90e      	bls	1fe4 <tinysh_atoxi+0x78>
    1fc6:	2a46      	cmp	r2, #70
    1fc8:	d80c      	bhi	1fe4 <tinysh_atoxi+0x78>
    1fca:	1883      	add	r3, r0, r2
    1fcc:	1c18      	mov	r0, r3		(add r0, r3, #0)
    1fce:	3837      	sub	r0, #55
    1fd0:	3101      	add	r1, #1
    1fd2:	780a      	ldrb	r2, [r1, #0]
    1fd4:	2a00      	cmp	r2, #0
    1fd6:	d005      	beq	1fe4 <tinysh_atoxi+0x78>
    1fd8:	e7d8      	b	1f8c <tinysh_atoxi+0x20>
    1fda:	2000      	mov	r0, #0
    1fdc:	e002      	b	1fe4 <tinysh_atoxi+0x78>
    1fde:	2400      	mov	r4, #0
    1fe0:	2000      	mov	r0, #0
    1fe2:	e7d3      	b	1f8c <tinysh_atoxi+0x20>
    1fe4:	bc10      	pop	{r4}
    1fe6:	bc02      	pop	{r1}
    1fe8:	4708      	bx	r1
	...

00001fec <puts>:
    1fec:	b530      	push	{r4, r5, lr}
    1fee:	1c04      	mov	r4, r0		(add r4, r0, #0)
    1ff0:	7801      	ldrb	r1, [r0, #0]
    1ff2:	2900      	cmp	r1, #0
    1ff4:	d008      	beq	2008 <puts+0x1c>
    1ff6:	4d06      	ldr	r5, [pc, #24]	(2010 <prog+0x1fcc>)
    1ff8:	3401      	add	r4, #1
    1ffa:	2001      	mov	r0, #1
    1ffc:	1c2a      	mov	r2, r5		(add r2, r5, #0)
    1ffe:	fec9f7fe 	bl	d94 <xSerialPutChar>
    2002:	7821      	ldrb	r1, [r4, #0]
    2004:	2900      	cmp	r1, #0
    2006:	d1f7      	bne	1ff8 <puts+0xc>
    2008:	bc30      	pop	{r4, r5}
    200a:	bc01      	pop	{r0}
    200c:	4700      	bx	r0
    200e:	0000      	lsl	r0, r0, #0
    2010:	2710      	mov	r7, #16
	...

00002014 <start_of_line>:
    2014:	b500      	push	{lr}
    2016:	4809      	ldr	r0, [pc, #36]	(203c <prog+0x1ff8>)
    2018:	ffe8f7ff 	bl	1fec <puts>
    201c:	4b08      	ldr	r3, [pc, #32]	(2040 <prog+0x1ffc>)
    201e:	681b      	ldr	r3, [r3, #0]
    2020:	2b00      	cmp	r3, #0
    2022:	d005      	beq	2030 <start_of_line+0x1c>
    2024:	4807      	ldr	r0, [pc, #28]	(2044 <prog+0x2000>)
    2026:	ffe1f7ff 	bl	1fec <puts>
    202a:	4807      	ldr	r0, [pc, #28]	(2048 <prog+0x2004>)
    202c:	ffdef7ff 	bl	1fec <puts>
    2030:	4a06      	ldr	r2, [pc, #24]	(204c <prog+0x2008>)
    2032:	2300      	mov	r3, #0
    2034:	6013      	str	r3, [r2, #0]
    2036:	bc01      	pop	{r0}
    2038:	4700      	bx	r0
    203a:	0000      	lsl	r0, r0, #0
    203c:	0004      	lsl	r4, r0, #0
    203e:	4000      	and	r0, r0
    2040:	5ef4      	ldrsh	r4, [r6, r3]
    2042:	4000      	and	r0, r0
    2044:	5f79      	ldrsh	r1, [r7, r5]
    2046:	4000      	and	r0, r0
    2048:	31dc      	add	r1, #220
    204a:	0001      	lsl	r1, r0, #0
    204c:	5ef0      	ldrsh	r0, [r6, r3]
    204e:	4000      	and	r0, r0

00002050 <tinysh_char_in>:
    2050:	b5f0      	push	{r4, r5, r6, r7, lr}
    2052:	465f      	mov	r7, fp
    2054:	4656      	mov	r6, sl
    2056:	464d      	mov	r5, r9
    2058:	4644      	mov	r4, r8
    205a:	b4f0      	push	{r4, r5, r6, r7}
    205c:	b08c      	sub	sp, #48
    205e:	0600      	lsl	r0, r0, #24
    2060:	0e04      	lsr	r4, r0, #24
    2062:	4bc3      	ldr	r3, [pc, #780]	(2370 <prog+0x232c>)
    2064:	6819      	ldr	r1, [r3, #0]
    2066:	01cb      	lsl	r3, r1, #7
    2068:	185b      	add	r3, r3, r1
    206a:	4ac2      	ldr	r2, [pc, #776]	(2374 <prog+0x2330>)
    206c:	189d      	add	r5, r3, r2
    206e:	2c0a      	cmp	r4, #10
    2070:	d002      	beq	2078 <tinysh_char_in+0x28>
    2072:	2c0d      	cmp	r4, #13
    2074:	d000      	beq	2078 <tinysh_char_in+0x28>
    2076:	e0b9      	b	21ec <tinysh_char_in+0x19c>
    2078:	4bbf      	ldr	r3, [pc, #764]	(2378 <prog+0x2334>)
    207a:	681b      	ldr	r3, [r3, #0]
    207c:	2b00      	cmp	r3, #0
    207e:	d004      	beq	208a <tinysh_char_in+0x3a>
    2080:	2001      	mov	r0, #1
    2082:	1c21      	mov	r1, r4		(add r1, r4, #0)
    2084:	4abd      	ldr	r2, [pc, #756]	(237c <prog+0x2338>)
    2086:	fe85f7fe 	bl	d94 <xSerialPutChar>
    208a:	782b      	ldrb	r3, [r5, #0]
    208c:	2b20      	cmp	r3, #32
    208e:	d103      	bne	2098 <tinysh_char_in+0x48>
    2090:	3501      	add	r5, #1
    2092:	782b      	ldrb	r3, [r5, #0]
    2094:	2b20      	cmp	r3, #32
    2096:	d0fb      	beq	2090 <tinysh_char_in+0x40>
    2098:	2b00      	cmp	r3, #0
    209a:	d100      	bne	209e <tinysh_char_in+0x4e>
    209c:	e0a3      	b	21e6 <tinysh_char_in+0x196>
    209e:	4bb8      	ldr	r3, [pc, #736]	(2380 <prog+0x233c>)
    20a0:	681b      	ldr	r3, [r3, #0]
    20a2:	2b00      	cmp	r3, #0
    20a4:	d001      	beq	20aa <tinysh_char_in+0x5a>
    20a6:	69db      	ldr	r3, [r3, #28]
    20a8:	e001      	b	20ae <tinysh_char_in+0x5e>
    20aa:	4bb6      	ldr	r3, [pc, #728]	(2384 <prog+0x2340>)
    20ac:	681b      	ldr	r3, [r3, #0]
    20ae:	930a      	str	r3, [sp, #40]
    20b0:	950b      	str	r5, [sp, #44]
    20b2:	4fb5      	ldr	r7, [pc, #724]	(2388 <prog+0x2344>)
    20b4:	4eb5      	ldr	r6, [pc, #724]	(238c <prog+0x2348>)
    20b6:	a80a      	add	r0, sp, #40
    20b8:	a90b      	add	r1, sp, #44
    20ba:	fec7f7ff 	bl	1e4c <parse_command>
    20be:	2804      	cmp	r0, #4
    20c0:	d160      	bne	2184 <tinysh_char_in+0x134>
    20c2:	9c0a      	ldr	r4, [sp, #40]
    20c4:	2c00      	cmp	r4, #0
    20c6:	d078      	beq	21ba <tinysh_char_in+0x16a>
    20c8:	69e2      	ldr	r2, [r4, #28]
    20ca:	2a00      	cmp	r2, #0
    20cc:	d13d      	bne	214a <tinysh_char_in+0xfa>
    20ce:	980b      	ldr	r0, [sp, #44]
    20d0:	1c39      	mov	r1, r7		(add r1, r7, #0)
    20d2:	5c13      	ldrb	r3, [r2, r0]
    20d4:	5453      	strb	r3, [r2, r1]
    20d6:	3201      	add	r2, #1
    20d8:	2a80      	cmp	r2, #128
    20da:	d1fa      	bne	20d2 <tinysh_char_in+0x82>
    20dc:	6863      	ldr	r3, [r4, #4]
    20de:	9301      	str	r3, [sp, #4]
    20e0:	780b      	ldrb	r3, [r1, #0]
    20e2:	2b00      	cmp	r3, #0
    20e4:	d026      	beq	2134 <tinysh_char_in+0xe4>
    20e6:	2001      	mov	r0, #1
    20e8:	e020      	b	212c <tinysh_char_in+0xdc>
    20ea:	3101      	add	r1, #1
    20ec:	780b      	ldrb	r3, [r1, #0]
    20ee:	2b20      	cmp	r3, #32
    20f0:	d0fb      	beq	20ea <tinysh_char_in+0x9a>
    20f2:	2b00      	cmp	r3, #0
    20f4:	d01f      	beq	2136 <tinysh_char_in+0xe6>
    20f6:	0083      	lsl	r3, r0, #2
    20f8:	aa01      	add	r2, sp, #4
    20fa:	5099      	str	r1, [r3, r2]
    20fc:	3001      	add	r0, #1
    20fe:	780b      	ldrb	r3, [r1, #0]
    2100:	2b00      	cmp	r3, #0
    2102:	d018      	beq	2136 <tinysh_char_in+0xe6>
    2104:	1c4a      	add	r2, r1, #1
    2106:	784b      	ldrb	r3, [r1, #1]
    2108:	2b20      	cmp	r3, #32
    210a:	d104      	bne	2116 <tinysh_char_in+0xc6>
    210c:	e006      	b	211c <tinysh_char_in+0xcc>
    210e:	3201      	add	r2, #1
    2110:	7813      	ldrb	r3, [r2, #0]
    2112:	2b20      	cmp	r3, #32
    2114:	d002      	beq	211c <tinysh_char_in+0xcc>
    2116:	2b00      	cmp	r3, #0
    2118:	d1f9      	bne	210e <tinysh_char_in+0xbe>
    211a:	e00c      	b	2136 <tinysh_char_in+0xe6>
    211c:	2300      	mov	r3, #0
    211e:	7013      	strb	r3, [r2, #0]
    2120:	1c51      	add	r1, r2, #1
    2122:	7853      	ldrb	r3, [r2, #1]
    2124:	2b00      	cmp	r3, #0
    2126:	d006      	beq	2136 <tinysh_char_in+0xe6>
    2128:	2809      	cmp	r0, #9
    212a:	d004      	beq	2136 <tinysh_char_in+0xe6>
    212c:	780b      	ldrb	r3, [r1, #0]
    212e:	2b20      	cmp	r3, #32
    2130:	d0db      	beq	20ea <tinysh_char_in+0x9a>
    2132:	e7de      	b	20f2 <tinysh_char_in+0xa2>
    2134:	2001      	mov	r0, #1
    2136:	6925      	ldr	r5, [r4, #16]
    2138:	2d00      	cmp	r5, #0
    213a:	d03e      	beq	21ba <tinysh_char_in+0x16a>
    213c:	4a94      	ldr	r2, [pc, #592]	(2390 <prog+0x234c>)
    213e:	6963      	ldr	r3, [r4, #20]
    2140:	6013      	str	r3, [r2, #0]
    2142:	a901      	add	r1, sp, #4
    2144:	fa30f000 	bl	25a8 <prog+0x2564>
    2148:	e037      	b	21ba <tinysh_char_in+0x16a>
    214a:	9b0b      	ldr	r3, [sp, #44]
    214c:	781b      	ldrb	r3, [r3, #0]
    214e:	2b00      	cmp	r3, #0
    2150:	d116      	bne	2180 <tinysh_char_in+0x130>
    2152:	7829      	ldrb	r1, [r5, #0]
    2154:	2900      	cmp	r1, #0
    2156:	d00c      	beq	2172 <tinysh_char_in+0x122>
    2158:	6832      	ldr	r2, [r6, #0]
    215a:	1c50      	add	r0, r2, #1
    215c:	4b8d      	ldr	r3, [pc, #564]	(2394 <prog+0x2350>)
    215e:	18d2      	add	r2, r2, r3
    2160:	7011      	strb	r1, [r2, #0]
    2162:	3501      	add	r5, #1
    2164:	7829      	ldrb	r1, [r5, #0]
    2166:	3001      	add	r0, #1
    2168:	3201      	add	r2, #1
    216a:	2900      	cmp	r1, #0
    216c:	d1f8      	bne	2160 <tinysh_char_in+0x110>
    216e:	1e43      	sub	r3, r0, #1
    2170:	6033      	str	r3, [r6, #0]
    2172:	4988      	ldr	r1, [pc, #544]	(2394 <prog+0x2350>)
    2174:	6832      	ldr	r2, [r6, #0]
    2176:	2300      	mov	r3, #0
    2178:	548b      	strb	r3, [r1, r2]
    217a:	4b81      	ldr	r3, [pc, #516]	(2380 <prog+0x233c>)
    217c:	601c      	str	r4, [r3, #0]
    217e:	e01c      	b	21ba <tinysh_char_in+0x16a>
    2180:	920a      	str	r2, [sp, #40]
    2182:	e798      	b	20b6 <tinysh_char_in+0x66>
    2184:	2805      	cmp	r0, #5
    2186:	d10b      	bne	21a0 <tinysh_char_in+0x150>
    2188:	4883      	ldr	r0, [pc, #524]	(2398 <prog+0x2354>)
    218a:	ff2ff7ff 	bl	1fec <puts>
    218e:	980b      	ldr	r0, [sp, #44]
    2190:	ff2cf7ff 	bl	1fec <puts>
    2194:	2001      	mov	r0, #1
    2196:	210a      	mov	r1, #10
    2198:	4a78      	ldr	r2, [pc, #480]	(237c <prog+0x2338>)
    219a:	fdfbf7fe 	bl	d94 <xSerialPutChar>
    219e:	e00c      	b	21ba <tinysh_char_in+0x16a>
    21a0:	2803      	cmp	r0, #3
    21a2:	d10a      	bne	21ba <tinysh_char_in+0x16a>
    21a4:	487d      	ldr	r0, [pc, #500]	(239c <prog+0x2358>)
    21a6:	ff21f7ff 	bl	1fec <puts>
    21aa:	980b      	ldr	r0, [sp, #44]
    21ac:	ff1ef7ff 	bl	1fec <puts>
    21b0:	2001      	mov	r0, #1
    21b2:	210a      	mov	r1, #10
    21b4:	4a71      	ldr	r2, [pc, #452]	(237c <prog+0x2338>)
    21b6:	fdedf7fe 	bl	d94 <xSerialPutChar>
    21ba:	4b6d      	ldr	r3, [pc, #436]	(2370 <prog+0x232c>)
    21bc:	681b      	ldr	r3, [r3, #0]
    21be:	3301      	add	r3, #1
    21c0:	4a77      	ldr	r2, [pc, #476]	(23a0 <prog+0x235c>)
    21c2:	1c18      	mov	r0, r3		(add r0, r3, #0)
    21c4:	4010      	and	r0, r2
    21c6:	2800      	cmp	r0, #0
    21c8:	da04      	bge	21d4 <tinysh_char_in+0x184>
    21ca:	3801      	sub	r0, #1
    21cc:	2304      	mov	r3, #4
    21ce:	425b      	neg	r3, r3
    21d0:	4318      	orr	r0, r3
    21d2:	3001      	add	r0, #1
    21d4:	4b66      	ldr	r3, [pc, #408]	(2370 <prog+0x232c>)
    21d6:	6018      	str	r0, [r3, #0]
    21d8:	4b72      	ldr	r3, [pc, #456]	(23a4 <prog+0x2360>)
    21da:	2100      	mov	r1, #0
    21dc:	6019      	str	r1, [r3, #0]
    21de:	4a65      	ldr	r2, [pc, #404]	(2374 <prog+0x2330>)
    21e0:	01c3      	lsl	r3, r0, #7
    21e2:	181b      	add	r3, r3, r0
    21e4:	5499      	strb	r1, [r3, r2]
    21e6:	ff15f7ff 	bl	2014 <start_of_line>
    21ea:	e1ac      	b	2546 <prog+0x2502>
    21ec:	2c2f      	cmp	r4, #47
    21ee:	d10e      	bne	220e <tinysh_char_in+0x1be>
    21f0:	4b61      	ldr	r3, [pc, #388]	(2378 <prog+0x2334>)
    21f2:	681b      	ldr	r3, [r3, #0]
    21f4:	2b00      	cmp	r3, #0
    21f6:	d004      	beq	2202 <tinysh_char_in+0x1b2>
    21f8:	2001      	mov	r0, #1
    21fa:	212f      	mov	r1, #47
    21fc:	4a5f      	ldr	r2, [pc, #380]	(237c <prog+0x2338>)
    21fe:	fdc9f7fe 	bl	d94 <xSerialPutChar>
    2202:	4b62      	ldr	r3, [pc, #392]	(238c <prog+0x2348>)
    2204:	2200      	mov	r2, #0
    2206:	601a      	str	r2, [r3, #0]
    2208:	4b5d      	ldr	r3, [pc, #372]	(2380 <prog+0x233c>)
    220a:	601a      	str	r2, [r3, #0]
    220c:	e19b      	b	2546 <prog+0x2502>
    220e:	2c08      	cmp	r4, #8
    2210:	d001      	beq	2216 <tinysh_char_in+0x1c6>
    2212:	2c7f      	cmp	r4, #127
    2214:	d10d      	bne	2232 <tinysh_char_in+0x1e2>
    2216:	4c63      	ldr	r4, [pc, #396]	(23a4 <prog+0x2360>)
    2218:	6823      	ldr	r3, [r4, #0]
    221a:	2b00      	cmp	r3, #0
    221c:	dc00      	bgt	2220 <tinysh_char_in+0x1d0>
    221e:	e192      	b	2546 <prog+0x2502>
    2220:	4861      	ldr	r0, [pc, #388]	(23a8 <prog+0x2364>)
    2222:	fee3f7ff 	bl	1fec <puts>
    2226:	6823      	ldr	r3, [r4, #0]
    2228:	3b01      	sub	r3, #1
    222a:	6023      	str	r3, [r4, #0]
    222c:	2200      	mov	r2, #0
    222e:	54ea      	strb	r2, [r5, r3]
    2230:	e189      	b	2546 <prog+0x2502>
    2232:	2c10      	cmp	r4, #16
    2234:	d133      	bne	229e <tinysh_char_in+0x24e>
    2236:	1cca      	add	r2, r1, #3
    2238:	4b59      	ldr	r3, [pc, #356]	(23a0 <prog+0x235c>)
    223a:	401a      	and	r2, r3
    223c:	2a00      	cmp	r2, #0
    223e:	da04      	bge	224a <tinysh_char_in+0x1fa>
    2240:	3a01      	sub	r2, #1
    2242:	2304      	mov	r3, #4
    2244:	425b      	neg	r3, r3
    2246:	431a      	orr	r2, r3
    2248:	3201      	add	r2, #1
    224a:	4690      	mov	r8, r2
    224c:	4a49      	ldr	r2, [pc, #292]	(2374 <prog+0x2330>)
    224e:	4641      	mov	r1, r8
    2250:	01cb      	lsl	r3, r1, #7
    2252:	1858      	add	r0, r3, r1
    2254:	5c83      	ldrb	r3, [r0, r2]
    2256:	2b00      	cmp	r3, #0
    2258:	d100      	bne	225c <tinysh_char_in+0x20c>
    225a:	e174      	b	2546 <prog+0x2502>
    225c:	1886      	add	r6, r0, r2
    225e:	4d51      	ldr	r5, [pc, #324]	(23a4 <prog+0x2360>)
    2260:	4f51      	ldr	r7, [pc, #324]	(23a8 <prog+0x2364>)
    2262:	e002      	b	226a <tinysh_char_in+0x21a>
    2264:	1c38      	mov	r0, r7		(add r0, r7, #0)
    2266:	fec1f7ff 	bl	1fec <puts>
    226a:	682c      	ldr	r4, [r5, #0]
    226c:	1c30      	mov	r0, r6		(add r0, r6, #0)
    226e:	fdc5f7ff 	bl	1dfc <tinysh_strlen>
    2272:	1e63      	sub	r3, r4, #1
    2274:	602b      	str	r3, [r5, #0]
    2276:	4284      	cmp	r4, r0
    2278:	dcf4      	bgt	2264 <tinysh_char_in+0x214>
    227a:	2001      	mov	r0, #1
    227c:	210d      	mov	r1, #13
    227e:	4a3f      	ldr	r2, [pc, #252]	(237c <prog+0x2338>)
    2280:	fd88f7fe 	bl	d94 <xSerialPutChar>
    2284:	fec6f7ff 	bl	2014 <start_of_line>
    2288:	1c30      	mov	r0, r6		(add r0, r6, #0)
    228a:	feaff7ff 	bl	1fec <puts>
    228e:	1c30      	mov	r0, r6		(add r0, r6, #0)
    2290:	fdb4f7ff 	bl	1dfc <tinysh_strlen>
    2294:	6028      	str	r0, [r5, #0]
    2296:	4b36      	ldr	r3, [pc, #216]	(2370 <prog+0x232c>)
    2298:	4642      	mov	r2, r8
    229a:	601a      	str	r2, [r3, #0]
    229c:	e153      	b	2546 <prog+0x2502>
    229e:	2c0e      	cmp	r4, #14
    22a0:	d133      	bne	230a <tinysh_char_in+0x2ba>
    22a2:	1c4a      	add	r2, r1, #1
    22a4:	4b3e      	ldr	r3, [pc, #248]	(23a0 <prog+0x235c>)
    22a6:	401a      	and	r2, r3
    22a8:	2a00      	cmp	r2, #0
    22aa:	da04      	bge	22b6 <tinysh_char_in+0x266>
    22ac:	3a01      	sub	r2, #1
    22ae:	2304      	mov	r3, #4
    22b0:	425b      	neg	r3, r3
    22b2:	431a      	orr	r2, r3
    22b4:	3201      	add	r2, #1
    22b6:	4690      	mov	r8, r2
    22b8:	4a2e      	ldr	r2, [pc, #184]	(2374 <prog+0x2330>)
    22ba:	4644      	mov	r4, r8
    22bc:	01e3      	lsl	r3, r4, #7
    22be:	1918      	add	r0, r3, r4
    22c0:	5c83      	ldrb	r3, [r0, r2]
    22c2:	2b00      	cmp	r3, #0
    22c4:	d100      	bne	22c8 <tinysh_char_in+0x278>
    22c6:	e13e      	b	2546 <prog+0x2502>
    22c8:	1886      	add	r6, r0, r2
    22ca:	4d36      	ldr	r5, [pc, #216]	(23a4 <prog+0x2360>)
    22cc:	4f36      	ldr	r7, [pc, #216]	(23a8 <prog+0x2364>)
    22ce:	e002      	b	22d6 <tinysh_char_in+0x286>
    22d0:	1c38      	mov	r0, r7		(add r0, r7, #0)
    22d2:	fe8bf7ff 	bl	1fec <puts>
    22d6:	682c      	ldr	r4, [r5, #0]
    22d8:	1c30      	mov	r0, r6		(add r0, r6, #0)
    22da:	fd8ff7ff 	bl	1dfc <tinysh_strlen>
    22de:	1e63      	sub	r3, r4, #1
    22e0:	602b      	str	r3, [r5, #0]
    22e2:	4284      	cmp	r4, r0
    22e4:	dcf4      	bgt	22d0 <tinysh_char_in+0x280>
    22e6:	2001      	mov	r0, #1
    22e8:	210d      	mov	r1, #13
    22ea:	4a24      	ldr	r2, [pc, #144]	(237c <prog+0x2338>)
    22ec:	fd52f7fe 	bl	d94 <xSerialPutChar>
    22f0:	fe90f7ff 	bl	2014 <start_of_line>
    22f4:	1c30      	mov	r0, r6		(add r0, r6, #0)
    22f6:	fe79f7ff 	bl	1fec <puts>
    22fa:	1c30      	mov	r0, r6		(add r0, r6, #0)
    22fc:	fd7ef7ff 	bl	1dfc <tinysh_strlen>
    2300:	6028      	str	r0, [r5, #0]
    2302:	4b1b      	ldr	r3, [pc, #108]	(2370 <prog+0x232c>)
    2304:	4641      	mov	r1, r8
    2306:	6019      	str	r1, [r3, #0]
    2308:	e11d      	b	2546 <prog+0x2502>
    230a:	2c09      	cmp	r4, #9
    230c:	d002      	beq	2314 <tinysh_char_in+0x2c4>
    230e:	2c21      	cmp	r4, #33
    2310:	d000      	beq	2314 <tinysh_char_in+0x2c4>
    2312:	e0fe      	b	2512 <prog+0x24ce>
    2314:	4b1a      	ldr	r3, [pc, #104]	(2380 <prog+0x233c>)
    2316:	681b      	ldr	r3, [r3, #0]
    2318:	2b00      	cmp	r3, #0
    231a:	d001      	beq	2320 <tinysh_char_in+0x2d0>
    231c:	69db      	ldr	r3, [r3, #28]
    231e:	e001      	b	2324 <tinysh_char_in+0x2d4>
    2320:	4b18      	ldr	r3, [pc, #96]	(2384 <prog+0x2340>)
    2322:	681b      	ldr	r3, [r3, #0]
    2324:	930b      	str	r3, [sp, #44]
    2326:	950a      	str	r5, [sp, #40]
    2328:	9a0a      	ldr	r2, [sp, #40]
    232a:	4692      	mov	sl, r2
    232c:	a80b      	add	r0, sp, #44
    232e:	a90a      	add	r1, sp, #40
    2330:	fd8cf7ff 	bl	1e4c <parse_command>
    2334:	4654      	mov	r4, sl
    2336:	7823      	ldrb	r3, [r4, #0]
    2338:	2b00      	cmp	r3, #0
    233a:	d00d      	beq	2358 <tinysh_char_in+0x308>
    233c:	2b20      	cmp	r3, #32
    233e:	d00b      	beq	2358 <tinysh_char_in+0x308>
    2340:	2100      	mov	r1, #0
    2342:	4688      	mov	r8, r1
    2344:	2201      	mov	r2, #1
    2346:	4490      	add	r8, r2
    2348:	4644      	mov	r4, r8
    234a:	4454      	add	r4, sl
    234c:	7823      	ldrb	r3, [r4, #0]
    234e:	2b00      	cmp	r3, #0
    2350:	d004      	beq	235c <tinysh_char_in+0x30c>
    2352:	2b20      	cmp	r3, #32
    2354:	d002      	beq	235c <tinysh_char_in+0x30c>
    2356:	e7f5      	b	2344 <tinysh_char_in+0x2f4>
    2358:	2100      	mov	r1, #0
    235a:	4688      	mov	r8, r1
    235c:	2804      	cmp	r0, #4
    235e:	d125      	bne	23ac <prog+0x2368>
    2360:	9b0a      	ldr	r3, [sp, #40]
    2362:	781b      	ldrb	r3, [r3, #0]
    2364:	2b00      	cmp	r3, #0
    2366:	d027      	beq	23b8 <prog+0x2374>
    2368:	9b0b      	ldr	r3, [sp, #44]
    236a:	69db      	ldr	r3, [r3, #28]
    236c:	930b      	str	r3, [sp, #44]
    236e:	e7db      	b	2328 <tinysh_char_in+0x2d8>
    2370:	5ce4      	ldrb	r4, [r4, r3]
    2372:	4000      	and	r0, r0
    2374:	5ce8      	ldrb	r0, [r5, r3]
    2376:	4000      	and	r0, r0
    2378:	0e60      	lsr	r0, r4, #25
    237a:	0001      	lsl	r1, r0, #0
    237c:	2710      	mov	r7, #16
    237e:	0000      	lsl	r0, r0, #0
    2380:	5eec      	ldrsh	r4, [r5, r3]
    2382:	4000      	and	r0, r0
    2384:	0018      	lsl	r0, r3, #0
    2386:	4000      	and	r0, r0
    2388:	5ef8      	ldrsh	r0, [r7, r3]
    238a:	4000      	and	r0, r0
    238c:	5ef4      	ldrsh	r4, [r6, r3]
    238e:	4000      	and	r0, r0
    2390:	5ce0      	ldrb	r0, [r4, r3]
    2392:	4000      	and	r0, r0
    2394:	5f79      	ldrsh	r1, [r7, r5]
    2396:	4000      	and	r0, r0
    2398:	31e0      	add	r1, #224
    239a:	0001      	lsl	r1, r0, #0
    239c:	31ec      	add	r1, #236
    239e:	0001      	lsl	r1, r0, #0
    23a0:	0003      	lsl	r3, r0, #0
    23a2:	8000      	strh	r0, [r0, #0]
    23a4:	5ef0      	ldrsh	r0, [r6, r3]
    23a6:	4000      	and	r0, r0
    23a8:	31f8      	add	r1, #248
    23aa:	0001      	lsl	r1, r0, #0
    23ac:	1f03      	sub	r3, r0, #4
    23ae:	2b01      	cmp	r3, #1
    23b0:	d902      	bls	23b8 <prog+0x2374>
    23b2:	2800      	cmp	r0, #0
    23b4:	d000      	beq	23b8 <prog+0x2374>
    23b6:	e0a6      	b	2506 <prog+0x24c2>
    23b8:	9f0b      	ldr	r7, [sp, #44]
    23ba:	2f00      	cmp	r7, #0
    23bc:	d100      	bne	23c0 <prog+0x237c>
    23be:	e0a2      	b	2506 <prog+0x24c2>
    23c0:	2280      	mov	r2, #128
    23c2:	4691      	mov	r9, r2
    23c4:	2300      	mov	r3, #0
    23c6:	469b      	mov	fp, r3
    23c8:	9300      	str	r3, [sp, #0]
    23ca:	6878      	ldr	r0, [r7, #4]
    23cc:	4651      	mov	r1, sl
    23ce:	fd21f7ff 	bl	1e14 <strstart>
    23d2:	2801      	cmp	r0, #1
    23d4:	d128      	bne	2428 <prog+0x23e4>
    23d6:	9b0b      	ldr	r3, [sp, #44]
    23d8:	685b      	ldr	r3, [r3, #4]
    23da:	4644      	mov	r4, r8
    23dc:	5d18      	ldrb	r0, [r3, r4]
    23de:	2800      	cmp	r0, #0
    23e0:	d009      	beq	23f6 <prog+0x23b2>
    23e2:	fe35f7ff 	bl	2050 <tinysh_char_in>
    23e6:	2101      	mov	r1, #1
    23e8:	4488      	add	r8, r1
    23ea:	9b0b      	ldr	r3, [sp, #44]
    23ec:	685b      	ldr	r3, [r3, #4]
    23ee:	4642      	mov	r2, r8
    23f0:	5c98      	ldrb	r0, [r3, r2]
    23f2:	2800      	cmp	r0, #0
    23f4:	d1f5      	bne	23e2 <prog+0x239e>
    23f6:	9b0a      	ldr	r3, [sp, #40]
    23f8:	3b01      	sub	r3, #1
    23fa:	781b      	ldrb	r3, [r3, #0]
    23fc:	2b20      	cmp	r3, #32
    23fe:	d002      	beq	2406 <prog+0x23c2>
    2400:	2020      	mov	r0, #32
    2402:	fe25f7ff 	bl	2050 <tinysh_char_in>
    2406:	980b      	ldr	r0, [sp, #44]
    2408:	69c3      	ldr	r3, [r0, #28]
    240a:	2b00      	cmp	r3, #0
    240c:	d10a      	bne	2424 <prog+0x23e0>
    240e:	68c0      	ldr	r0, [r0, #12]
    2410:	2800      	cmp	r0, #0
    2412:	d078      	beq	2506 <prog+0x24c2>
    2414:	fdeaf7ff 	bl	1fec <puts>
    2418:	2001      	mov	r0, #1
    241a:	210a      	mov	r1, #10
    241c:	4a4e      	ldr	r2, [pc, #312]	(2558 <prog+0x2514>)
    241e:	fcb9f7fe 	bl	d94 <xSerialPutChar>
    2422:	e06b      	b	24fc <prog+0x24b8>
    2424:	930b      	str	r3, [sp, #44]
    2426:	e77f      	b	2328 <tinysh_char_in+0x2d8>
    2428:	2802      	cmp	r0, #2
    242a:	d131      	bne	2490 <prog+0x244c>
    242c:	9b00      	ldr	r3, [sp, #0]
    242e:	3301      	add	r3, #1
    2430:	9300      	str	r3, [sp, #0]
    2432:	465c      	mov	r4, fp
    2434:	2c00      	cmp	r4, #0
    2436:	d00c      	beq	2452 <prog+0x240e>
    2438:	6878      	ldr	r0, [r7, #4]
    243a:	4646      	mov	r6, r8
    243c:	5d82      	ldrb	r2, [r0, r6]
    243e:	2a00      	cmp	r2, #0
    2440:	d022      	beq	2488 <prog+0x2444>
    2442:	45c8      	cmp	r8, r9
    2444:	da24      	bge	2490 <prog+0x244c>
    2446:	6861      	ldr	r1, [r4, #4]
    2448:	5c73      	ldrb	r3, [r6, r1]
    244a:	4293      	cmp	r3, r2
    244c:	d007      	beq	245e <prog+0x241a>
    244e:	4642      	mov	r2, r8
    2450:	e01d      	b	248e <prog+0x244a>
    2452:	6878      	ldr	r0, [r7, #4]
    2454:	fcd2f7ff 	bl	1dfc <tinysh_strlen>
    2458:	4681      	mov	r9, r0
    245a:	46bb      	mov	fp, r7
    245c:	e018      	b	2490 <prog+0x244c>
    245e:	4642      	mov	r2, r8
    2460:	1883      	add	r3, r0, r2
    2462:	1c5c      	add	r4, r3, #1
    2464:	188b      	add	r3, r1, r2
    2466:	1c58      	add	r0, r3, #1
    2468:	464b      	mov	r3, r9
    246a:	1a9b      	sub	r3, r3, r2
    246c:	469c      	mov	ip, r3
    246e:	4466      	add	r6, ip
    2470:	3201      	add	r2, #1
    2472:	7821      	ldrb	r1, [r4, #0]
    2474:	2900      	cmp	r1, #0
    2476:	d008      	beq	248a <prog+0x2446>
    2478:	42b2      	cmp	r2, r6
    247a:	d009      	beq	2490 <prog+0x244c>
    247c:	7803      	ldrb	r3, [r0, #0]
    247e:	3401      	add	r4, #1
    2480:	3001      	add	r0, #1
    2482:	4299      	cmp	r1, r3
    2484:	d103      	bne	248e <prog+0x244a>
    2486:	e7f3      	b	2470 <prog+0x242c>
    2488:	4642      	mov	r2, r8
    248a:	4591      	cmp	r9, r2
    248c:	dd00      	ble	2490 <prog+0x244c>
    248e:	4691      	mov	r9, r2
    2490:	69bf      	ldr	r7, [r7, #24]
    2492:	2f00      	cmp	r7, #0
    2494:	d052      	beq	253c <prog+0x24f8>
    2496:	e798      	b	23ca <prog+0x2386>
    2498:	454c      	cmp	r4, r9
    249a:	d002      	beq	24a2 <prog+0x245e>
    249c:	454c      	cmp	r4, r9
    249e:	db1c      	blt	24da <prog+0x2496>
    24a0:	e025      	b	24ee <prog+0x24aa>
    24a2:	2001      	mov	r0, #1
    24a4:	210a      	mov	r1, #10
    24a6:	4a2c      	ldr	r2, [pc, #176]	(2558 <prog+0x2514>)
    24a8:	fc74f7fe 	bl	d94 <xSerialPutChar>
    24ac:	9c0b      	ldr	r4, [sp, #44]
    24ae:	2c00      	cmp	r4, #0
    24b0:	d024      	beq	24fc <prog+0x24b8>
    24b2:	4e29      	ldr	r6, [pc, #164]	(2558 <prog+0x2514>)
    24b4:	6860      	ldr	r0, [r4, #4]
    24b6:	4651      	mov	r1, sl
    24b8:	fcacf7ff 	bl	1e14 <strstart>
    24bc:	3801      	sub	r0, #1
    24be:	2801      	cmp	r0, #1
    24c0:	d807      	bhi	24d2 <prog+0x248e>
    24c2:	6860      	ldr	r0, [r4, #4]
    24c4:	fd92f7ff 	bl	1fec <puts>
    24c8:	2001      	mov	r0, #1
    24ca:	210a      	mov	r1, #10
    24cc:	1c32      	mov	r2, r6		(add r2, r6, #0)
    24ce:	fc61f7fe 	bl	d94 <xSerialPutChar>
    24d2:	69a4      	ldr	r4, [r4, #24]
    24d4:	2c00      	cmp	r4, #0
    24d6:	d011      	beq	24fc <prog+0x24b8>
    24d8:	e7ec      	b	24b4 <prog+0x2470>
    24da:	4659      	mov	r1, fp
    24dc:	684b      	ldr	r3, [r1, #4]
    24de:	4642      	mov	r2, r8
    24e0:	5c98      	ldrb	r0, [r3, r2]
    24e2:	fdb5f7ff 	bl	2050 <tinysh_char_in>
    24e6:	2301      	mov	r3, #1
    24e8:	4498      	add	r8, r3
    24ea:	45c8      	cmp	r8, r9
    24ec:	d1f5      	bne	24da <prog+0x2496>
    24ee:	9c00      	ldr	r4, [sp, #0]
    24f0:	2c01      	cmp	r4, #1
    24f2:	d108      	bne	2506 <prog+0x24c2>
    24f4:	2020      	mov	r0, #32
    24f6:	fdabf7ff 	bl	2050 <tinysh_char_in>
    24fa:	e004      	b	2506 <prog+0x24c2>
    24fc:	fd8af7ff 	bl	2014 <start_of_line>
    2500:	1c28      	mov	r0, r5		(add r0, r5, #0)
    2502:	fd73f7ff 	bl	1fec <puts>
    2506:	1c28      	mov	r0, r5		(add r0, r5, #0)
    2508:	fc78f7ff 	bl	1dfc <tinysh_strlen>
    250c:	4b13      	ldr	r3, [pc, #76]	(255c <prog+0x2518>)
    250e:	6018      	str	r0, [r3, #0]
    2510:	e019      	b	2546 <prog+0x2502>
    2512:	4b12      	ldr	r3, [pc, #72]	(255c <prog+0x2518>)
    2514:	681b      	ldr	r3, [r3, #0]
    2516:	2b7f      	cmp	r3, #127
    2518:	dc15      	bgt	2546 <prog+0x2502>
    251a:	4b11      	ldr	r3, [pc, #68]	(2560 <prog+0x251c>)
    251c:	681b      	ldr	r3, [r3, #0]
    251e:	2b00      	cmp	r3, #0
    2520:	d004      	beq	252c <prog+0x24e8>
    2522:	2001      	mov	r0, #1
    2524:	1c21      	mov	r1, r4		(add r1, r4, #0)
    2526:	4a0c      	ldr	r2, [pc, #48]	(2558 <prog+0x2514>)
    2528:	fc34f7fe 	bl	d94 <xSerialPutChar>
    252c:	4b0b      	ldr	r3, [pc, #44]	(255c <prog+0x2518>)
    252e:	681a      	ldr	r2, [r3, #0]
    2530:	54ac      	strb	r4, [r5, r2]
    2532:	3201      	add	r2, #1
    2534:	601a      	str	r2, [r3, #0]
    2536:	2300      	mov	r3, #0
    2538:	54ab      	strb	r3, [r5, r2]
    253a:	e004      	b	2546 <prog+0x2502>
    253c:	4644      	mov	r4, r8
    253e:	4659      	mov	r1, fp
    2540:	2900      	cmp	r1, #0
    2542:	d1a9      	bne	2498 <prog+0x2454>
    2544:	e7df      	b	2506 <prog+0x24c2>
    2546:	b00c      	add	sp, #48
    2548:	bc3c      	pop	{r2, r3, r4, r5}
    254a:	4690      	mov	r8, r2
    254c:	4699      	mov	r9, r3
    254e:	46a2      	mov	sl, r4
    2550:	46ab      	mov	fp, r5
    2552:	bcf0      	pop	{r4, r5, r6, r7}
    2554:	bc01      	pop	{r0}
    2556:	4700      	bx	r0
    2558:	2710      	mov	r7, #16
    255a:	0000      	lsl	r0, r0, #0
    255c:	5ef0      	ldrsh	r0, [r6, r3]
    255e:	4000      	and	r0, r0
    2560:	0e60      	lsr	r0, r4, #25
    2562:	0001      	lsl	r1, r0, #0

00002564 <help_fnt>:
    2564:	b500      	push	{lr}
    2566:	480a      	ldr	r0, [pc, #40]	(2590 <prog+0x254c>)
    2568:	fd40f7ff 	bl	1fec <puts>
    256c:	4809      	ldr	r0, [pc, #36]	(2594 <prog+0x2550>)
    256e:	fd3df7ff 	bl	1fec <puts>
    2572:	4809      	ldr	r0, [pc, #36]	(2598 <prog+0x2554>)
    2574:	fd3af7ff 	bl	1fec <puts>
    2578:	4808      	ldr	r0, [pc, #32]	(259c <prog+0x2558>)
    257a:	fd37f7ff 	bl	1fec <puts>
    257e:	4808      	ldr	r0, [pc, #32]	(25a0 <prog+0x255c>)
    2580:	fd34f7ff 	bl	1fec <puts>
    2584:	4807      	ldr	r0, [pc, #28]	(25a4 <prog+0x2560>)
    2586:	fd31f7ff 	bl	1fec <puts>
    258a:	bc01      	pop	{r0}
    258c:	4700      	bx	r0
    258e:	0000      	lsl	r0, r0, #0
    2590:	31fc      	add	r1, #252
    2592:	0001      	lsl	r1, r0, #0
    2594:	3238      	add	r2, #56
    2596:	0001      	lsl	r1, r0, #0
    2598:	3258      	add	r2, #88
    259a:	0001      	lsl	r1, r0, #0
    259c:	327c      	add	r2, #124
    259e:	0001      	lsl	r1, r0, #0
    25a0:	32a8      	add	r2, #168
    25a2:	0001      	lsl	r1, r0, #0
    25a4:	32d0      	add	r2, #208
    25a6:	0001      	lsl	r1, r0, #0
    25a8:	4728      	bx	r5
    25aa:	46c0      	nop			(mov r8, r8)

000025ac <char_to_bin>:
    25ac:	0600      	lsl	r0, r0, #24
    25ae:	23d0      	mov	r3, #208
    25b0:	061b      	lsl	r3, r3, #24
    25b2:	18c0      	add	r0, r0, r3
    25b4:	0e00      	lsr	r0, r0, #24
    25b6:	4770      	bx	lr

000025b8 <dec_to_bin>:
    25b8:	0600      	lsl	r0, r0, #24
    25ba:	23d0      	mov	r3, #208
    25bc:	061b      	lsl	r3, r3, #24
    25be:	18c0      	add	r0, r0, r3
    25c0:	0e00      	lsr	r0, r0, #24
    25c2:	4770      	bx	lr

000025c4 <baca_kanal>:
    25c4:	b530      	push	{r4, r5, lr}
    25c6:	1c05      	mov	r5, r0		(add r5, r0, #0)
    25c8:	7800      	ldrb	r0, [r0, #0]
    25ca:	2800      	cmp	r0, #0
    25cc:	d101      	bne	25d2 <baca_kanal+0xe>
    25ce:	2200      	mov	r2, #0
    25d0:	e01a      	b	2608 <baca_kanal+0x44>
    25d2:	1c03      	mov	r3, r0		(add r3, r0, #0)
    25d4:	3b30      	sub	r3, #48
    25d6:	061b      	lsl	r3, r3, #24
    25d8:	0e1b      	lsr	r3, r3, #24
    25da:	2b09      	cmp	r3, #9
    25dc:	d812      	bhi	2604 <baca_kanal+0x40>
    25de:	2200      	mov	r2, #0
    25e0:	e005      	b	25ee <baca_kanal+0x2a>
    25e2:	1c03      	mov	r3, r0		(add r3, r0, #0)
    25e4:	3b30      	sub	r3, #48
    25e6:	061b      	lsl	r3, r3, #24
    25e8:	0e1b      	lsr	r3, r3, #24
    25ea:	2b09      	cmp	r3, #9
    25ec:	d80a      	bhi	2604 <baca_kanal+0x40>
    25ee:	0094      	lsl	r4, r2, #2
    25f0:	18a4      	add	r4, r4, r2
    25f2:	0064      	lsl	r4, r4, #1
    25f4:	ffe0f7ff 	bl	25b8 <dec_to_bin>
    25f8:	1822      	add	r2, r4, r0
    25fa:	3501      	add	r5, #1
    25fc:	7828      	ldrb	r0, [r5, #0]
    25fe:	2800      	cmp	r0, #0
    2600:	d1ef      	bne	25e2 <baca_kanal+0x1e>
    2602:	e001      	b	2608 <baca_kanal+0x44>
    2604:	2201      	mov	r2, #1
    2606:	4252      	neg	r2, r2
    2608:	1c10      	mov	r0, r2		(add r0, r2, #0)
    260a:	bc30      	pop	{r4, r5}
    260c:	bc02      	pop	{r1}
    260e:	4708      	bx	r1

00002610 <init_gpio_cywusb>:
    2610:	4903      	ldr	r1, [pc, #12]	(2620 <prog+0x25dc>)
    2612:	680a      	ldr	r2, [r1, #0]
    2614:	239a      	mov	r3, #154
    2616:	049b      	lsl	r3, r3, #18
    2618:	431a      	orr	r2, r3
    261a:	600a      	str	r2, [r1, #0]
    261c:	4770      	bx	lr
    261e:	0000      	lsl	r0, r0, #0
    2620:	c020      	stmia	r0!,{r5}
    2622:	3fff      	sub	r7, #255

00002624 <init_cywusb>:
    2624:	4b03      	ldr	r3, [pc, #12]	(2634 <prog+0x25f0>)
    2626:	2280      	mov	r2, #128
    2628:	0312      	lsl	r2, r2, #12
    262a:	601a      	str	r2, [r3, #0]
    262c:	2280      	mov	r2, #128
    262e:	03d2      	lsl	r2, r2, #15
    2630:	601a      	str	r2, [r3, #0]
    2632:	4770      	bx	lr
    2634:	c038      	stmia	r0!,{r3, r4, r5}
    2636:	3fff      	sub	r7, #255

00002638 <mati_cywusb>:
    2638:	4b03      	ldr	r3, [pc, #12]	(2648 <prog+0x2604>)
    263a:	2280      	mov	r2, #128
    263c:	0312      	lsl	r2, r2, #12
    263e:	601a      	str	r2, [r3, #0]
    2640:	2280      	mov	r2, #128
    2642:	03d2      	lsl	r2, r2, #15
    2644:	601a      	str	r2, [r3, #0]
    2646:	4770      	bx	lr
    2648:	c03c      	stmia	r0!,{r2, r3, r4, r5}
    264a:	3fff      	sub	r7, #255

0000264c <LED_cywusb_on>:
    264c:	2380      	mov	r3, #128
    264e:	049b      	lsl	r3, r3, #18
    2650:	4a01      	ldr	r2, [pc, #4]	(2658 <prog+0x2614>)
    2652:	6013      	str	r3, [r2, #0]
    2654:	4770      	bx	lr
    2656:	0000      	lsl	r0, r0, #0
    2658:	c038      	stmia	r0!,{r3, r4, r5}
    265a:	3fff      	sub	r7, #255

0000265c <LED_cywusb_off>:
    265c:	2380      	mov	r3, #128
    265e:	049b      	lsl	r3, r3, #18
    2660:	4a01      	ldr	r2, [pc, #4]	(2668 <prog+0x2624>)
    2662:	6013      	str	r3, [r2, #0]
    2664:	4770      	bx	lr
    2666:	0000      	lsl	r0, r0, #0
    2668:	c03c      	stmia	r0!,{r2, r3, r4, r5}
    266a:	3fff      	sub	r7, #255

0000266c <init_SSP0>:
    266c:	4918      	ldr	r1, [pc, #96]	(26d0 <prog+0x268c>)
    266e:	680a      	ldr	r2, [r1, #0]
    2670:	2380      	mov	r3, #128
    2672:	039b      	lsl	r3, r3, #14
    2674:	431a      	orr	r2, r3
    2676:	600a      	str	r2, [r1, #0]
    2678:	31e8      	add	r1, #232
    267a:	680b      	ldr	r3, [r1, #0]
    267c:	4a15      	ldr	r2, [pc, #84]	(26d4 <prog+0x2690>)
    267e:	4013      	and	r3, r2
    2680:	600b      	str	r3, [r1, #0]
    2682:	680a      	ldr	r2, [r1, #0]
    2684:	2380      	mov	r3, #128
    2686:	00db      	lsl	r3, r3, #3
    2688:	431a      	orr	r2, r3
    268a:	600a      	str	r2, [r1, #0]
    268c:	220a      	mov	r2, #10
    268e:	4b12      	ldr	r3, [pc, #72]	(26d8 <prog+0x2694>)
    2690:	601a      	str	r2, [r3, #0]
    2692:	4912      	ldr	r1, [pc, #72]	(26dc <prog+0x2698>)
    2694:	680b      	ldr	r3, [r1, #0]
    2696:	4a12      	ldr	r2, [pc, #72]	(26e0 <prog+0x269c>)
    2698:	4013      	and	r3, r2
    269a:	600b      	str	r3, [r1, #0]
    269c:	680a      	ldr	r2, [r1, #0]
    269e:	23c0      	mov	r3, #192
    26a0:	009b      	lsl	r3, r3, #2
    26a2:	431a      	orr	r2, r3
    26a4:	600a      	str	r2, [r1, #0]
    26a6:	680a      	ldr	r2, [r1, #0]
    26a8:	23c0      	mov	r3, #192
    26aa:	021b      	lsl	r3, r3, #8
    26ac:	431a      	orr	r2, r3
    26ae:	600a      	str	r2, [r1, #0]
    26b0:	680a      	ldr	r2, [r1, #0]
    26b2:	23c0      	mov	r3, #192
    26b4:	029b      	lsl	r3, r3, #10
    26b6:	431a      	orr	r2, r3
    26b8:	600a      	str	r2, [r1, #0]
    26ba:	4a0a      	ldr	r2, [pc, #40]	(26e4 <prog+0x26a0>)
    26bc:	2100      	mov	r1, #0
    26be:	6011      	str	r1, [r2, #0]
    26c0:	4b09      	ldr	r3, [pc, #36]	(26e8 <prog+0x26a4>)
    26c2:	6013      	str	r3, [r2, #0]
    26c4:	2202      	mov	r2, #2
    26c6:	4b09      	ldr	r3, [pc, #36]	(26ec <prog+0x26a8>)
    26c8:	601a      	str	r2, [r3, #0]
    26ca:	3310      	add	r3, #16
    26cc:	6019      	str	r1, [r3, #0]
    26ce:	4770      	bx	lr
    26d0:	c0c4      	stmia	r0!,{r2, r6, r7}
    26d2:	e01f      	b	2714 <kirim_SSP0+0x10>
    26d4:	fffff3ff 	bl	4026d6 <__data_beg_src__+0x3ee162>
    26d8:	8010      	strh	r0, [r2, #0]
    26da:	e006      	b	26ea <prog+0x26a6>
    26dc:	c00c      	stmia	r0!,{r2, r3}
    26de:	e002      	b	26e6 <prog+0x26a2>
    26e0:	3cff      	sub	r4, #255
    26e2:	fffc      	second half of BL instruction 0xfffc
    26e4:	8000      	strh	r0, [r0, #0]
    26e6:	e006      	b	26f6 <init_modul_cywusb+0x6>
    26e8:	0207      	lsl	r7, r0, #8
    26ea:	0000      	lsl	r0, r0, #0
    26ec:	8004      	strh	r4, [r0, #0]
    26ee:	e006      	b	26fe <init_modul_cywusb+0xe>

000026f0 <init_modul_cywusb>:
    26f0:	b500      	push	{lr}
    26f2:	ff8df7ff 	bl	2610 <init_gpio_cywusb>
    26f6:	ffb9f7ff 	bl	266c <init_SSP0>
    26fa:	ff93f7ff 	bl	2624 <init_cywusb>
    26fe:	bc01      	pop	{r0}
    2700:	4700      	bx	r0
	...

00002704 <kirim_SSP0>:
    2704:	0600      	lsl	r0, r0, #24
    2706:	0e00      	lsr	r0, r0, #24
    2708:	4908      	ldr	r1, [pc, #32]	(272c <prog+0x26e8>)
    270a:	2212      	mov	r2, #18
    270c:	680b      	ldr	r3, [r1, #0]
    270e:	4013      	and	r3, r2
    2710:	2b02      	cmp	r3, #2
    2712:	d1fb      	bne	270c <kirim_SSP0+0x8>
    2714:	4b06      	ldr	r3, [pc, #24]	(2730 <prog+0x26ec>)
    2716:	6018      	str	r0, [r3, #0]
    2718:	4904      	ldr	r1, [pc, #16]	(272c <prog+0x26e8>)
    271a:	2214      	mov	r2, #20
    271c:	680b      	ldr	r3, [r1, #0]
    271e:	4013      	and	r3, r2
    2720:	2b04      	cmp	r3, #4
    2722:	d1fb      	bne	271c <kirim_SSP0+0x18>
    2724:	4b02      	ldr	r3, [pc, #8]	(2730 <prog+0x26ec>)
    2726:	681b      	ldr	r3, [r3, #0]
    2728:	4770      	bx	lr
    272a:	0000      	lsl	r0, r0, #0
    272c:	800c      	strh	r4, [r1, #0]
    272e:	e006      	b	273e <ambil_SSP0+0xa>
    2730:	8008      	strh	r0, [r1, #0]
    2732:	e006      	b	2742 <ambil_SSP0+0xe>

00002734 <ambil_SSP0>:
    2734:	22ff      	mov	r2, #255
    2736:	4b06      	ldr	r3, [pc, #24]	(2750 <prog+0x270c>)
    2738:	601a      	str	r2, [r3, #0]
    273a:	4906      	ldr	r1, [pc, #24]	(2754 <prog+0x2710>)
    273c:	2214      	mov	r2, #20
    273e:	680b      	ldr	r3, [r1, #0]
    2740:	4013      	and	r3, r2
    2742:	2b04      	cmp	r3, #4
    2744:	d1fb      	bne	273e <ambil_SSP0+0xa>
    2746:	4b02      	ldr	r3, [pc, #8]	(2750 <prog+0x270c>)
    2748:	6818      	ldr	r0, [r3, #0]
    274a:	0600      	lsl	r0, r0, #24
    274c:	0e00      	lsr	r0, r0, #24
    274e:	4770      	bx	lr
    2750:	8008      	strh	r0, [r1, #0]
    2752:	e006      	b	2762 <init_shell+0xa>
    2754:	800c      	strh	r4, [r1, #0]
    2756:	e006      	b	2766 <init_shell+0xe>

00002758 <init_shell>:
    2758:	b510      	push	{r4, lr}
    275a:	b082      	sub	sp, #8
    275c:	4906      	ldr	r1, [pc, #24]	(2778 <prog+0x2734>)
    275e:	4c07      	ldr	r4, [pc, #28]	(277c <prog+0x2738>)
    2760:	4807      	ldr	r0, [pc, #28]	(2780 <prog+0x273c>)
    2762:	2282      	mov	r2, #130
    2764:	00d2      	lsl	r2, r2, #3
    2766:	2300      	mov	r3, #0
    2768:	9300      	str	r3, [sp, #0]
    276a:	9401      	str	r4, [sp, #4]
    276c:	f8faf7ff 	bl	1964 <xTaskCreate>
    2770:	b002      	add	sp, #8
    2772:	bc10      	pop	{r4}
    2774:	bc01      	pop	{r0}
    2776:	4700      	bx	r0
    2778:	3330      	add	r3, #48
    277a:	0001      	lsl	r1, r0, #0
    277c:	64a8      	str	r0, [r5, #72]
    277e:	4000      	and	r0, r0
    2780:	2939      	cmp	r1, #57
	...

00002784 <display_args>:
    2784:	b5f0      	push	{r4, r5, r6, r7, lr}
    2786:	1c07      	mov	r7, r0		(add r7, r0, #0)
    2788:	2800      	cmp	r0, #0
    278a:	dd0a      	ble	27a2 <display_args+0x1e>
    278c:	1c0d      	mov	r5, r1		(add r5, r1, #0)
    278e:	2400      	mov	r4, #0
    2790:	4e05      	ldr	r6, [pc, #20]	(27a8 <prog+0x2764>)
    2792:	cd04      	ldmia	r5!,{r2}
    2794:	1c30      	mov	r0, r6		(add r0, r6, #0)
    2796:	1c21      	mov	r1, r4		(add r1, r4, #0)
    2798:	fbb0f7fe 	bl	efc <printf2>
    279c:	3401      	add	r4, #1
    279e:	42a7      	cmp	r7, r4
    27a0:	d1f7      	bne	2792 <display_args+0xe>
    27a2:	bcf0      	pop	{r4, r5, r6, r7}
    27a4:	bc01      	pop	{r0}
    27a6:	4700      	bx	r0
    27a8:	3338      	add	r3, #56
    27aa:	0001      	lsl	r1, r0, #0

000027ac <cek_versi>:
    27ac:	b500      	push	{lr}
    27ae:	480a      	ldr	r0, [pc, #40]	(27d8 <prog+0x2794>)
    27b0:	490a      	ldr	r1, [pc, #40]	(27dc <prog+0x2798>)
    27b2:	4a0b      	ldr	r2, [pc, #44]	(27e0 <prog+0x279c>)
    27b4:	fba2f7fe 	bl	efc <printf2>
    27b8:	480a      	ldr	r0, [pc, #40]	(27e4 <prog+0x27a0>)
    27ba:	490b      	ldr	r1, [pc, #44]	(27e8 <prog+0x27a4>)
    27bc:	4a0b      	ldr	r2, [pc, #44]	(27ec <prog+0x27a8>)
    27be:	4b0c      	ldr	r3, [pc, #48]	(27f0 <prog+0x27ac>)
    27c0:	fb9cf7fe 	bl	efc <printf2>
    27c4:	480b      	ldr	r0, [pc, #44]	(27f4 <prog+0x27b0>)
    27c6:	213c      	mov	r1, #60
    27c8:	fb98f7fe 	bl	efc <printf2>
    27cc:	480a      	ldr	r0, [pc, #40]	(27f8 <prog+0x27b4>)
    27ce:	fb95f7fe 	bl	efc <printf2>
    27d2:	bc01      	pop	{r0}
    27d4:	4700      	bx	r0
    27d6:	0000      	lsl	r0, r0, #0
    27d8:	3348      	add	r3, #72
    27da:	0001      	lsl	r1, r0, #0
    27dc:	3354      	add	r3, #84
    27de:	0001      	lsl	r1, r0, #0
    27e0:	3374      	add	r3, #116
    27e2:	0001      	lsl	r1, r0, #0
    27e4:	337c      	add	r3, #124
    27e6:	0001      	lsl	r1, r0, #0
    27e8:	3394      	add	r3, #148
    27ea:	0001      	lsl	r1, r0, #0
    27ec:	339c      	add	r3, #156
    27ee:	0001      	lsl	r1, r0, #0
    27f0:	33a8      	add	r3, #168
    27f2:	0001      	lsl	r1, r0, #0
    27f4:	33b4      	add	r3, #180
    27f6:	0001      	lsl	r1, r0, #0
    27f8:	33d0      	add	r3, #208
    27fa:	0001      	lsl	r1, r0, #0

000027fc <wusb_in>:
    27fc:	b510      	push	{r4, lr}
    27fe:	0600      	lsl	r0, r0, #24
    2800:	0e04      	lsr	r4, r0, #24
    2802:	2c0a      	cmp	r4, #10
    2804:	d001      	beq	280a <wusb_in+0xe>
    2806:	2c0d      	cmp	r4, #13
    2808:	d10f      	bne	282a <wusb_in+0x2e>
    280a:	200a      	mov	r0, #10
    280c:	fb76f7fe 	bl	efc <printf2>
    2810:	4b0c      	ldr	r3, [pc, #48]	(2844 <prog+0x2800>)
    2812:	6819      	ldr	r1, [r3, #0]
    2814:	2900      	cmp	r1, #0
    2816:	dd02      	ble	281e <wusb_in+0x22>
    2818:	4a0b      	ldr	r2, [pc, #44]	(2848 <prog+0x2804>)
    281a:	2300      	mov	r3, #0
    281c:	5453      	strb	r3, [r2, r1]
    281e:	4b09      	ldr	r3, [pc, #36]	(2844 <prog+0x2800>)
    2820:	2200      	mov	r2, #0
    2822:	601a      	str	r2, [r3, #0]
    2824:	4b08      	ldr	r3, [pc, #32]	(2848 <prog+0x2804>)
    2826:	701a      	strb	r2, [r3, #0]
    2828:	e009      	b	283e <wusb_in+0x42>
    282a:	4808      	ldr	r0, [pc, #32]	(284c <prog+0x2808>)
    282c:	1c21      	mov	r1, r4		(add r1, r4, #0)
    282e:	fb65f7fe 	bl	efc <printf2>
    2832:	4b04      	ldr	r3, [pc, #16]	(2844 <prog+0x2800>)
    2834:	681a      	ldr	r2, [r3, #0]
    2836:	4904      	ldr	r1, [pc, #16]	(2848 <prog+0x2804>)
    2838:	548c      	strb	r4, [r1, r2]
    283a:	3201      	add	r2, #1
    283c:	601a      	str	r2, [r3, #0]
    283e:	bc10      	pop	{r4}
    2840:	bc01      	pop	{r0}
    2842:	4700      	bx	r0
    2844:	6000      	str	r0, [r0, #0]
    2846:	4000      	and	r0, r0
    2848:	6c50      	ldr	r0, [r2, #68]
    284a:	4000      	and	r0, r0
    284c:	2563      	mov	r5, #99
	...

00002850 <status_adc>:
    2850:	b5f0      	push	{r4, r5, r6, r7, lr}
    2852:	b081      	sub	sp, #4
    2854:	4815      	ldr	r0, [pc, #84]	(28ac <prog+0x2868>)
    2856:	4c16      	ldr	r4, [pc, #88]	(28b0 <prog+0x286c>)
    2858:	6861      	ldr	r1, [r4, #4]
    285a:	fb4ff7fe 	bl	efc <printf2>
    285e:	4815      	ldr	r0, [pc, #84]	(28b4 <prog+0x2870>)
    2860:	fb4cf7fe 	bl	efc <printf2>
    2864:	2500      	mov	r5, #0
    2866:	1c26      	mov	r6, r4		(add r6, r4, #0)
    2868:	3608      	add	r6, #8
    286a:	4f13      	ldr	r7, [pc, #76]	(28b8 <prog+0x2874>)
    286c:	8834      	ldrh	r4, [r6, #0]
    286e:	3501      	add	r5, #1
    2870:	1c20      	mov	r0, r4		(add r0, r4, #0)
    2872:	febdf00d 	bl	105f0 <__floatsidf>
    2876:	4a11      	ldr	r2, [pc, #68]	(28bc <prog+0x2878>)
    2878:	4b11      	ldr	r3, [pc, #68]	(28c0 <prog+0x287c>)
    287a:	fba1f00d 	bl	ffc0 <__muldf3>
    287e:	4a11      	ldr	r2, [pc, #68]	(28c4 <prog+0x2880>)
    2880:	4b11      	ldr	r3, [pc, #68]	(28c8 <prog+0x2884>)
    2882:	fcf3f00d 	bl	1026c <__divdf3>
    2886:	ff67f00d 	bl	10758 <__truncdfsf2>
    288a:	f9d1f00d 	bl	fc30 <__extendsfdf2>
    288e:	9100      	str	r1, [sp, #0]
    2890:	1c03      	mov	r3, r0		(add r3, r0, #0)
    2892:	1c38      	mov	r0, r7		(add r0, r7, #0)
    2894:	1c29      	mov	r1, r5		(add r1, r5, #0)
    2896:	1c22      	mov	r2, r4		(add r2, r4, #0)
    2898:	fb30f7fe 	bl	efc <printf2>
    289c:	3602      	add	r6, #2
    289e:	2d0a      	cmp	r5, #10
    28a0:	d1e4      	bne	286c <status_adc+0x1c>
    28a2:	b001      	add	sp, #4
    28a4:	bcf0      	pop	{r4, r5, r6, r7}
    28a6:	bc01      	pop	{r0}
    28a8:	4700      	bx	r0
    28aa:	0000      	lsl	r0, r0, #0
    28ac:	33e4      	add	r3, #228
    28ae:	0001      	lsl	r1, r0, #0
    28b0:	7edc      	ldrb	r4, [r3, #27]
    28b2:	4000      	and	r0, r0
    28b4:	33f8      	add	r3, #248
    28b6:	0001      	lsl	r1, r0, #0
    28b8:	340c      	add	r4, #12
    28ba:	0001      	lsl	r1, r0, #0
    28bc:	0000      	lsl	r0, r0, #0
    28be:	4004      	and	r4, r0
    28c0:	0000      	lsl	r0, r0, #0
    28c2:	0000      	lsl	r0, r0, #0
    28c4:	ffe0      	second half of BL instruction 0xffe0
    28c6:	40ef      	lsr	r7, r5
    28c8:	0000      	lsl	r0, r0, #0
	...

000028cc <baca_ip>:
    28cc:	b570      	push	{r4, r5, r6, lr}
    28ce:	1c05      	mov	r5, r0		(add r5, r0, #0)
    28d0:	7800      	ldrb	r0, [r0, #0]
    28d2:	2800      	cmp	r0, #0
    28d4:	d102      	bne	28dc <baca_ip+0x10>
    28d6:	2200      	mov	r2, #0
    28d8:	2600      	mov	r6, #0
    28da:	e021      	b	2920 <baca_ip+0x54>
    28dc:	2200      	mov	r2, #0
    28de:	2600      	mov	r6, #0
    28e0:	1c03      	mov	r3, r0		(add r3, r0, #0)
    28e2:	3b30      	sub	r3, #48
    28e4:	061b      	lsl	r3, r3, #24
    28e6:	0e1b      	lsr	r3, r3, #24
    28e8:	2b09      	cmp	r3, #9
    28ea:	d902      	bls	28f2 <baca_ip+0x26>
    28ec:	282e      	cmp	r0, #46
    28ee:	d113      	bne	2918 <baca_ip+0x4c>
    28f0:	e001      	b	28f6 <baca_ip+0x2a>
    28f2:	282e      	cmp	r0, #46
    28f4:	d108      	bne	2908 <baca_ip+0x3c>
    28f6:	2e00      	cmp	r6, #0
    28f8:	d102      	bne	2900 <baca_ip+0x34>
    28fa:	1c16      	mov	r6, r2		(add r6, r2, #0)
    28fc:	2200      	mov	r2, #0
    28fe:	e00b      	b	2918 <baca_ip+0x4c>
    2900:	0233      	lsl	r3, r6, #8
    2902:	189e      	add	r6, r3, r2
    2904:	2200      	mov	r2, #0
    2906:	e007      	b	2918 <baca_ip+0x4c>
    2908:	0094      	lsl	r4, r2, #2
    290a:	18a4      	add	r4, r4, r2
    290c:	0064      	lsl	r4, r4, #1
    290e:	fe53f7ff 	bl	25b8 <dec_to_bin>
    2912:	1900      	add	r0, r0, r4
    2914:	0600      	lsl	r0, r0, #24
    2916:	0e02      	lsr	r2, r0, #24
    2918:	3501      	add	r5, #1
    291a:	7828      	ldrb	r0, [r5, #0]
    291c:	2800      	cmp	r0, #0
    291e:	d1df      	bne	28e0 <baca_ip+0x14>
    2920:	0234      	lsl	r4, r6, #8
    2922:	18a4      	add	r4, r4, r2
    2924:	4803      	ldr	r0, [pc, #12]	(2934 <prog+0x28f0>)
    2926:	1c21      	mov	r1, r4		(add r1, r4, #0)
    2928:	fae8f7fe 	bl	efc <printf2>
    292c:	1c20      	mov	r0, r4		(add r0, r4, #0)
    292e:	bc70      	pop	{r4, r5, r6}
    2930:	bc02      	pop	{r1}
    2932:	4708      	bx	r1
    2934:	3424      	add	r4, #36
    2936:	0001      	lsl	r1, r0, #0

00002938 <shell>:
    2938:	b5f0      	push	{r4, r5, r6, r7, lr}
    293a:	b081      	sub	sp, #4
    293c:	483f      	ldr	r0, [pc, #252]	(2a3c <prog+0x29f8>)
    293e:	4940      	ldr	r1, [pc, #256]	(2a40 <prog+0x29fc>)
    2940:	4a40      	ldr	r2, [pc, #256]	(2a44 <prog+0x2a00>)
    2942:	fadbf7fe 	bl	efc <printf2>
    2946:	4840      	ldr	r0, [pc, #256]	(2a48 <prog+0x2a04>)
    2948:	fad8f7fe 	bl	efc <printf2>
    294c:	483f      	ldr	r0, [pc, #252]	(2a4c <prog+0x2a08>)
    294e:	fad5f7fe 	bl	efc <printf2>
    2952:	483f      	ldr	r0, [pc, #252]	(2a50 <prog+0x2a0c>)
    2954:	493f      	ldr	r1, [pc, #252]	(2a54 <prog+0x2a10>)
    2956:	4a40      	ldr	r2, [pc, #256]	(2a58 <prog+0x2a14>)
    2958:	4b40      	ldr	r3, [pc, #256]	(2a5c <prog+0x2a18>)
    295a:	facff7fe 	bl	efc <printf2>
    295e:	4840      	ldr	r0, [pc, #256]	(2a60 <prog+0x2a1c>)
    2960:	213c      	mov	r1, #60
    2962:	facbf7fe 	bl	efc <printf2>
    2966:	483f      	ldr	r0, [pc, #252]	(2a64 <prog+0x2a20>)
    2968:	fac8f7fe 	bl	efc <printf2>
    296c:	483e      	ldr	r0, [pc, #248]	(2a68 <prog+0x2a24>)
    296e:	fac5f7fe 	bl	efc <printf2>
    2972:	483e      	ldr	r0, [pc, #248]	(2a6c <prog+0x2a28>)
    2974:	fac4f7ff 	bl	1f00 <tinysh_add_command>
    2978:	483d      	ldr	r0, [pc, #244]	(2a70 <prog+0x2a2c>)
    297a:	fac1f7ff 	bl	1f00 <tinysh_add_command>
    297e:	483d      	ldr	r0, [pc, #244]	(2a74 <prog+0x2a30>)
    2980:	fabef7ff 	bl	1f00 <tinysh_add_command>
    2984:	483c      	ldr	r0, [pc, #240]	(2a78 <prog+0x2a34>)
    2986:	fabbf7ff 	bl	1f00 <tinysh_add_command>
    298a:	483c      	ldr	r0, [pc, #240]	(2a7c <prog+0x2a38>)
    298c:	fab8f7ff 	bl	1f00 <tinysh_add_command>
    2990:	483b      	ldr	r0, [pc, #236]	(2a80 <prog+0x2a3c>)
    2992:	fab5f7ff 	bl	1f00 <tinysh_add_command>
    2996:	483b      	ldr	r0, [pc, #236]	(2a84 <prog+0x2a40>)
    2998:	fab2f7ff 	bl	1f00 <tinysh_add_command>
    299c:	483a      	ldr	r0, [pc, #232]	(2a88 <prog+0x2a44>)
    299e:	faaff7ff 	bl	1f00 <tinysh_add_command>
    29a2:	483a      	ldr	r0, [pc, #232]	(2a8c <prog+0x2a48>)
    29a4:	faacf7ff 	bl	1f00 <tinysh_add_command>
    29a8:	4839      	ldr	r0, [pc, #228]	(2a90 <prog+0x2a4c>)
    29aa:	faa9f7ff 	bl	1f00 <tinysh_add_command>
    29ae:	4839      	ldr	r0, [pc, #228]	(2a94 <prog+0x2a50>)
    29b0:	faa6f7ff 	bl	1f00 <tinysh_add_command>
    29b4:	4838      	ldr	r0, [pc, #224]	(2a98 <prog+0x2a54>)
    29b6:	faa3f7ff 	bl	1f00 <tinysh_add_command>
    29ba:	4838      	ldr	r0, [pc, #224]	(2a9c <prog+0x2a58>)
    29bc:	faa0f7ff 	bl	1f00 <tinysh_add_command>
    29c0:	4837      	ldr	r0, [pc, #220]	(2aa0 <prog+0x2a5c>)
    29c2:	fa9df7ff 	bl	1f00 <tinysh_add_command>
    29c6:	4837      	ldr	r0, [pc, #220]	(2aa4 <prog+0x2a60>)
    29c8:	fa9af7ff 	bl	1f00 <tinysh_add_command>
    29cc:	4836      	ldr	r0, [pc, #216]	(2aa8 <prog+0x2a64>)
    29ce:	fa97f7ff 	bl	1f00 <tinysh_add_command>
    29d2:	20e1      	mov	r0, #225
    29d4:	0040      	lsl	r0, r0, #1
    29d6:	ff81f7fe 	bl	18dc <vTaskDelay>
    29da:	2064      	mov	r0, #100
    29dc:	ff7ef7fe 	bl	18dc <vTaskDelay>
    29e0:	4832      	ldr	r0, [pc, #200]	(2aac <prog+0x2a68>)
    29e2:	faa9f7ff 	bl	1f38 <tinysh_set_prompt>
    29e6:	200d      	mov	r0, #13
    29e8:	fb32f7ff 	bl	2050 <tinysh_char_in>
    29ec:	2400      	mov	r4, #0
    29ee:	e000      	b	29f2 <shell+0xba>
    29f0:	2400      	mov	r4, #0
    29f2:	3401      	add	r4, #1
    29f4:	22fa      	mov	r2, #250
    29f6:	0092      	lsl	r2, r2, #2
    29f8:	2001      	mov	r0, #1
    29fa:	4669      	mov	r1, sp
    29fc:	f95af7fe 	bl	cb4 <xSerialGetChar>
    2a00:	2801      	cmp	r0, #1
    2a02:	d106      	bne	2a12 <shell+0xda>
    2a04:	9800      	ldr	r0, [sp, #0]
    2a06:	0600      	lsl	r0, r0, #24
    2a08:	0e00      	lsr	r0, r0, #24
    2a0a:	fb21f7ff 	bl	2050 <tinysh_char_in>
    2a0e:	2400      	mov	r4, #0
    2a10:	e7ef      	b	29f2 <shell+0xba>
    2a12:	2c3c      	cmp	r4, #60
    2a14:	dded      	ble	29f2 <shell+0xba>
    2a16:	4826      	ldr	r0, [pc, #152]	(2ab0 <prog+0x2a6c>)
    2a18:	fa70f7fe 	bl	efc <printf2>
    2a1c:	24fa      	mov	r4, #250
    2a1e:	00a4      	lsl	r4, r4, #2
    2a20:	2001      	mov	r0, #1
    2a22:	4669      	mov	r1, sp
    2a24:	1c22      	mov	r2, r4		(add r2, r4, #0)
    2a26:	f945f7fe 	bl	cb4 <xSerialGetChar>
    2a2a:	2801      	cmp	r0, #1
    2a2c:	d1f8      	bne	2a20 <shell+0xe8>
    2a2e:	4668      	mov	r0, sp
    2a30:	f846f001 	bl	3ac0 <proses_passwd>
    2a34:	2801      	cmp	r0, #1
    2a36:	d0db      	beq	29f0 <shell+0xb8>
    2a38:	e7f2      	b	2a20 <shell+0xe8>
    2a3a:	0000      	lsl	r0, r0, #0
    2a3c:	3438      	add	r4, #56
    2a3e:	0001      	lsl	r1, r0, #0
    2a40:	3354      	add	r3, #84
    2a42:	0001      	lsl	r1, r0, #0
    2a44:	3374      	add	r3, #116
    2a46:	0001      	lsl	r1, r0, #0
    2a48:	3444      	add	r4, #68
    2a4a:	0001      	lsl	r1, r0, #0
    2a4c:	3468      	add	r4, #104
    2a4e:	0001      	lsl	r1, r0, #0
    2a50:	3494      	add	r4, #148
    2a52:	0001      	lsl	r1, r0, #0
    2a54:	3394      	add	r3, #148
    2a56:	0001      	lsl	r1, r0, #0
    2a58:	339c      	add	r3, #156
    2a5a:	0001      	lsl	r1, r0, #0
    2a5c:	33a8      	add	r3, #168
    2a5e:	0001      	lsl	r1, r0, #0
    2a60:	34ac      	add	r4, #172
    2a62:	0001      	lsl	r1, r0, #0
    2a64:	33d0      	add	r3, #208
    2a66:	0001      	lsl	r1, r0, #0
    2a68:	34c4      	add	r4, #196
    2a6a:	0001      	lsl	r1, r0, #0
    2a6c:	003c      	lsl	r4, r7, #0
    2a6e:	4000      	and	r0, r0
    2a70:	005c      	lsl	r4, r3, #1
    2a72:	4000      	and	r0, r0
    2a74:	007c      	lsl	r4, r7, #1
    2a76:	4000      	and	r0, r0
    2a78:	009c      	lsl	r4, r3, #2
    2a7a:	4000      	and	r0, r0
    2a7c:	00bc      	lsl	r4, r7, #2
    2a7e:	4000      	and	r0, r0
    2a80:	00dc      	lsl	r4, r3, #3
    2a82:	4000      	and	r0, r0
    2a84:	00fc      	lsl	r4, r7, #3
    2a86:	4000      	and	r0, r0
    2a88:	011c      	lsl	r4, r3, #4
    2a8a:	4000      	and	r0, r0
    2a8c:	021c      	lsl	r4, r3, #8
    2a8e:	4000      	and	r0, r0
    2a90:	01fc      	lsl	r4, r7, #7
    2a92:	4000      	and	r0, r0
    2a94:	01dc      	lsl	r4, r3, #7
    2a96:	4000      	and	r0, r0
    2a98:	01bc      	lsl	r4, r7, #6
    2a9a:	4000      	and	r0, r0
    2a9c:	019c      	lsl	r4, r3, #6
    2a9e:	4000      	and	r0, r0
    2aa0:	017c      	lsl	r4, r7, #5
    2aa2:	4000      	and	r0, r0
    2aa4:	015c      	lsl	r4, r3, #5
    2aa6:	4000      	and	r0, r0
    2aa8:	013c      	lsl	r4, r7, #4
    2aaa:	4000      	and	r0, r0
    2aac:	34e8      	add	r4, #232
    2aae:	0001      	lsl	r1, r0, #0
    2ab0:	34f8      	add	r4, #248
    2ab2:	0001      	lsl	r1, r0, #0

00002ab4 <matikan_telnet>:
    2ab4:	b500      	push	{lr}
    2ab6:	4803      	ldr	r0, [pc, #12]	(2ac4 <prog+0x2a80>)
    2ab8:	fa20f7fe 	bl	efc <printf2>
    2abc:	fc62f004 	bl	7384 <telnetdDisconnect>
    2ac0:	bc01      	pop	{r0}
    2ac2:	4700      	bx	r0
    2ac4:	350c      	add	r5, #12
    2ac6:	0001      	lsl	r1, r0, #0

00002ac8 <setenv_fnt>:
    2ac8:	b570      	push	{r4, r5, r6, lr}
    2aca:	4656      	mov	r6, sl
    2acc:	4645      	mov	r5, r8
    2ace:	b460      	push	{r5, r6}
    2ad0:	b086      	sub	sp, #24
    2ad2:	1c04      	mov	r4, r0		(add r4, r0, #0)
    2ad4:	1c0e      	mov	r6, r1		(add r6, r1, #0)
    2ad6:	2802      	cmp	r0, #2
    2ad8:	dc46      	bgt	2b68 <setenv_fnt+0xa0>
    2ada:	2802      	cmp	r0, #2
    2adc:	d13d      	bne	2b5a <setenv_fnt+0x92>
    2ade:	684c      	ldr	r4, [r1, #4]
    2ae0:	499a      	ldr	r1, [pc, #616]	(2d4c <prog+0x2d08>)
    2ae2:	1c20      	mov	r0, r4		(add r0, r4, #0)
    2ae4:	f9ccf005 	bl	7e80 <strcmp>
    2ae8:	2800      	cmp	r0, #0
    2aea:	d12a      	bne	2b42 <setenv_fnt+0x7a>
    2aec:	4898      	ldr	r0, [pc, #608]	(2d50 <prog+0x2d0c>)
    2aee:	fa05f7fe 	bl	efc <printf2>
    2af2:	ffbbf000 	bl	3a6c <garis_bawah>
    2af6:	4897      	ldr	r0, [pc, #604]	(2d54 <prog+0x2d10>)
    2af8:	fa00f7fe 	bl	efc <printf2>
    2afc:	4896      	ldr	r0, [pc, #600]	(2d58 <prog+0x2d14>)
    2afe:	f9fdf7fe 	bl	efc <printf2>
    2b02:	4896      	ldr	r0, [pc, #600]	(2d5c <prog+0x2d18>)
    2b04:	f9faf7fe 	bl	efc <printf2>
    2b08:	4c95      	ldr	r4, [pc, #596]	(2d60 <prog+0x2d1c>)
    2b0a:	1c20      	mov	r0, r4		(add r0, r4, #0)
    2b0c:	f9f6f7fe 	bl	efc <printf2>
    2b10:	4894      	ldr	r0, [pc, #592]	(2d64 <prog+0x2d20>)
    2b12:	f9f3f7fe 	bl	efc <printf2>
    2b16:	4894      	ldr	r0, [pc, #592]	(2d68 <prog+0x2d24>)
    2b18:	f9f0f7fe 	bl	efc <printf2>
    2b1c:	1c20      	mov	r0, r4		(add r0, r4, #0)
    2b1e:	f9edf7fe 	bl	efc <printf2>
    2b22:	4892      	ldr	r0, [pc, #584]	(2d6c <prog+0x2d28>)
    2b24:	f9eaf7fe 	bl	efc <printf2>
    2b28:	4891      	ldr	r0, [pc, #580]	(2d70 <prog+0x2d2c>)
    2b2a:	f9e7f7fe 	bl	efc <printf2>
    2b2e:	1c20      	mov	r0, r4		(add r0, r4, #0)
    2b30:	f9e4f7fe 	bl	efc <printf2>
    2b34:	488f      	ldr	r0, [pc, #572]	(2d74 <prog+0x2d30>)
    2b36:	f9e1f7fe 	bl	efc <printf2>
    2b3a:	488f      	ldr	r0, [pc, #572]	(2d78 <prog+0x2d34>)
    2b3c:	f9def7fe 	bl	efc <printf2>
    2b40:	e0fd      	b	2d3e <setenv_fnt+0x276>
    2b42:	498e      	ldr	r1, [pc, #568]	(2d7c <prog+0x2d38>)
    2b44:	1c20      	mov	r0, r4		(add r0, r4, #0)
    2b46:	f99bf005 	bl	7e80 <strcmp>
    2b4a:	2800      	cmp	r0, #0
    2b4c:	d105      	bne	2b5a <setenv_fnt+0x92>
    2b4e:	488c      	ldr	r0, [pc, #560]	(2d80 <prog+0x2d3c>)
    2b50:	f9d4f7fe 	bl	efc <printf2>
    2b54:	fd3cf000 	bl	35d0 <set_default_ip>
    2b58:	e0f1      	b	2d3e <setenv_fnt+0x276>
    2b5a:	488a      	ldr	r0, [pc, #552]	(2d84 <prog+0x2d40>)
    2b5c:	f9cef7fe 	bl	efc <printf2>
    2b60:	4889      	ldr	r0, [pc, #548]	(2d88 <prog+0x2d44>)
    2b62:	f9cbf7fe 	bl	efc <printf2>
    2b66:	e0ea      	b	2d3e <setenv_fnt+0x276>
    2b68:	4888      	ldr	r0, [pc, #544]	(2d8c <prog+0x2d48>)
    2b6a:	6849      	ldr	r1, [r1, #4]
    2b6c:	f9c6f7fe 	bl	efc <printf2>
    2b70:	ff7cf000 	bl	3a6c <garis_bawah>
    2b74:	1c20      	mov	r0, r4		(add r0, r4, #0)
    2b76:	1c31      	mov	r1, r6		(add r1, r6, #0)
    2b78:	fe04f7ff 	bl	2784 <display_args>
    2b7c:	6874      	ldr	r4, [r6, #4]
    2b7e:	4984      	ldr	r1, [pc, #528]	(2d90 <prog+0x2d4c>)
    2b80:	1c20      	mov	r0, r4		(add r0, r4, #0)
    2b82:	f97df005 	bl	7e80 <strcmp>
    2b86:	1c05      	mov	r5, r0		(add r5, r0, #0)
    2b88:	2800      	cmp	r0, #0
    2b8a:	d131      	bne	2bf0 <setenv_fnt+0x128>
    2b8c:	4881      	ldr	r0, [pc, #516]	(2d94 <prog+0x2d50>)
    2b8e:	f9b5f7fe 	bl	efc <printf2>
    2b92:	9500      	str	r5, [sp, #0]
    2b94:	9501      	str	r5, [sp, #4]
    2b96:	9502      	str	r5, [sp, #8]
    2b98:	9503      	str	r5, [sp, #12]
    2b9a:	9504      	str	r5, [sp, #16]
    2b9c:	9505      	str	r5, [sp, #20]
    2b9e:	68b1      	ldr	r1, [r6, #8]
    2ba0:	4668      	mov	r0, sp
    2ba2:	f9a1f005 	bl	7ee8 <strcpy>
    2ba6:	4668      	mov	r0, sp
    2ba8:	fe90f7ff 	bl	28cc <baca_ip>
    2bac:	4c7a      	ldr	r4, [pc, #488]	(2d98 <prog+0x2d54>)
    2bae:	0e03      	lsr	r3, r0, #24
    2bb0:	2220      	mov	r2, #32
    2bb2:	54a3      	strb	r3, [r4, r2]
    2bb4:	0c03      	lsr	r3, r0, #16
    2bb6:	2621      	mov	r6, #33
    2bb8:	55a3      	strb	r3, [r4, r6]
    2bba:	0a03      	lsr	r3, r0, #8
    2bbc:	2122      	mov	r1, #34
    2bbe:	4688      	mov	r8, r1
    2bc0:	5463      	strb	r3, [r4, r1]
    2bc2:	2323      	mov	r3, #35
    2bc4:	469a      	mov	sl, r3
    2bc6:	54e0      	strb	r0, [r4, r3]
    2bc8:	4d74      	ldr	r5, [pc, #464]	(2d9c <prog+0x2d58>)
    2bca:	5ca1      	ldrb	r1, [r4, r2]
    2bcc:	1c28      	mov	r0, r5		(add r0, r5, #0)
    2bce:	f995f7fe 	bl	efc <printf2>
    2bd2:	5da1      	ldrb	r1, [r4, r6]
    2bd4:	1c28      	mov	r0, r5		(add r0, r5, #0)
    2bd6:	f991f7fe 	bl	efc <printf2>
    2bda:	4643      	mov	r3, r8
    2bdc:	5ce1      	ldrb	r1, [r4, r3]
    2bde:	1c28      	mov	r0, r5		(add r0, r5, #0)
    2be0:	f98cf7fe 	bl	efc <printf2>
    2be4:	486e      	ldr	r0, [pc, #440]	(2da0 <prog+0x2d5c>)
    2be6:	4653      	mov	r3, sl
    2be8:	5ce1      	ldrb	r1, [r4, r3]
    2bea:	f987f7fe 	bl	efc <printf2>
    2bee:	e0a6      	b	2d3e <setenv_fnt+0x276>
    2bf0:	496c      	ldr	r1, [pc, #432]	(2da4 <prog+0x2d60>)
    2bf2:	1c20      	mov	r0, r4		(add r0, r4, #0)
    2bf4:	f944f005 	bl	7e80 <strcmp>
    2bf8:	1c05      	mov	r5, r0		(add r5, r0, #0)
    2bfa:	2800      	cmp	r0, #0
    2bfc:	d131      	bne	2c62 <setenv_fnt+0x19a>
    2bfe:	486a      	ldr	r0, [pc, #424]	(2da8 <prog+0x2d64>)
    2c00:	f97cf7fe 	bl	efc <printf2>
    2c04:	9500      	str	r5, [sp, #0]
    2c06:	9501      	str	r5, [sp, #4]
    2c08:	9502      	str	r5, [sp, #8]
    2c0a:	9503      	str	r5, [sp, #12]
    2c0c:	9504      	str	r5, [sp, #16]
    2c0e:	9505      	str	r5, [sp, #20]
    2c10:	68b1      	ldr	r1, [r6, #8]
    2c12:	4668      	mov	r0, sp
    2c14:	f968f005 	bl	7ee8 <strcpy>
    2c18:	4668      	mov	r0, sp
    2c1a:	fe57f7ff 	bl	28cc <baca_ip>
    2c1e:	4c5e      	ldr	r4, [pc, #376]	(2d98 <prog+0x2d54>)
    2c20:	0e03      	lsr	r3, r0, #24
    2c22:	2224      	mov	r2, #36
    2c24:	54a3      	strb	r3, [r4, r2]
    2c26:	0c03      	lsr	r3, r0, #16
    2c28:	2625      	mov	r6, #37
    2c2a:	55a3      	strb	r3, [r4, r6]
    2c2c:	0a03      	lsr	r3, r0, #8
    2c2e:	2126      	mov	r1, #38
    2c30:	4688      	mov	r8, r1
    2c32:	5463      	strb	r3, [r4, r1]
    2c34:	2327      	mov	r3, #39
    2c36:	469a      	mov	sl, r3
    2c38:	54e0      	strb	r0, [r4, r3]
    2c3a:	4d58      	ldr	r5, [pc, #352]	(2d9c <prog+0x2d58>)
    2c3c:	5ca1      	ldrb	r1, [r4, r2]
    2c3e:	1c28      	mov	r0, r5		(add r0, r5, #0)
    2c40:	f95cf7fe 	bl	efc <printf2>
    2c44:	5da1      	ldrb	r1, [r4, r6]
    2c46:	1c28      	mov	r0, r5		(add r0, r5, #0)
    2c48:	f958f7fe 	bl	efc <printf2>
    2c4c:	4643      	mov	r3, r8
    2c4e:	5ce1      	ldrb	r1, [r4, r3]
    2c50:	1c28      	mov	r0, r5		(add r0, r5, #0)
    2c52:	f953f7fe 	bl	efc <printf2>
    2c56:	4855      	ldr	r0, [pc, #340]	(2dac <prog+0x2d68>)
    2c58:	4653      	mov	r3, sl
    2c5a:	5ce1      	ldrb	r1, [r4, r3]
    2c5c:	f94ef7fe 	bl	efc <printf2>
    2c60:	e06d      	b	2d3e <setenv_fnt+0x276>
    2c62:	4953      	ldr	r1, [pc, #332]	(2db0 <prog+0x2d6c>)
    2c64:	1c20      	mov	r0, r4		(add r0, r4, #0)
    2c66:	f90bf005 	bl	7e80 <strcmp>
    2c6a:	2800      	cmp	r0, #0
    2c6c:	d11b      	bne	2ca6 <setenv_fnt+0x1de>
    2c6e:	4851      	ldr	r0, [pc, #324]	(2db4 <prog+0x2d70>)
    2c70:	f944f7fe 	bl	efc <printf2>
    2c74:	4848      	ldr	r0, [pc, #288]	(2d98 <prog+0x2d54>)
    2c76:	2100      	mov	r1, #0
    2c78:	2220      	mov	r2, #32
    2c7a:	fec7f004 	bl	7a0c <memset>
    2c7e:	68b5      	ldr	r5, [r6, #8]
    2c80:	1c28      	mov	r0, r5		(add r0, r5, #0)
    2c82:	f959f005 	bl	7f38 <strlen>
    2c86:	2820      	cmp	r0, #32
    2c88:	d903      	bls	2c92 <setenv_fnt+0x1ca>
    2c8a:	484b      	ldr	r0, [pc, #300]	(2db8 <prog+0x2d74>)
    2c8c:	f936f7fe 	bl	efc <printf2>
    2c90:	e055      	b	2d3e <setenv_fnt+0x276>
    2c92:	4c41      	ldr	r4, [pc, #260]	(2d98 <prog+0x2d54>)
    2c94:	1c20      	mov	r0, r4		(add r0, r4, #0)
    2c96:	1c29      	mov	r1, r5		(add r1, r5, #0)
    2c98:	f926f005 	bl	7ee8 <strcpy>
    2c9c:	4847      	ldr	r0, [pc, #284]	(2dbc <prog+0x2d78>)
    2c9e:	1c21      	mov	r1, r4		(add r1, r4, #0)
    2ca0:	f92cf7fe 	bl	efc <printf2>
    2ca4:	e04b      	b	2d3e <setenv_fnt+0x276>
    2ca6:	4946      	ldr	r1, [pc, #280]	(2dc0 <prog+0x2d7c>)
    2ca8:	1c20      	mov	r0, r4		(add r0, r4, #0)
    2caa:	f8e9f005 	bl	7e80 <strcmp>
    2cae:	1c05      	mov	r5, r0		(add r5, r0, #0)
    2cb0:	2800      	cmp	r0, #0
    2cb2:	d144      	bne	2d3e <setenv_fnt+0x276>
    2cb4:	4843      	ldr	r0, [pc, #268]	(2dc4 <prog+0x2d80>)
    2cb6:	f921f7fe 	bl	efc <printf2>
    2cba:	9500      	str	r5, [sp, #0]
    2cbc:	9501      	str	r5, [sp, #4]
    2cbe:	9502      	str	r5, [sp, #8]
    2cc0:	9503      	str	r5, [sp, #12]
    2cc2:	9504      	str	r5, [sp, #16]
    2cc4:	9505      	str	r5, [sp, #20]
    2cc6:	68b1      	ldr	r1, [r6, #8]
    2cc8:	4668      	mov	r0, sp
    2cca:	f90df005 	bl	7ee8 <strcpy>
    2cce:	4668      	mov	r0, sp
    2cd0:	fc78f7ff 	bl	25c4 <baca_kanal>
    2cd4:	1c04      	mov	r4, r0		(add r4, r0, #0)
    2cd6:	1e43      	sub	r3, r0, #1
    2cd8:	2b13      	cmp	r3, #19
    2cda:	d825      	bhi	2d28 <setenv_fnt+0x260>
    2cdc:	483a      	ldr	r0, [pc, #232]	(2dc8 <prog+0x2d84>)
    2cde:	1c21      	mov	r1, r4		(add r1, r4, #0)
    2ce0:	f90cf7fe 	bl	efc <printf2>
    2ce4:	68f0      	ldr	r0, [r6, #12]
    2ce6:	4939      	ldr	r1, [pc, #228]	(2dcc <prog+0x2d88>)
    2ce8:	f8caf005 	bl	7e80 <strcmp>
    2cec:	2800      	cmp	r0, #0
    2cee:	d126      	bne	2d3e <setenv_fnt+0x276>
    2cf0:	4837      	ldr	r0, [pc, #220]	(2dd0 <prog+0x2d8c>)
    2cf2:	f903f7fe 	bl	efc <printf2>
    2cf6:	6935      	ldr	r5, [r6, #16]
    2cf8:	00e3      	lsl	r3, r4, #3
    2cfa:	191b      	add	r3, r3, r4
    2cfc:	00db      	lsl	r3, r3, #3
    2cfe:	3b18      	sub	r3, #24
    2d00:	4a25      	ldr	r2, [pc, #148]	(2d98 <prog+0x2d54>)
    2d02:	189c      	add	r4, r3, r2
    2d04:	1c28      	mov	r0, r5		(add r0, r5, #0)
    2d06:	f917f005 	bl	7f38 <strlen>
    2d0a:	42a0      	cmp	r0, r4
    2d0c:	d903      	bls	2d16 <setenv_fnt+0x24e>
    2d0e:	4831      	ldr	r0, [pc, #196]	(2dd4 <prog+0x2d90>)
    2d10:	f8f4f7fe 	bl	efc <printf2>
    2d14:	e013      	b	2d3e <setenv_fnt+0x276>
    2d16:	1c20      	mov	r0, r4		(add r0, r4, #0)
    2d18:	1c29      	mov	r1, r5		(add r1, r5, #0)
    2d1a:	f8e5f005 	bl	7ee8 <strcpy>
    2d1e:	482e      	ldr	r0, [pc, #184]	(2dd8 <prog+0x2d94>)
    2d20:	1c21      	mov	r1, r4		(add r1, r4, #0)
    2d22:	f8ebf7fe 	bl	efc <printf2>
    2d26:	e00a      	b	2d3e <setenv_fnt+0x276>
    2d28:	2800      	cmp	r0, #0
    2d2a:	d001      	beq	2d30 <setenv_fnt+0x268>
    2d2c:	2814      	cmp	r0, #20
    2d2e:	dd03      	ble	2d38 <setenv_fnt+0x270>
    2d30:	482a      	ldr	r0, [pc, #168]	(2ddc <prog+0x2d98>)
    2d32:	f8e3f7fe 	bl	efc <printf2>
    2d36:	e002      	b	2d3e <setenv_fnt+0x276>
    2d38:	4829      	ldr	r0, [pc, #164]	(2de0 <prog+0x2d9c>)
    2d3a:	f8dff7fe 	bl	efc <printf2>
    2d3e:	b006      	add	sp, #24
    2d40:	bc0c      	pop	{r2, r3}
    2d42:	4690      	mov	r8, r2
    2d44:	469a      	mov	sl, r3
    2d46:	bc70      	pop	{r4, r5, r6}
    2d48:	bc01      	pop	{r0}
    2d4a:	4700      	bx	r0
    2d4c:	3300      	add	r3, #0
    2d4e:	0001      	lsl	r1, r0, #0
    2d50:	351c      	add	r5, #28
    2d52:	0001      	lsl	r1, r0, #0
    2d54:	3550      	add	r5, #80
    2d56:	0001      	lsl	r1, r0, #0
    2d58:	3584      	add	r5, #132
    2d5a:	0001      	lsl	r1, r0, #0
    2d5c:	35ac      	add	r5, #172
    2d5e:	0001      	lsl	r1, r0, #0
    2d60:	4204      	tst	r4, r0
    2d62:	0001      	lsl	r1, r0, #0
    2d64:	35ec      	add	r5, #236
    2d66:	0001      	lsl	r1, r0, #0
    2d68:	3610      	add	r6, #16
    2d6a:	0001      	lsl	r1, r0, #0
    2d6c:	3640      	add	r6, #64
    2d6e:	0001      	lsl	r1, r0, #0
    2d70:	366c      	add	r6, #108
    2d72:	0001      	lsl	r1, r0, #0
    2d74:	369c      	add	r6, #156
    2d76:	0001      	lsl	r1, r0, #0
    2d78:	36c4      	add	r6, #196
    2d7a:	0001      	lsl	r1, r0, #0
    2d7c:	36f4      	add	r6, #244
    2d7e:	0001      	lsl	r1, r0, #0
    2d80:	36fc      	add	r6, #252
    2d82:	0001      	lsl	r1, r0, #0
    2d84:	3724      	add	r7, #36
    2d86:	0001      	lsl	r1, r0, #0
    2d88:	3740      	add	r7, #64
    2d8a:	0001      	lsl	r1, r0, #0
    2d8c:	3758      	add	r7, #88
    2d8e:	0001      	lsl	r1, r0, #0
    2d90:	3770      	add	r7, #112
    2d92:	0001      	lsl	r1, r0, #0
    2d94:	3778      	add	r7, #120
    2d96:	0001      	lsl	r1, r0, #0
    2d98:	6c80      	ldr	r0, [r0, #72]
    2d9a:	4000      	and	r0, r0
    2d9c:	378c      	add	r7, #140
    2d9e:	0001      	lsl	r1, r0, #0
    2da0:	38d8      	sub	r0, #216
    2da2:	0001      	lsl	r1, r0, #0
    2da4:	3790      	add	r7, #144
    2da6:	0001      	lsl	r1, r0, #0
    2da8:	3798      	add	r7, #152
    2daa:	0001      	lsl	r1, r0, #0
    2dac:	39a0      	sub	r1, #160
    2dae:	0001      	lsl	r1, r0, #0
    2db0:	37b0      	add	r7, #176
    2db2:	0001      	lsl	r1, r0, #0
    2db4:	37b8      	add	r7, #184
    2db6:	0001      	lsl	r1, r0, #0
    2db8:	37cc      	add	r7, #204
    2dba:	0001      	lsl	r1, r0, #0
    2dbc:	37ec      	add	r7, #236
    2dbe:	0001      	lsl	r1, r0, #0
    2dc0:	3800      	sub	r0, #0
    2dc2:	0001      	lsl	r1, r0, #0
    2dc4:	3808      	sub	r0, #8
    2dc6:	0001      	lsl	r1, r0, #0
    2dc8:	381c      	sub	r0, #28
    2dca:	0001      	lsl	r1, r0, #0
    2dcc:	3834      	sub	r0, #52
    2dce:	0001      	lsl	r1, r0, #0
    2dd0:	3838      	sub	r0, #56
    2dd2:	0001      	lsl	r1, r0, #0
    2dd4:	384c      	sub	r0, #76
    2dd6:	0001      	lsl	r1, r0, #0
    2dd8:	41d8      	ror	r0, r3
    2dda:	0001      	lsl	r1, r0, #0
    2ddc:	3860      	sub	r0, #96
    2dde:	0001      	lsl	r1, r0, #0
    2de0:	387c      	sub	r0, #124
    2de2:	0001      	lsl	r1, r0, #0

00002de4 <uptime>:
    2de4:	b5f0      	push	{r4, r5, r6, r7, lr}
    2de6:	4647      	mov	r7, r8
    2de8:	b480      	push	{r7}
    2dea:	1c05      	mov	r5, r0		(add r5, r0, #0)
    2dec:	1c0e      	mov	r6, r1		(add r6, r1, #0)
    2dee:	1c17      	mov	r7, r2		(add r7, r2, #0)
    2df0:	4698      	mov	r8, r3
    2df2:	fcbbf7fe 	bl	176c <xTaskGetTickCount>
    2df6:	1c01      	mov	r1, r0		(add r1, r0, #0)
    2df8:	4b23      	ldr	r3, [pc, #140]	(2e88 <prog+0x2e44>)
    2dfa:	681b      	ldr	r3, [r3, #0]
    2dfc:	4298      	cmp	r0, r3
    2dfe:	d203      	bcs	2e08 <uptime+0x24>
    2e00:	4a22      	ldr	r2, [pc, #136]	(2e8c <prog+0x2e48>)
    2e02:	6813      	ldr	r3, [r2, #0]
    2e04:	3301      	add	r3, #1
    2e06:	6013      	str	r3, [r2, #0]
    2e08:	4b1f      	ldr	r3, [pc, #124]	(2e88 <prog+0x2e44>)
    2e0a:	6019      	str	r1, [r3, #0]
    2e0c:	4b1f      	ldr	r3, [pc, #124]	(2e8c <prog+0x2e48>)
    2e0e:	6818      	ldr	r0, [r3, #0]
    2e10:	1a08      	sub	r0, r1, r0
    2e12:	21fa      	mov	r1, #250
    2e14:	0089      	lsl	r1, r1, #2
    2e16:	fb53f00c 	bl	f4c0 <__aeabi_uidiv>
    2e1a:	1c04      	mov	r4, r0		(add r4, r0, #0)
    2e1c:	213c      	mov	r1, #60
    2e1e:	fbe7f00c 	bl	f5f0 <__umodsi3>
    2e22:	6028      	str	r0, [r5, #0]
    2e24:	1c20      	mov	r0, r4		(add r0, r4, #0)
    2e26:	213c      	mov	r1, #60
    2e28:	fb4af00c 	bl	f4c0 <__aeabi_uidiv>
    2e2c:	6030      	str	r0, [r6, #0]
    2e2e:	283c      	cmp	r0, #60
    2e30:	d903      	bls	2e3a <uptime+0x56>
    2e32:	213c      	mov	r1, #60
    2e34:	fbdcf00c 	bl	f5f0 <__umodsi3>
    2e38:	6030      	str	r0, [r6, #0]
    2e3a:	21e1      	mov	r1, #225
    2e3c:	0109      	lsl	r1, r1, #4
    2e3e:	1c20      	mov	r0, r4		(add r0, r4, #0)
    2e40:	fb3ef00c 	bl	f4c0 <__aeabi_uidiv>
    2e44:	6038      	str	r0, [r7, #0]
    2e46:	2817      	cmp	r0, #23
    2e48:	d903      	bls	2e52 <uptime+0x6e>
    2e4a:	2118      	mov	r1, #24
    2e4c:	fbd0f00c 	bl	f5f0 <__umodsi3>
    2e50:	6038      	str	r0, [r7, #0]
    2e52:	1c20      	mov	r0, r4		(add r0, r4, #0)
    2e54:	490e      	ldr	r1, [pc, #56]	(2e90 <prog+0x2e4c>)
    2e56:	fb33f00c 	bl	f4c0 <__aeabi_uidiv>
    2e5a:	4643      	mov	r3, r8
    2e5c:	6018      	str	r0, [r3, #0]
    2e5e:	23b6      	mov	r3, #182
    2e60:	005b      	lsl	r3, r3, #1
    2e62:	4298      	cmp	r0, r3
    2e64:	d904      	bls	2e70 <uptime+0x8c>
    2e66:	490b      	ldr	r1, [pc, #44]	(2e94 <prog+0x2e50>)
    2e68:	fbc2f00c 	bl	f5f0 <__umodsi3>
    2e6c:	4643      	mov	r3, r8
    2e6e:	6018      	str	r0, [r3, #0]
    2e70:	1c20      	mov	r0, r4		(add r0, r4, #0)
    2e72:	4909      	ldr	r1, [pc, #36]	(2e98 <prog+0x2e54>)
    2e74:	fb24f00c 	bl	f4c0 <__aeabi_uidiv>
    2e78:	9b06      	ldr	r3, [sp, #24]
    2e7a:	6018      	str	r0, [r3, #0]
    2e7c:	bc04      	pop	{r2}
    2e7e:	4690      	mov	r8, r2
    2e80:	bcf0      	pop	{r4, r5, r6, r7}
    2e82:	bc01      	pop	{r0}
    2e84:	4700      	bx	r0
    2e86:	0000      	lsl	r0, r0, #0
    2e88:	6008      	str	r0, [r1, #0]
    2e8a:	4000      	and	r0, r0
    2e8c:	6004      	str	r4, [r0, #0]
    2e8e:	4000      	and	r0, r0
    2e90:	5180      	str	r0, [r0, r6]
    2e92:	0001      	lsl	r1, r0, #0
    2e94:	016d      	lsl	r5, r5, #5
    2e96:	0000      	lsl	r0, r0, #0
    2e98:	1ec0      	sub	r0, r0, #3
    2e9a:	0030      	lsl	r0, r6, #0

00002e9c <cek_stack>:
    2e9c:	b500      	push	{lr}
    2e9e:	4813      	ldr	r0, [pc, #76]	(2eec <prog+0x2ea8>)
    2ea0:	f82cf7fe 	bl	efc <printf2>
    2ea4:	fde2f000 	bl	3a6c <garis_bawah>
    2ea8:	4b11      	ldr	r3, [pc, #68]	(2ef0 <prog+0x2eac>)
    2eaa:	6818      	ldr	r0, [r3, #0]
    2eac:	fb02f7fe 	bl	14b4 <uxTaskGetStackHighWaterMark>
    2eb0:	1c01      	mov	r1, r0		(add r1, r0, #0)
    2eb2:	4810      	ldr	r0, [pc, #64]	(2ef4 <prog+0x2eb0>)
    2eb4:	f822f7fe 	bl	efc <printf2>
    2eb8:	4b0f      	ldr	r3, [pc, #60]	(2ef8 <prog+0x2eb4>)
    2eba:	6818      	ldr	r0, [r3, #0]
    2ebc:	fafaf7fe 	bl	14b4 <uxTaskGetStackHighWaterMark>
    2ec0:	1c01      	mov	r1, r0		(add r1, r0, #0)
    2ec2:	480e      	ldr	r0, [pc, #56]	(2efc <prog+0x2eb8>)
    2ec4:	f81af7fe 	bl	efc <printf2>
    2ec8:	4b0d      	ldr	r3, [pc, #52]	(2f00 <prog+0x2ebc>)
    2eca:	6818      	ldr	r0, [r3, #0]
    2ecc:	faf2f7fe 	bl	14b4 <uxTaskGetStackHighWaterMark>
    2ed0:	1c01      	mov	r1, r0		(add r1, r0, #0)
    2ed2:	480c      	ldr	r0, [pc, #48]	(2f04 <prog+0x2ec0>)
    2ed4:	f812f7fe 	bl	efc <printf2>
    2ed8:	4b0b      	ldr	r3, [pc, #44]	(2f08 <prog+0x2ec4>)
    2eda:	6818      	ldr	r0, [r3, #0]
    2edc:	faeaf7fe 	bl	14b4 <uxTaskGetStackHighWaterMark>
    2ee0:	1c01      	mov	r1, r0		(add r1, r0, #0)
    2ee2:	480a      	ldr	r0, [pc, #40]	(2f0c <prog+0x2ec8>)
    2ee4:	f80af7fe 	bl	efc <printf2>
    2ee8:	bc01      	pop	{r0}
    2eea:	4700      	bx	r0
    2eec:	3894      	sub	r0, #148
    2eee:	0001      	lsl	r1, r0, #0
    2ef0:	64a8      	str	r0, [r5, #72]
    2ef2:	4000      	and	r0, r0
    2ef4:	38b8      	sub	r0, #184
    2ef6:	0001      	lsl	r1, r0, #0
    2ef8:	64b8      	str	r0, [r7, #72]
    2efa:	4000      	and	r0, r0
    2efc:	38cc      	sub	r0, #204
    2efe:	0001      	lsl	r1, r0, #0
    2f00:	64a4      	str	r4, [r4, #72]
    2f02:	4000      	and	r0, r0
    2f04:	38e0      	sub	r0, #224
    2f06:	0001      	lsl	r1, r0, #0
    2f08:	64ac      	str	r4, [r5, #72]
    2f0a:	4000      	and	r0, r0
    2f0c:	38f4      	sub	r0, #244
    2f0e:	0001      	lsl	r1, r0, #0

00002f10 <w_rpm>:
    2f10:	b500      	push	{lr}
    2f12:	2801      	cmp	r0, #1
    2f14:	dd0a      	ble	2f2c <w_rpm+0x1c>
    2f16:	6848      	ldr	r0, [r1, #4]
    2f18:	21fa      	mov	r1, #250
    2f1a:	00c9      	lsl	r1, r1, #3
    2f1c:	fdaef000 	bl	3a7c <cek_nomer_valid>
    2f20:	1c01      	mov	r1, r0		(add r1, r0, #0)
    2f22:	4b03      	ldr	r3, [pc, #12]	(2f30 <prog+0x2eec>)
    2f24:	6018      	str	r0, [r3, #0]
    2f26:	4803      	ldr	r0, [pc, #12]	(2f34 <prog+0x2ef0>)
    2f28:	ffe8f7fd 	bl	efc <printf2>
    2f2c:	bc01      	pop	{r0}
    2f2e:	4700      	bx	r0
    2f30:	5ffc      	ldrsh	r4, [r7, r7]
    2f32:	4000      	and	r0, r0
    2f34:	3908      	sub	r1, #8
    2f36:	0001      	lsl	r1, r0, #0

00002f38 <kirim_serial>:
    2f38:	b530      	push	{r4, r5, lr}
    2f3a:	b08a      	sub	sp, #40
    2f3c:	1c0c      	mov	r4, r1		(add r4, r1, #0)
    2f3e:	2802      	cmp	r0, #2
    2f40:	dc03      	bgt	2f4a <kirim_serial+0x12>
    2f42:	480e      	ldr	r0, [pc, #56]	(2f7c <prog+0x2f38>)
    2f44:	ffdaf7fd 	bl	efc <printf2>
    2f48:	e013      	b	2f72 <kirim_serial+0x3a>
    2f4a:	fc1bf7ff 	bl	2784 <display_args>
    2f4e:	6861      	ldr	r1, [r4, #4]
    2f50:	4668      	mov	r0, sp
    2f52:	ffc9f004 	bl	7ee8 <strcpy>
    2f56:	4668      	mov	r0, sp
    2f58:	2105      	mov	r1, #5
    2f5a:	fd8ff000 	bl	3a7c <cek_nomer_valid>
    2f5e:	2802      	cmp	r0, #2
    2f60:	d107      	bne	2f72 <kirim_serial+0x3a>
    2f62:	68a1      	ldr	r1, [r4, #8]
    2f64:	4668      	mov	r0, sp
    2f66:	fd11f000 	bl	398c <ganti_kata>
    2f6a:	2002      	mov	r0, #2
    2f6c:	4669      	mov	r1, sp
    2f6e:	fe71f7fd 	bl	c54 <serX_putstring>
    2f72:	b00a      	add	sp, #40
    2f74:	bc30      	pop	{r4, r5}
    2f76:	bc01      	pop	{r0}
    2f78:	4700      	bx	r0
    2f7a:	0000      	lsl	r0, r0, #0
    2f7c:	3724      	add	r7, #36
    2f7e:	0001      	lsl	r1, r0, #0

00002f80 <paket_rpm>:
    2f80:	b500      	push	{lr}
    2f82:	2120      	mov	r1, #32
    2f84:	ff3ef004 	bl	7e04 <strchr>
    2f88:	2800      	cmp	r0, #0
    2f8a:	d006      	beq	2f9a <paket_rpm+0x1a>
    2f8c:	3001      	add	r0, #1
    2f8e:	21fa      	mov	r1, #250
    2f90:	00c9      	lsl	r1, r1, #3
    2f92:	fd73f000 	bl	3a7c <cek_nomer_valid>
    2f96:	4b02      	ldr	r3, [pc, #8]	(2fa0 <prog+0x2f5c>)
    2f98:	6018      	str	r0, [r3, #0]
    2f9a:	bc01      	pop	{r0}
    2f9c:	4700      	bx	r0
    2f9e:	0000      	lsl	r0, r0, #0
    2fa0:	5ffc      	ldrsh	r4, [r7, r7]
    2fa2:	4000      	and	r0, r0

00002fa4 <lihatKonfig>:
    2fa4:	b500      	push	{lr}
    2fa6:	4802      	ldr	r0, [pc, #8]	(2fb0 <prog+0x2f6c>)
    2fa8:	fe40f7fd 	bl	c2c <ser2_putstring>
    2fac:	bc01      	pop	{r0}
    2fae:	4700      	bx	r0
    2fb0:	3918      	sub	r1, #24
    2fb2:	0001      	lsl	r1, r0, #0

00002fb4 <resetKincir>:
    2fb4:	b500      	push	{lr}
    2fb6:	4802      	ldr	r0, [pc, #8]	(2fc0 <prog+0x2f7c>)
    2fb8:	fe38f7fd 	bl	c2c <ser2_putstring>
    2fbc:	bc01      	pop	{r0}
    2fbe:	4700      	bx	r0
    2fc0:	3924      	sub	r1, #36
    2fc2:	0001      	lsl	r1, r0, #0

00002fc4 <mtrmati>:
    2fc4:	b500      	push	{lr}
    2fc6:	4802      	ldr	r0, [pc, #8]	(2fd0 <prog+0x2f8c>)
    2fc8:	fe30f7fd 	bl	c2c <ser2_putstring>
    2fcc:	bc01      	pop	{r0}
    2fce:	4700      	bx	r0
    2fd0:	3934      	sub	r1, #52
    2fd2:	0001      	lsl	r1, r0, #0

00002fd4 <mtrB>:
    2fd4:	b500      	push	{lr}
    2fd6:	4802      	ldr	r0, [pc, #8]	(2fe0 <prog+0x2f9c>)
    2fd8:	fe28f7fd 	bl	c2c <ser2_putstring>
    2fdc:	bc01      	pop	{r0}
    2fde:	4700      	bx	r0
    2fe0:	3944      	sub	r1, #68
    2fe2:	0001      	lsl	r1, r0, #0

00002fe4 <mtrA>:
    2fe4:	b500      	push	{lr}
    2fe6:	4802      	ldr	r0, [pc, #8]	(2ff0 <prog+0x2fac>)
    2fe8:	fe20f7fd 	bl	c2c <ser2_putstring>
    2fec:	bc01      	pop	{r0}
    2fee:	4700      	bx	r0
    2ff0:	3950      	sub	r1, #80
    2ff2:	0001      	lsl	r1, r0, #0

00002ff4 <reboot_wusb>:
    2ff4:	b500      	push	{lr}
    2ff6:	4802      	ldr	r0, [pc, #8]	(3000 <prog+0x2fbc>)
    2ff8:	fe18f7fd 	bl	c2c <ser2_putstring>
    2ffc:	bc01      	pop	{r0}
    2ffe:	4700      	bx	r0
    3000:	395c      	sub	r1, #92
    3002:	0001      	lsl	r1, r0, #0

00003004 <CYWM_ReadReg>:
    3004:	b530      	push	{r4, r5, lr}
    3006:	0604      	lsl	r4, r0, #24
    3008:	0e24      	lsr	r4, r4, #24
    300a:	fa9bf011 	bl	14544 <__vPortEnterCritical_from_thumb>
    300e:	2580      	mov	r5, #128
    3010:	03ad      	lsl	r5, r5, #14
    3012:	4b08      	ldr	r3, [pc, #32]	(3034 <prog+0x2ff0>)
    3014:	601d      	str	r5, [r3, #0]
    3016:	1c20      	mov	r0, r4		(add r0, r4, #0)
    3018:	fb74f7ff 	bl	2704 <kirim_SSP0>
    301c:	fb8af7ff 	bl	2734 <ambil_SSP0>
    3020:	1c04      	mov	r4, r0		(add r4, r0, #0)
    3022:	4b05      	ldr	r3, [pc, #20]	(3038 <prog+0x2ff4>)
    3024:	601d      	str	r5, [r3, #0]
    3026:	fa91f011 	bl	1454c <__vPortExitCritical_from_thumb>
    302a:	1c20      	mov	r0, r4		(add r0, r4, #0)
    302c:	bc30      	pop	{r4, r5}
    302e:	bc02      	pop	{r1}
    3030:	4708      	bx	r1
    3032:	0000      	lsl	r0, r0, #0
    3034:	c03c      	stmia	r0!,{r2, r3, r4, r5}
    3036:	3fff      	sub	r7, #255
    3038:	c038      	stmia	r0!,{r3, r4, r5}
    303a:	3fff      	sub	r7, #255

0000303c <cek_uptime>:
    303c:	b500      	push	{lr}
    303e:	b086      	sub	sp, #24
    3040:	ab01      	add	r3, sp, #4
    3042:	9300      	str	r3, [sp, #0]
    3044:	a805      	add	r0, sp, #20
    3046:	a904      	add	r1, sp, #16
    3048:	aa03      	add	r2, sp, #12
    304a:	ab02      	add	r3, sp, #8
    304c:	fecaf7ff 	bl	2de4 <uptime>
    3050:	4819      	ldr	r0, [pc, #100]	(30b8 <prog+0x3074>)
    3052:	ff53f7fd 	bl	efc <printf2>
    3056:	9901      	ldr	r1, [sp, #4]
    3058:	2900      	cmp	r1, #0
    305a:	d002      	beq	3062 <cek_uptime+0x26>
    305c:	4817      	ldr	r0, [pc, #92]	(30bc <prog+0x3078>)
    305e:	ff4df7fd 	bl	efc <printf2>
    3062:	9902      	ldr	r1, [sp, #8]
    3064:	2900      	cmp	r1, #0
    3066:	d002      	beq	306e <cek_uptime+0x32>
    3068:	4815      	ldr	r0, [pc, #84]	(30c0 <prog+0x307c>)
    306a:	ff47f7fd 	bl	efc <printf2>
    306e:	9903      	ldr	r1, [sp, #12]
    3070:	2900      	cmp	r1, #0
    3072:	d002      	beq	307a <cek_uptime+0x3e>
    3074:	4813      	ldr	r0, [pc, #76]	(30c4 <prog+0x3080>)
    3076:	ff41f7fd 	bl	efc <printf2>
    307a:	9904      	ldr	r1, [sp, #16]
    307c:	2900      	cmp	r1, #0
    307e:	d002      	beq	3086 <cek_uptime+0x4a>
    3080:	4811      	ldr	r0, [pc, #68]	(30c8 <prog+0x3084>)
    3082:	ff3bf7fd 	bl	efc <printf2>
    3086:	4811      	ldr	r0, [pc, #68]	(30cc <prog+0x3088>)
    3088:	9905      	ldr	r1, [sp, #20]
    308a:	4b11      	ldr	r3, [pc, #68]	(30d0 <prog+0x308c>)
    308c:	681a      	ldr	r2, [r3, #0]
    308e:	ff35f7fd 	bl	efc <printf2>
    3092:	2022      	mov	r0, #34
    3094:	ffb6f7ff 	bl	3004 <CYWM_ReadReg>
    3098:	1c02      	mov	r2, r0		(add r2, r0, #0)
    309a:	0683      	lsl	r3, r0, #26
    309c:	d501      	bpl	30a2 <cek_uptime+0x66>
    309e:	490d      	ldr	r1, [pc, #52]	(30d4 <prog+0x3090>)
    30a0:	e000      	b	30a4 <cek_uptime+0x68>
    30a2:	490d      	ldr	r1, [pc, #52]	(30d8 <prog+0x3094>)
    30a4:	9205      	str	r2, [sp, #20]
    30a6:	480d      	ldr	r0, [pc, #52]	(30dc <prog+0x3098>)
    30a8:	231f      	mov	r3, #31
    30aa:	401a      	and	r2, r3
    30ac:	ff26f7fd 	bl	efc <printf2>
    30b0:	b006      	add	sp, #24
    30b2:	bc01      	pop	{r0}
    30b4:	4700      	bx	r0
    30b6:	0000      	lsl	r0, r0, #0
    30b8:	3964      	sub	r1, #100
    30ba:	0001      	lsl	r1, r0, #0
    30bc:	396c      	sub	r1, #108
    30be:	0001      	lsl	r1, r0, #0
    30c0:	3974      	sub	r1, #116
    30c2:	0001      	lsl	r1, r0, #0
    30c4:	3980      	sub	r1, #128
    30c6:	0001      	lsl	r1, r0, #0
    30c8:	3988      	sub	r1, #136
    30ca:	0001      	lsl	r1, r0, #0
    30cc:	3990      	sub	r1, #144
    30ce:	0001      	lsl	r1, r0, #0
    30d0:	64a0      	str	r0, [r4, #72]
    30d2:	4000      	and	r0, r0
    30d4:	3a30      	sub	r2, #48
    30d6:	0001      	lsl	r1, r0, #0
    30d8:	3310      	add	r3, #16
    30da:	0001      	lsl	r1, r0, #0
    30dc:	3318      	add	r3, #24
    30de:	0001      	lsl	r1, r0, #0

000030e0 <CYWM_WriteReg>:
    30e0:	b570      	push	{r4, r5, r6, lr}
    30e2:	0604      	lsl	r4, r0, #24
    30e4:	0e24      	lsr	r4, r4, #24
    30e6:	060e      	lsl	r6, r1, #24
    30e8:	0e36      	lsr	r6, r6, #24
    30ea:	fa2bf011 	bl	14544 <__vPortEnterCritical_from_thumb>
    30ee:	2580      	mov	r5, #128
    30f0:	03ad      	lsl	r5, r5, #14
    30f2:	4b0a      	ldr	r3, [pc, #40]	(311c <prog+0x30d8>)
    30f4:	601d      	str	r5, [r3, #0]
    30f6:	2380      	mov	r3, #128
    30f8:	425b      	neg	r3, r3
    30fa:	431c      	orr	r4, r3
    30fc:	0624      	lsl	r4, r4, #24
    30fe:	0e24      	lsr	r4, r4, #24
    3100:	1c20      	mov	r0, r4		(add r0, r4, #0)
    3102:	fafff7ff 	bl	2704 <kirim_SSP0>
    3106:	1c30      	mov	r0, r6		(add r0, r6, #0)
    3108:	fafcf7ff 	bl	2704 <kirim_SSP0>
    310c:	4b04      	ldr	r3, [pc, #16]	(3120 <prog+0x30dc>)
    310e:	601d      	str	r5, [r3, #0]
    3110:	fa1cf011 	bl	1454c <__vPortExitCritical_from_thumb>
    3114:	bc70      	pop	{r4, r5, r6}
    3116:	bc01      	pop	{r0}
    3118:	4700      	bx	r0
    311a:	0000      	lsl	r0, r0, #0
    311c:	c03c      	stmia	r0!,{r2, r3, r4, r5}
    311e:	3fff      	sub	r7, #255
    3120:	c038      	stmia	r0!,{r3, r4, r5}
    3122:	3fff      	sub	r7, #255

00003124 <cek_wusb>:
    3124:	b510      	push	{r4, lr}
    3126:	2008      	mov	r0, #8
    3128:	ff6cf7ff 	bl	3004 <CYWM_ReadReg>
    312c:	1c04      	mov	r4, r0		(add r4, r0, #0)
    312e:	2303      	mov	r3, #3
    3130:	4218      	tst	r0, r3
    3132:	d00c      	beq	314e <cek_wusb+0x2a>
    3134:	2007      	mov	r0, #7
    3136:	2103      	mov	r1, #3
    3138:	ffd2f7ff 	bl	30e0 <CYWM_WriteReg>
    313c:	0723      	lsl	r3, r4, #28
    313e:	d506      	bpl	314e <cek_wusb+0x2a>
    3140:	2009      	mov	r0, #9
    3142:	ff5ff7ff 	bl	3004 <CYWM_ReadReg>
    3146:	1c01      	mov	r1, r0		(add r1, r0, #0)
    3148:	4802      	ldr	r0, [pc, #8]	(3154 <prog+0x3110>)
    314a:	fed7f7fd 	bl	efc <printf2>
    314e:	bc10      	pop	{r4}
    3150:	bc01      	pop	{r0}
    3152:	4700      	bx	r0
    3154:	39a4      	sub	r1, #164
    3156:	0001      	lsl	r1, r0, #0

00003158 <wireless_putc>:
    3158:	b530      	push	{r4, r5, lr}
    315a:	0600      	lsl	r0, r0, #24
    315c:	0e05      	lsr	r5, r0, #24
    315e:	2401      	mov	r4, #1
    3160:	200e      	mov	r0, #14
    3162:	ff4ff7ff 	bl	3004 <CYWM_ReadReg>
    3166:	4220      	tst	r0, r4
    3168:	d0fa      	beq	3160 <wireless_putc+0x8>
    316a:	200d      	mov	r0, #13
    316c:	2101      	mov	r1, #1
    316e:	ffb7f7ff 	bl	30e0 <CYWM_WriteReg>
    3172:	200f      	mov	r0, #15
    3174:	1c29      	mov	r1, r5		(add r1, r5, #0)
    3176:	ffb3f7ff 	bl	30e0 <CYWM_WriteReg>
    317a:	bc30      	pop	{r4, r5}
    317c:	bc01      	pop	{r0}
    317e:	4700      	bx	r0

00003180 <wireless_puts>:
    3180:	b570      	push	{r4, r5, r6, lr}
    3182:	1c06      	mov	r6, r0		(add r6, r0, #0)
    3184:	fed8f004 	bl	7f38 <strlen>
    3188:	1c05      	mov	r5, r0		(add r5, r0, #0)
    318a:	2800      	cmp	r0, #0
    318c:	dd06      	ble	319c <wireless_puts+0x1c>
    318e:	2400      	mov	r4, #0
    3190:	5da0      	ldrb	r0, [r4, r6]
    3192:	ffe1f7ff 	bl	3158 <wireless_putc>
    3196:	3401      	add	r4, #1
    3198:	42a5      	cmp	r5, r4
    319a:	d1f9      	bne	3190 <wireless_puts+0x10>
    319c:	bc70      	pop	{r4, r5, r6}
    319e:	bc01      	pop	{r0}
    31a0:	4700      	bx	r0
	...

000031a4 <kirim_wusb>:
    31a4:	b510      	push	{r4, lr}
    31a6:	1c04      	mov	r4, r0		(add r4, r0, #0)
    31a8:	2022      	mov	r0, #34
    31aa:	ff2bf7ff 	bl	3004 <CYWM_ReadReg>
    31ae:	0683      	lsl	r3, r0, #26
    31b0:	d511      	bpl	31d6 <kirim_wusb+0x32>
    31b2:	2003      	mov	r0, #3
    31b4:	2140      	mov	r1, #64
    31b6:	ff93f7ff 	bl	30e0 <CYWM_WriteReg>
    31ba:	1c20      	mov	r0, r4		(add r0, r4, #0)
    31bc:	ffe0f7ff 	bl	3180 <wireless_puts>
    31c0:	200a      	mov	r0, #10
    31c2:	ffc9f7ff 	bl	3158 <wireless_putc>
    31c6:	4805      	ldr	r0, [pc, #20]	(31dc <prog+0x3198>)
    31c8:	1c21      	mov	r1, r4		(add r1, r4, #0)
    31ca:	fe97f7fd 	bl	efc <printf2>
    31ce:	2003      	mov	r0, #3
    31d0:	2180      	mov	r1, #128
    31d2:	ff85f7ff 	bl	30e0 <CYWM_WriteReg>
    31d6:	bc10      	pop	{r4}
    31d8:	bc01      	pop	{r0}
    31da:	4700      	bx	r0
    31dc:	3f14      	sub	r7, #20
    31de:	0001      	lsl	r1, r0, #0

000031e0 <konfig_WUSB>:
    31e0:	b530      	push	{r4, r5, lr}
    31e2:	0600      	lsl	r0, r0, #24
    31e4:	0e05      	lsr	r5, r0, #24
    31e6:	2400      	mov	r4, #0
    31e8:	e001      	b	31ee <konfig_WUSB+0xe>
    31ea:	2807      	cmp	r0, #7
    31ec:	d002      	beq	31f4 <konfig_WUSB+0x14>
    31ee:	2000      	mov	r0, #0
    31f0:	ff08f7ff 	bl	3004 <CYWM_ReadReg>
    31f4:	3401      	add	r4, #1
    31f6:	2c18      	cmp	r4, #24
    31f8:	ddf7      	ble	31ea <konfig_WUSB+0xa>
    31fa:	f9a3f011 	bl	14544 <__vPortEnterCritical_from_thumb>
    31fe:	2032      	mov	r0, #50
    3200:	2141      	mov	r1, #65
    3202:	ff6df7ff 	bl	30e0 <CYWM_WriteReg>
    3206:	2033      	mov	r0, #51
    3208:	2141      	mov	r1, #65
    320a:	ff69f7ff 	bl	30e0 <CYWM_WriteReg>
    320e:	2006      	mov	r0, #6
    3210:	210b      	mov	r1, #11
    3212:	ff65f7ff 	bl	30e0 <CYWM_WriteReg>
    3216:	2010      	mov	r0, #16
    3218:	21ff      	mov	r1, #255
    321a:	ff61f7ff 	bl	30e0 <CYWM_WriteReg>
    321e:	2026      	mov	r0, #38
    3220:	21c0      	mov	r1, #192
    3222:	ff5df7ff 	bl	30e0 <CYWM_WriteReg>
    3226:	2020      	mov	r0, #32
    3228:	2104      	mov	r1, #4
    322a:	ff59f7ff 	bl	30e0 <CYWM_WriteReg>
    322e:	2021      	mov	r0, #33
    3230:	212a      	mov	r1, #42
    3232:	ff55f7ff 	bl	30e0 <CYWM_WriteReg>
    3236:	2023      	mov	r0, #35
    3238:	2107      	mov	r1, #7
    323a:	ff51f7ff 	bl	30e0 <CYWM_WriteReg>
    323e:	2007      	mov	r0, #7
    3240:	2103      	mov	r1, #3
    3242:	ff4df7ff 	bl	30e0 <CYWM_WriteReg>
    3246:	2d62      	cmp	r5, #98
    3248:	d104      	bne	3254 <konfig_WUSB+0x74>
    324a:	2003      	mov	r0, #3
    324c:	2180      	mov	r1, #128
    324e:	ff47f7ff 	bl	30e0 <CYWM_WriteReg>
    3252:	e003      	b	325c <konfig_WUSB+0x7c>
    3254:	2003      	mov	r0, #3
    3256:	2140      	mov	r1, #64
    3258:	ff42f7ff 	bl	30e0 <CYWM_WriteReg>
    325c:	f976f011 	bl	1454c <__vPortExitCritical_from_thumb>
    3260:	bc30      	pop	{r4, r5}
    3262:	bc01      	pop	{r0}
    3264:	4700      	bx	r0
	...

00003268 <hapus_flash>:
    3268:	b500      	push	{lr}
    326a:	b087      	sub	sp, #28
    326c:	2334      	mov	r3, #52
    326e:	9302      	str	r3, [sp, #8]
    3270:	9003      	str	r0, [sp, #12]
    3272:	9104      	str	r1, [sp, #16]
    3274:	4b0b      	ldr	r3, [pc, #44]	(32a4 <prog+0x3260>)
    3276:	9305      	str	r3, [sp, #20]
    3278:	f964f011 	bl	14544 <__vPortEnterCritical_from_thumb>
    327c:	a802      	add	r0, sp, #8
    327e:	4669      	mov	r1, sp
    3280:	4b09      	ldr	r3, [pc, #36]	(32a8 <prog+0x3264>)
    3282:	f97df000 	bl	3580 <prog+0x353c>
    3286:	f961f011 	bl	1454c <__vPortExitCritical_from_thumb>
    328a:	9b00      	ldr	r3, [sp, #0]
    328c:	2b00      	cmp	r3, #0
    328e:	d101      	bne	3294 <hapus_flash+0x2c>
    3290:	2000      	mov	r0, #0
    3292:	e003      	b	329c <hapus_flash+0x34>
    3294:	4805      	ldr	r0, [pc, #20]	(32ac <prog+0x3268>)
    3296:	fe31f7fd 	bl	efc <printf2>
    329a:	9800      	ldr	r0, [sp, #0]
    329c:	b007      	add	sp, #28
    329e:	bc02      	pop	{r1}
    32a0:	4708      	bx	r1
    32a2:	0000      	lsl	r0, r0, #0
    32a4:	ea60      	undefined
    32a6:	0000      	lsl	r0, r0, #0
    32a8:	fff1      	second half of BL instruction 0xfff1
    32aa:	7fff      	ldrb	r7, [r7, #31]
    32ac:	39a8      	sub	r1, #168
    32ae:	0001      	lsl	r1, r0, #0

000032b0 <prepare_flash>:
    32b0:	b500      	push	{lr}
    32b2:	b087      	sub	sp, #28
    32b4:	2332      	mov	r3, #50
    32b6:	9302      	str	r3, [sp, #8]
    32b8:	9003      	str	r0, [sp, #12]
    32ba:	9104      	str	r1, [sp, #16]
    32bc:	f942f011 	bl	14544 <__vPortEnterCritical_from_thumb>
    32c0:	a802      	add	r0, sp, #8
    32c2:	4669      	mov	r1, sp
    32c4:	4b08      	ldr	r3, [pc, #32]	(32e8 <prog+0x32a4>)
    32c6:	f95bf000 	bl	3580 <prog+0x353c>
    32ca:	f93ff011 	bl	1454c <__vPortExitCritical_from_thumb>
    32ce:	9b00      	ldr	r3, [sp, #0]
    32d0:	2b00      	cmp	r3, #0
    32d2:	d101      	bne	32d8 <prepare_flash+0x28>
    32d4:	2000      	mov	r0, #0
    32d6:	e003      	b	32e0 <prepare_flash+0x30>
    32d8:	4804      	ldr	r0, [pc, #16]	(32ec <prog+0x32a8>)
    32da:	fe0ff7fd 	bl	efc <printf2>
    32de:	9800      	ldr	r0, [sp, #0]
    32e0:	b007      	add	sp, #28
    32e2:	bc02      	pop	{r1}
    32e4:	4708      	bx	r1
    32e6:	0000      	lsl	r0, r0, #0
    32e8:	fff1      	second half of BL instruction 0xfff1
    32ea:	7fff      	ldrb	r7, [r7, #31]
    32ec:	39bc      	sub	r1, #188
    32ee:	0001      	lsl	r1, r0, #0

000032f0 <tulis_flash>:
    32f0:	b5f0      	push	{r4, r5, r6, r7, lr}
    32f2:	4647      	mov	r7, r8
    32f4:	b480      	push	{r7}
    32f6:	b087      	sub	sp, #28
    32f8:	4680      	mov	r8, r0
    32fa:	1c0f      	mov	r7, r1		(add r7, r1, #0)
    32fc:	1c15      	mov	r5, r2		(add r5, r2, #0)
    32fe:	2a00      	cmp	r2, #0
    3300:	dd3e      	ble	3380 <tulis_flash+0x90>
    3302:	2600      	mov	r6, #0
    3304:	2380      	mov	r3, #128
    3306:	005b      	lsl	r3, r3, #1
    3308:	429d      	cmp	r5, r3
    330a:	dd3b      	ble	3384 <tulis_flash+0x94>
    330c:	2480      	mov	r4, #128
    330e:	00a4      	lsl	r4, r4, #2
    3310:	42a5      	cmp	r5, r4
    3312:	dd01      	ble	3318 <tulis_flash+0x28>
    3314:	2480      	mov	r4, #128
    3316:	00e4      	lsl	r4, r4, #3
    3318:	491f      	ldr	r1, [pc, #124]	(3398 <prog+0x3354>)
    331a:	186a      	add	r2, r5, r1
    331c:	4b1f      	ldr	r3, [pc, #124]	(339c <prog+0x3358>)
    331e:	429a      	cmp	r2, r3
    3320:	d801      	bhi	3326 <tulis_flash+0x36>
    3322:	2480      	mov	r4, #128
    3324:	0164      	lsl	r4, r4, #5
    3326:	2333      	mov	r3, #51
    3328:	9302      	str	r3, [sp, #8]
    332a:	0073      	lsl	r3, r6, #1
    332c:	4641      	mov	r1, r8
    332e:	185a      	add	r2, r3, r1
    3330:	9203      	str	r2, [sp, #12]
    3332:	19db      	add	r3, r3, r7
    3334:	9304      	str	r3, [sp, #16]
    3336:	9405      	str	r4, [sp, #20]
    3338:	4b19      	ldr	r3, [pc, #100]	(33a0 <prog+0x335c>)
    333a:	9306      	str	r3, [sp, #24]
    333c:	f902f011 	bl	14544 <__vPortEnterCritical_from_thumb>
    3340:	a802      	add	r0, sp, #8
    3342:	4669      	mov	r1, sp
    3344:	4b17      	ldr	r3, [pc, #92]	(33a4 <prog+0x3360>)
    3346:	f91bf000 	bl	3580 <prog+0x353c>
    334a:	f8fff011 	bl	1454c <__vPortExitCritical_from_thumb>
    334e:	9900      	ldr	r1, [sp, #0]
    3350:	2900      	cmp	r1, #0
    3352:	d004      	beq	335e <tulis_flash+0x6e>
    3354:	4814      	ldr	r0, [pc, #80]	(33a8 <prog+0x3364>)
    3356:	fdd1f7fd 	bl	efc <printf2>
    335a:	9800      	ldr	r0, [sp, #0]
    335c:	e015      	b	338a <tulis_flash+0x9a>
    335e:	4813      	ldr	r0, [pc, #76]	(33ac <prog+0x3368>)
    3360:	fdccf7fd 	bl	efc <printf2>
    3364:	1b2d      	sub	r5, r5, r4
    3366:	2d00      	cmp	r5, #0
    3368:	dd0a      	ble	3380 <tulis_flash+0x90>
    336a:	1c23      	mov	r3, r4		(add r3, r4, #0)
    336c:	2c00      	cmp	r4, #0
    336e:	da00      	bge	3372 <tulis_flash+0x82>
    3370:	1c63      	add	r3, r4, #1
    3372:	105b      	asr	r3, r3, #1
    3374:	18f6      	add	r6, r6, r3
    3376:	2015      	mov	r0, #21
    3378:	2115      	mov	r1, #21
    337a:	ff99f7ff 	bl	32b0 <prepare_flash>
    337e:	e7c1      	b	3304 <tulis_flash+0x14>
    3380:	9800      	ldr	r0, [sp, #0]
    3382:	e002      	b	338a <tulis_flash+0x9a>
    3384:	2480      	mov	r4, #128
    3386:	0064      	lsl	r4, r4, #1
    3388:	e7c6      	b	3318 <tulis_flash+0x28>
    338a:	b007      	add	sp, #28
    338c:	bc04      	pop	{r2}
    338e:	4690      	mov	r8, r2
    3390:	bcf0      	pop	{r4, r5, r6, r7}
    3392:	bc02      	pop	{r1}
    3394:	4708      	bx	r1
    3396:	0000      	lsl	r0, r0, #0
    3398:	fbff      	second half of BL instruction 0xfbff
    339a:	ffff      	second half of BL instruction 0xffff
    339c:	0bfe      	lsr	r6, r7, #15
    339e:	0000      	lsl	r0, r0, #0
    33a0:	ea60      	undefined
    33a2:	0000      	lsl	r0, r0, #0
    33a4:	fff1      	second half of BL instruction 0xfff1
    33a6:	7fff      	ldrb	r7, [r7, #31]
    33a8:	39d0      	sub	r1, #208
    33aa:	0001      	lsl	r1, r0, #0
    33ac:	39ec      	sub	r1, #236
    33ae:	0001      	lsl	r1, r0, #0

000033b0 <set_kanal>:
    33b0:	b5f0      	push	{r4, r5, r6, r7, lr}
    33b2:	4647      	mov	r7, r8
    33b4:	b480      	push	{r7}
    33b6:	b08b      	sub	sp, #44
    33b8:	1c04      	mov	r4, r0		(add r4, r0, #0)
    33ba:	1c0e      	mov	r6, r1		(add r6, r1, #0)
    33bc:	2802      	cmp	r0, #2
    33be:	dc31      	bgt	3424 <set_kanal+0x74>
    33c0:	2802      	cmp	r0, #2
    33c2:	d128      	bne	3416 <set_kanal+0x66>
    33c4:	684c      	ldr	r4, [r1, #4]
    33c6:	4957      	ldr	r1, [pc, #348]	(3524 <prog+0x34e0>)
    33c8:	1c20      	mov	r0, r4		(add r0, r4, #0)
    33ca:	fd59f004 	bl	7e80 <strcmp>
    33ce:	2800      	cmp	r0, #0
    33d0:	d115      	bne	33fe <set_kanal+0x4e>
    33d2:	4855      	ldr	r0, [pc, #340]	(3528 <prog+0x34e4>)
    33d4:	fd92f7fd 	bl	efc <printf2>
    33d8:	4854      	ldr	r0, [pc, #336]	(352c <prog+0x34e8>)
    33da:	fd8ff7fd 	bl	efc <printf2>
    33de:	4854      	ldr	r0, [pc, #336]	(3530 <prog+0x34ec>)
    33e0:	fd8cf7fd 	bl	efc <printf2>
    33e4:	4853      	ldr	r0, [pc, #332]	(3534 <prog+0x34f0>)
    33e6:	fd89f7fd 	bl	efc <printf2>
    33ea:	4853      	ldr	r0, [pc, #332]	(3538 <prog+0x34f4>)
    33ec:	fd86f7fd 	bl	efc <printf2>
    33f0:	4852      	ldr	r0, [pc, #328]	(353c <prog+0x34f8>)
    33f2:	fd83f7fd 	bl	efc <printf2>
    33f6:	4852      	ldr	r0, [pc, #328]	(3540 <prog+0x34fc>)
    33f8:	fd80f7fd 	bl	efc <printf2>
    33fc:	e08b      	b	3516 <set_kanal+0x166>
    33fe:	4951      	ldr	r1, [pc, #324]	(3544 <prog+0x3500>)
    3400:	1c20      	mov	r0, r4		(add r0, r4, #0)
    3402:	fd3df004 	bl	7e80 <strcmp>
    3406:	2800      	cmp	r0, #0
    3408:	d105      	bne	3416 <set_kanal+0x66>
    340a:	484f      	ldr	r0, [pc, #316]	(3548 <prog+0x3504>)
    340c:	fd76f7fd 	bl	efc <printf2>
    3410:	f8baf000 	bl	3588 <set_dafault_kalib>
    3414:	e07f      	b	3516 <set_kanal+0x166>
    3416:	484d      	ldr	r0, [pc, #308]	(354c <prog+0x3508>)
    3418:	fd70f7fd 	bl	efc <printf2>
    341c:	484c      	ldr	r0, [pc, #304]	(3550 <prog+0x350c>)
    341e:	fd6df7fd 	bl	efc <printf2>
    3422:	e078      	b	3516 <set_kanal+0x166>
    3424:	484b      	ldr	r0, [pc, #300]	(3554 <prog+0x3510>)
    3426:	6849      	ldr	r1, [r1, #4]
    3428:	fd68f7fd 	bl	efc <printf2>
    342c:	fb1ef000 	bl	3a6c <garis_bawah>
    3430:	1c20      	mov	r0, r4		(add r0, r4, #0)
    3432:	1c31      	mov	r1, r6		(add r1, r6, #0)
    3434:	f9a6f7ff 	bl	2784 <display_args>
    3438:	ad05      	add	r5, sp, #20
    343a:	6871      	ldr	r1, [r6, #4]
    343c:	1c28      	mov	r0, r5		(add r0, r5, #0)
    343e:	fd53f004 	bl	7ee8 <strcpy>
    3442:	4945      	ldr	r1, [pc, #276]	(3558 <prog+0x3514>)
    3444:	1c28      	mov	r0, r5		(add r0, r5, #0)
    3446:	aa04      	add	r2, sp, #16
    3448:	fc88f004 	bl	7d5c <sscanf>
    344c:	9c04      	ldr	r4, [sp, #16]
    344e:	2c0a      	cmp	r4, #10
    3450:	d801      	bhi	3456 <set_kanal+0xa6>
    3452:	2800      	cmp	r0, #0
    3454:	d103      	bne	345e <set_kanal+0xae>
    3456:	4841      	ldr	r0, [pc, #260]	(355c <prog+0x3518>)
    3458:	fd50f7fd 	bl	efc <printf2>
    345c:	e05b      	b	3516 <set_kanal+0x166>
    345e:	68b3      	ldr	r3, [r6, #8]
    3460:	4698      	mov	r8, r3
    3462:	493f      	ldr	r1, [pc, #252]	(3560 <prog+0x351c>)
    3464:	1c18      	mov	r0, r3		(add r0, r3, #0)
    3466:	fd0bf004 	bl	7e80 <strcmp>
    346a:	2800      	cmp	r0, #0
    346c:	d117      	bne	349e <set_kanal+0xee>
    346e:	483d      	ldr	r0, [pc, #244]	(3564 <prog+0x3520>)
    3470:	1c21      	mov	r1, r4		(add r1, r4, #0)
    3472:	fd43f7fd 	bl	efc <printf2>
    3476:	9b04      	ldr	r3, [sp, #16]
    3478:	00d8      	lsl	r0, r3, #3
    347a:	18c0      	add	r0, r0, r3
    347c:	00c0      	lsl	r0, r0, #3
    347e:	3818      	sub	r0, #24
    3480:	4c39      	ldr	r4, [pc, #228]	(3568 <prog+0x3524>)
    3482:	1900      	add	r0, r0, r4
    3484:	68f1      	ldr	r1, [r6, #12]
    3486:	fd2ff004 	bl	7ee8 <strcpy>
    348a:	4838      	ldr	r0, [pc, #224]	(356c <prog+0x3528>)
    348c:	9b04      	ldr	r3, [sp, #16]
    348e:	00d9      	lsl	r1, r3, #3
    3490:	18c9      	add	r1, r1, r3
    3492:	00c9      	lsl	r1, r1, #3
    3494:	3918      	sub	r1, #24
    3496:	1909      	add	r1, r1, r4
    3498:	fd30f7fd 	bl	efc <printf2>
    349c:	e03b      	b	3516 <set_kanal+0x166>
    349e:	1c28      	mov	r0, r5		(add r0, r5, #0)
    34a0:	4641      	mov	r1, r8
    34a2:	fd21f004 	bl	7ee8 <strcpy>
    34a6:	4932      	ldr	r1, [pc, #200]	(3570 <prog+0x352c>)
    34a8:	1c28      	mov	r0, r5		(add r0, r5, #0)
    34aa:	aa03      	add	r2, sp, #12
    34ac:	fc56f004 	bl	7d5c <sscanf>
    34b0:	2800      	cmp	r0, #0
    34b2:	d103      	bne	34bc <set_kanal+0x10c>
    34b4:	482f      	ldr	r0, [pc, #188]	(3574 <prog+0x3530>)
    34b6:	fd21f7fd 	bl	efc <printf2>
    34ba:	e02c      	b	3516 <set_kanal+0x166>
    34bc:	68f1      	ldr	r1, [r6, #12]
    34be:	1c28      	mov	r0, r5		(add r0, r5, #0)
    34c0:	fd12f004 	bl	7ee8 <strcpy>
    34c4:	492a      	ldr	r1, [pc, #168]	(3570 <prog+0x352c>)
    34c6:	1c28      	mov	r0, r5		(add r0, r5, #0)
    34c8:	aa02      	add	r2, sp, #8
    34ca:	fc47f004 	bl	7d5c <sscanf>
    34ce:	2800      	cmp	r0, #0
    34d0:	d103      	bne	34da <set_kanal+0x12a>
    34d2:	4829      	ldr	r0, [pc, #164]	(3578 <prog+0x3534>)
    34d4:	fd12f7fd 	bl	efc <printf2>
    34d8:	e01d      	b	3516 <set_kanal+0x166>
    34da:	4e28      	ldr	r6, [pc, #160]	(357c <prog+0x3538>)
    34dc:	9b04      	ldr	r3, [sp, #16]
    34de:	4698      	mov	r8, r3
    34e0:	9803      	ldr	r0, [sp, #12]
    34e2:	fba5f00c 	bl	fc30 <__extendsfdf2>
    34e6:	1c04      	mov	r4, r0		(add r4, r0, #0)
    34e8:	1c0d      	mov	r5, r1		(add r5, r1, #0)
    34ea:	9802      	ldr	r0, [sp, #8]
    34ec:	fba0f00c 	bl	fc30 <__extendsfdf2>
    34f0:	9000      	str	r0, [sp, #0]
    34f2:	9101      	str	r1, [sp, #4]
    34f4:	1c30      	mov	r0, r6		(add r0, r6, #0)
    34f6:	4641      	mov	r1, r8
    34f8:	1c22      	mov	r2, r4		(add r2, r4, #0)
    34fa:	1c2b      	mov	r3, r5		(add r3, r5, #0)
    34fc:	fcfef7fd 	bl	efc <printf2>
    3500:	9a04      	ldr	r2, [sp, #16]
    3502:	3a01      	sub	r2, #1
    3504:	4918      	ldr	r1, [pc, #96]	(3568 <prog+0x3524>)
    3506:	00d3      	lsl	r3, r2, #3
    3508:	189b      	add	r3, r3, r2
    350a:	00db      	lsl	r3, r3, #3
    350c:	185b      	add	r3, r3, r1
    350e:	9a03      	ldr	r2, [sp, #12]
    3510:	629a      	str	r2, [r3, #40]
    3512:	9a02      	ldr	r2, [sp, #8]
    3514:	62da      	str	r2, [r3, #44]
    3516:	b00b      	add	sp, #44
    3518:	bc04      	pop	{r2}
    351a:	4690      	mov	r8, r2
    351c:	bcf0      	pop	{r4, r5, r6, r7}
    351e:	bc01      	pop	{r0}
    3520:	4700      	bx	r0
    3522:	0000      	lsl	r0, r0, #0
    3524:	3300      	add	r3, #0
    3526:	0001      	lsl	r1, r0, #0
    3528:	39f0      	sub	r1, #240
    352a:	0001      	lsl	r1, r0, #0
    352c:	3a34      	sub	r2, #52
    352e:	0001      	lsl	r1, r0, #0
    3530:	3a50      	sub	r2, #80
    3532:	0001      	lsl	r1, r0, #0
    3534:	4204      	tst	r4, r0
    3536:	0001      	lsl	r1, r0, #0
    3538:	3a8c      	sub	r2, #140
    353a:	0001      	lsl	r1, r0, #0
    353c:	3ac8      	sub	r2, #200
    353e:	0001      	lsl	r1, r0, #0
    3540:	3af0      	sub	r2, #240
    3542:	0001      	lsl	r1, r0, #0
    3544:	36f4      	add	r6, #244
    3546:	0001      	lsl	r1, r0, #0
    3548:	3b34      	sub	r3, #52
    354a:	0001      	lsl	r1, r0, #0
    354c:	3724      	add	r7, #36
    354e:	0001      	lsl	r1, r0, #0
    3550:	3b58      	sub	r3, #88
    3552:	0001      	lsl	r1, r0, #0
    3554:	3b70      	sub	r3, #112
    3556:	0001      	lsl	r1, r0, #0
    3558:	39a4      	sub	r1, #164
    355a:	0001      	lsl	r1, r0, #0
    355c:	3b98      	sub	r3, #152
    355e:	0001      	lsl	r1, r0, #0
    3560:	3834      	sub	r0, #52
    3562:	0001      	lsl	r1, r0, #0
    3564:	3ba8      	sub	r3, #168
    3566:	0001      	lsl	r1, r0, #0
    3568:	6c80      	ldr	r0, [r0, #72]
    356a:	4000      	and	r0, r0
    356c:	3bcc      	sub	r3, #204
    356e:	0001      	lsl	r1, r0, #0
    3570:	3bd0      	sub	r3, #208
    3572:	0001      	lsl	r1, r0, #0
    3574:	3bd4      	sub	r3, #212
    3576:	0001      	lsl	r1, r0, #0
    3578:	3be0      	sub	r3, #224
    357a:	0001      	lsl	r1, r0, #0
    357c:	3bec      	sub	r3, #236
    357e:	0001      	lsl	r1, r0, #0
    3580:	4718      	bx	r3
    3582:	46c0      	nop			(mov r8, r8)

00003584 <tulis_env_flash>:
    3584:	4770      	bx	lr
	...

00003588 <set_dafault_kalib>:
    3588:	b570      	push	{r4, r5, r6, lr}
    358a:	2500      	mov	r5, #0
    358c:	4c0b      	ldr	r4, [pc, #44]	(35bc <prog+0x3578>)
    358e:	4e0c      	ldr	r6, [pc, #48]	(35c0 <prog+0x357c>)
    3590:	4b0c      	ldr	r3, [pc, #48]	(35c4 <prog+0x3580>)
    3592:	6023      	str	r3, [r4, #0]
    3594:	4b0c      	ldr	r3, [pc, #48]	(35c8 <prog+0x3584>)
    3596:	6063      	str	r3, [r4, #4]
    3598:	00e8      	lsl	r0, r5, #3
    359a:	1940      	add	r0, r0, r5
    359c:	00c0      	lsl	r0, r0, #3
    359e:	3030      	add	r0, #48
    35a0:	4b0a      	ldr	r3, [pc, #40]	(35cc <prog+0x3588>)
    35a2:	18c0      	add	r0, r0, r3
    35a4:	1c31      	mov	r1, r6		(add r1, r6, #0)
    35a6:	2203      	mov	r2, #3
    35a8:	f9fef004 	bl	79a8 <memcpy>
    35ac:	3501      	add	r5, #1
    35ae:	3448      	add	r4, #72
    35b0:	2d14      	cmp	r5, #20
    35b2:	d1ed      	bne	3590 <set_dafault_kalib+0x8>
    35b4:	bc70      	pop	{r4, r5, r6}
    35b6:	bc01      	pop	{r0}
    35b8:	4700      	bx	r0
    35ba:	0000      	lsl	r0, r0, #0
    35bc:	6ca8      	ldr	r0, [r5, #72]
    35be:	4000      	and	r0, r0
    35c0:	3dfc      	sub	r5, #252
    35c2:	0001      	lsl	r1, r0, #0
    35c4:	0000      	lsl	r0, r0, #0
    35c6:	3f80      	sub	r7, #128
    35c8:	0000      	lsl	r0, r0, #0
    35ca:	0000      	lsl	r0, r0, #0
    35cc:	6c80      	ldr	r0, [r0, #72]
    35ce:	4000      	and	r0, r0

000035d0 <set_default_ip>:
    35d0:	b570      	push	{r4, r5, r6, lr}
    35d2:	4656      	mov	r6, sl
    35d4:	4645      	mov	r5, r8
    35d6:	b460      	push	{r5, r6}
    35d8:	b081      	sub	sp, #4
    35da:	4820      	ldr	r0, [pc, #128]	(365c <prog+0x3618>)
    35dc:	fc8ef7fd 	bl	efc <printf2>
    35e0:	4c1f      	ldr	r4, [pc, #124]	(3660 <prog+0x361c>)
    35e2:	2640      	mov	r6, #64
    35e4:	4276      	neg	r6, r6
    35e6:	2320      	mov	r3, #32
    35e8:	54e6      	strb	r6, [r4, r3]
    35ea:	2558      	mov	r5, #88
    35ec:	426d      	neg	r5, r5
    35ee:	2321      	mov	r3, #33
    35f0:	54e5      	strb	r5, [r4, r3]
    35f2:	2201      	mov	r2, #1
    35f4:	4692      	mov	sl, r2
    35f6:	2322      	mov	r3, #34
    35f8:	54e2      	strb	r2, [r4, r3]
    35fa:	2306      	mov	r3, #6
    35fc:	425b      	neg	r3, r3
    35fe:	2223      	mov	r2, #35
    3600:	54a3      	strb	r3, [r4, r2]
    3602:	4b18      	ldr	r3, [pc, #96]	(3664 <prog+0x3620>)
    3604:	4698      	mov	r8, r3
    3606:	23fa      	mov	r3, #250
    3608:	9300      	str	r3, [sp, #0]
    360a:	4640      	mov	r0, r8
    360c:	21c0      	mov	r1, #192
    360e:	22a8      	mov	r2, #168
    3610:	2301      	mov	r3, #1
    3612:	fc73f7fd 	bl	efc <printf2>
    3616:	4814      	ldr	r0, [pc, #80]	(3668 <prog+0x3624>)
    3618:	fc70f7fd 	bl	efc <printf2>
    361c:	2324      	mov	r3, #36
    361e:	54e6      	strb	r6, [r4, r3]
    3620:	2325      	mov	r3, #37
    3622:	54e5      	strb	r5, [r4, r3]
    3624:	2326      	mov	r3, #38
    3626:	4652      	mov	r2, sl
    3628:	54e2      	strb	r2, [r4, r3]
    362a:	220d      	mov	r2, #13
    362c:	2327      	mov	r3, #39
    362e:	54e2      	strb	r2, [r4, r3]
    3630:	9200      	str	r2, [sp, #0]
    3632:	4640      	mov	r0, r8
    3634:	21c0      	mov	r1, #192
    3636:	22a8      	mov	r2, #168
    3638:	2301      	mov	r3, #1
    363a:	fc5ff7fd 	bl	efc <printf2>
    363e:	ffa3f7ff 	bl	3588 <set_dafault_kalib>
    3642:	490a      	ldr	r1, [pc, #40]	(366c <prog+0x3628>)
    3644:	1c20      	mov	r0, r4		(add r0, r4, #0)
    3646:	2213      	mov	r2, #19
    3648:	f9aef004 	bl	79a8 <memcpy>
    364c:	b001      	add	sp, #4
    364e:	bc0c      	pop	{r2, r3}
    3650:	4690      	mov	r8, r2
    3652:	469a      	mov	sl, r3
    3654:	bc70      	pop	{r4, r5, r6}
    3656:	bc01      	pop	{r0}
    3658:	4700      	bx	r0
    365a:	0000      	lsl	r0, r0, #0
    365c:	3e00      	sub	r6, #0
    365e:	0001      	lsl	r1, r0, #0
    3660:	6c80      	ldr	r0, [r0, #72]
    3662:	4000      	and	r0, r0
    3664:	3e10      	sub	r6, #16
    3666:	0001      	lsl	r1, r0, #0
    3668:	3e20      	sub	r6, #32
    366a:	0001      	lsl	r1, r0, #0
    366c:	3e30      	sub	r6, #48
    366e:	0001      	lsl	r1, r0, #0

00003670 <baca_env>:
    3670:	b5f0      	push	{r4, r5, r6, r7, lr}
    3672:	4657      	mov	r7, sl
    3674:	464e      	mov	r6, r9
    3676:	4645      	mov	r5, r8
    3678:	b4e0      	push	{r5, r6, r7}
    367a:	b082      	sub	sp, #8
    367c:	0600      	lsl	r0, r0, #24
    367e:	0e06      	lsr	r6, r0, #24
    3680:	2e01      	cmp	r6, #1
    3682:	d105      	bne	3690 <baca_env+0x20>
    3684:	4851      	ldr	r0, [pc, #324]	(37cc <prog+0x3788>)
    3686:	fc39f7fd 	bl	efc <printf2>
    368a:	f9eff000 	bl	3a6c <garis_bawah>
    368e:	e005      	b	369c <baca_env+0x2c>
    3690:	484f      	ldr	r0, [pc, #316]	(37d0 <prog+0x378c>)
    3692:	21f4      	mov	r1, #244
    3694:	02c9      	lsl	r1, r1, #11
    3696:	4a4f      	ldr	r2, [pc, #316]	(37d4 <prog+0x3790>)
    3698:	f986f004 	bl	79a8 <memcpy>
    369c:	22f4      	mov	r2, #244
    369e:	02d2      	lsl	r2, r2, #11
    36a0:	23b9      	mov	r3, #185
    36a2:	00db      	lsl	r3, r3, #3
    36a4:	58d3      	ldr	r3, [r2, r3]
    36a6:	2baa      	cmp	r3, #170
    36a8:	d000      	beq	36ac <baca_env+0x3c>
    36aa:	e080      	b	37ae <baca_env+0x13e>
    36ac:	4b4a      	ldr	r3, [pc, #296]	(37d8 <prog+0x3794>)
    36ae:	58d3      	ldr	r3, [r2, r3]
    36b0:	2b77      	cmp	r3, #119
    36b2:	d174      	bne	379e <baca_env+0x12e>
    36b4:	4849      	ldr	r0, [pc, #292]	(37dc <prog+0x3798>)
    36b6:	fc21f7fd 	bl	efc <printf2>
    36ba:	4c45      	ldr	r4, [pc, #276]	(37d0 <prog+0x378c>)
    36bc:	1c20      	mov	r0, r4		(add r0, r4, #0)
    36be:	fc1df7fd 	bl	efc <printf2>
    36c2:	4847      	ldr	r0, [pc, #284]	(37e0 <prog+0x379c>)
    36c4:	fc1af7fd 	bl	efc <printf2>
    36c8:	4d46      	ldr	r5, [pc, #280]	(37e4 <prog+0x37a0>)
    36ca:	2320      	mov	r3, #32
    36cc:	5ce1      	ldrb	r1, [r4, r3]
    36ce:	2321      	mov	r3, #33
    36d0:	5ce2      	ldrb	r2, [r4, r3]
    36d2:	2322      	mov	r3, #34
    36d4:	5ce3      	ldrb	r3, [r4, r3]
    36d6:	2023      	mov	r0, #35
    36d8:	5c20      	ldrb	r0, [r4, r0]
    36da:	9000      	str	r0, [sp, #0]
    36dc:	1c28      	mov	r0, r5		(add r0, r5, #0)
    36de:	fc0df7fd 	bl	efc <printf2>
    36e2:	4841      	ldr	r0, [pc, #260]	(37e8 <prog+0x37a4>)
    36e4:	fc0af7fd 	bl	efc <printf2>
    36e8:	2324      	mov	r3, #36
    36ea:	5ce1      	ldrb	r1, [r4, r3]
    36ec:	2325      	mov	r3, #37
    36ee:	5ce2      	ldrb	r2, [r4, r3]
    36f0:	2326      	mov	r3, #38
    36f2:	5ce3      	ldrb	r3, [r4, r3]
    36f4:	2027      	mov	r0, #39
    36f6:	5c20      	ldrb	r0, [r4, r0]
    36f8:	9000      	str	r0, [sp, #0]
    36fa:	1c28      	mov	r0, r5		(add r0, r5, #0)
    36fc:	fbfef7fd 	bl	efc <printf2>
    3700:	2e01      	cmp	r6, #1
    3702:	d001      	beq	3708 <baca_env+0x98>
    3704:	2000      	mov	r0, #0
    3706:	e059      	b	37bc <baca_env+0x14c>
    3708:	4838      	ldr	r0, [pc, #224]	(37ec <prog+0x37a8>)
    370a:	fbf7f7fd 	bl	efc <printf2>
    370e:	2300      	mov	r3, #0
